
interface.elf:     file format elf32-littlearm


Disassembly of section .text:

43c00000 <_start>:
 */
.text

	.global	_start
_start:
	b reset
43c00000:	ea00000d 	b	43c0003c <reset>
	ldr pc, _undefined_instruction
43c00004:	e59ff014 	ldr	pc, [pc, #20]	; 43c00020 <_undefined_instruction>
	ldr pc, _software_interrupt
43c00008:	e59ff014 	ldr	pc, [pc, #20]	; 43c00024 <_software_interrupt>
	ldr pc, _prefetch_abort
43c0000c:	e59ff014 	ldr	pc, [pc, #20]	; 43c00028 <_prefetch_abort>
	ldr pc, _data_abort
43c00010:	e59ff014 	ldr	pc, [pc, #20]	; 43c0002c <_data_abort>
	ldr pc, _not_used
43c00014:	e59ff014 	ldr	pc, [pc, #20]	; 43c00030 <_not_used>
	ldr pc, _irq
43c00018:	e59ff014 	ldr	pc, [pc, #20]	; 43c00034 <_irq>
	ldr pc, _fiq
43c0001c:	e59ff014 	ldr	pc, [pc, #20]	; 43c00038 <_fiq>

43c00020 <_undefined_instruction>:
43c00020:	43c00140 	bicmi	r0, r0, #64, 2

43c00024 <_software_interrupt>:
43c00024:	43c00160 	bicmi	r0, r0, #96, 2

43c00028 <_prefetch_abort>:
43c00028:	43c00180 	bicmi	r0, r0, #128, 2

43c0002c <_data_abort>:
43c0002c:	43c001a0 	bicmi	r0, r0, #160, 2	; 0x28

43c00030 <_not_used>:
43c00030:	43c001c0 	bicmi	r0, r0, #192, 2	; 0x30

43c00034 <_irq>:
43c00034:	43c001e0 	bicmi	r0, r0, #224, 2	; 0x38

43c00038 <_fiq>:
43c00038:	43c00200 	bicmi	r0, r0, #0, 4

43c0003c <reset>:
	.word fiq

 /* The actual reset code */
reset:
	/* Set Vector Base Address Register */
	ldr	r0,=0x43c00000
43c0003c:	e59f01cc 	ldr	r0, [pc, #460]	; 43c00210 <stacktop+0x4>
	mcr	p15,0,r0,c12,c0,0		@ Vector Base Address Register
43c00040:	ee0c0f10 	mcr	15, 0, r0, cr12, cr0, {0}
	mrc p15, 0, r0, c1, c0, 0
43c00044:	ee110f10 	mrc	15, 0, r0, cr1, cr0, {0}
	bic r0, #(1<<13)
43c00048:	e3c00a02 	bic	r0, r0, #8192	; 0x2000
	mcr p15, 0, r0, c1, c0, 0
43c0004c:	ee010f10 	mcr	15, 0, r0, cr1, cr0, {0}

	/* Set the cpu to svc32 mode */
	mrs r0, cpsr
43c00050:	e10f0000 	mrs	r0, CPSR
	bic r0, r0, #0x1f
43c00054:	e3c0001f 	bic	r0, r0, #31
	orr r0, r0, #0xd3
43c00058:	e38000d3 	orr	r0, r0, #211	; 0xd3
	msr cpsr, r0
43c0005c:	e129f000 	msr	CPSR_fc, r0

	/* Enable NEON/VFP unit */
	mrc p15, #0, r1, c1, c0, #2
43c00060:	ee111f50 	mrc	15, 0, r1, cr1, cr0, {2}
	orr r1, r1, #(0xf << 20)
43c00064:	e381160f 	orr	r1, r1, #15728640	; 0xf00000
	mcr p15, #0, r1, c1, c0, #2
43c00068:	ee011f50 	mcr	15, 0, r1, cr1, cr0, {2}
	mov r1, #0
43c0006c:	e3a01000 	mov	r1, #0
	mcr p15, #0, r1, c7, c5, #4
43c00070:	ee071f95 	mcr	15, 0, r1, cr7, cr5, {4}
	mov r0, #0x40000000
43c00074:	e3a00101 	mov	r0, #1073741824	; 0x40000000
	fmxr fpexc, r0
43c00078:	eee80a10 	vmsr	fpexc, r0

	/* Cache init */
	mrc	p15, 0, r0, c0, c0, 0
43c0007c:	ee100f10 	mrc	15, 0, r0, cr0, cr0, {0}
	and	r1, r0, #0x00f00000
43c00080:	e200160f 	and	r1, r0, #15728640	; 0xf00000
	and	r2, r0, #0x0000000f
43c00084:	e200200f 	and	r2, r0, #15
	orr r2, r2, r1, lsr #20-4
43c00088:	e1822821 	orr	r2, r2, r1, lsr #16
	cmp r2, #0x30
43c0008c:	e3520030 	cmp	r2, #48	; 0x30
	mrceq p15, 0, r0, c1, c0, 1
43c00090:	0e110f30 	mrceq	15, 0, r0, cr1, cr0, {1}
	orreq r0, r0, #0x6
43c00094:	03800006 	orreq	r0, r0, #6
	mcreq p15, 0, r0, c1, c0, 1
43c00098:	0e010f30 	mcreq	15, 0, r0, cr1, cr0, {1}

	/* Invalidate L1 I/D */
	mov r0, #0
43c0009c:	e3a00000 	mov	r0, #0
	mcr	p15, 0, r0, c8, c7, 0
43c000a0:	ee080f17 	mcr	15, 0, r0, cr8, cr7, {0}
	mcr	p15, 0, r0, c7, c5, 0
43c000a4:	ee070f15 	mcr	15, 0, r0, cr7, cr5, {0}

	/* Disable mmu stuff and caches */
	mrc p15, 0, r0, c1, c0, 0
43c000a8:	ee110f10 	mrc	15, 0, r0, cr1, cr0, {0}
	bic r0, r0, #0x00002000
43c000ac:	e3c00a02 	bic	r0, r0, #8192	; 0x2000
	bic r0, r0, #0x00000007
43c000b0:	e3c00007 	bic	r0, r0, #7
	orr r0, r0, #0x00001000
43c000b4:	e3800a01 	orr	r0, r0, #4096	; 0x1000
	orr r0, r0, #0x00000002
43c000b8:	e3800002 	orr	r0, r0, #2
	orr r0, r0, #0x00000800
43c000bc:	e3800b02 	orr	r0, r0, #2048	; 0x800
	mcr p15, 0, r0, c1, c0, 0
43c000c0:	ee010f10 	mcr	15, 0, r0, cr1, cr0, {0}

43c000c4 <init_stack>:

	/* Initialize stacks */

init_stack:
	ldr	r0, stacktop        /*get stack top pointer*/
43c000c4:	e59f0140 	ldr	r0, [pc, #320]	; 43c0020c <stacktop>

	/********svc mode stack********/
	mov	sp, r0
43c000c8:	e1a0d000 	mov	sp, r0
	sub	r0, #128*4          /*512 byte  for irq mode of stack*/
43c000cc:	e2400c02 	sub	r0, r0, #512	; 0x200
	/********irq mode stack********/
	msr	cpsr, #0xd2
43c000d0:	e329f0d2 	msr	CPSR_fc, #210	; 0xd2
	mov	sp, r0
43c000d4:	e1a0d000 	mov	sp, r0
	sub	r0, #128*4          /*512 byte  for fiq mode of stack*/
43c000d8:	e2400c02 	sub	r0, r0, #512	; 0x200
	/********fiq mode stack********/
	msr	cpsr, #0xd1
43c000dc:	e329f0d1 	msr	CPSR_fc, #209	; 0xd1
	mov	sp, r0
43c000e0:	e1a0d000 	mov	sp, r0
	sub	r0, #0
43c000e4:	e2400000 	sub	r0, r0, #0
	/********abort mode stack******/
	msr	cpsr, #0xd7
43c000e8:	e329f0d7 	msr	CPSR_fc, #215	; 0xd7
	mov	sp, r0
43c000ec:	e1a0d000 	mov	sp, r0
	sub	r0, #0
43c000f0:	e2400000 	sub	r0, r0, #0
	/********undefine mode stack**/
	msr	cpsr, #0xdb
43c000f4:	e329f0db 	msr	CPSR_fc, #219	; 0xdb
	mov	sp, r0
43c000f8:	e1a0d000 	mov	sp, r0
	sub	r0, #0
43c000fc:	e2400000 	sub	r0, r0, #0
    /***sys mode and usr mode stack***/
	msr	cpsr, #0x10
43c00100:	e329f010 	msr	CPSR_fc, #16
	mov	sp, r0             /*1024 byte  for user mode of stack*/
43c00104:	e1a0d000 	mov	sp, r0

    /******clear bss section********/
	ldr	r0, =__bss_start	/* this is auto-relocated! */
43c00108:	e59f0104 	ldr	r0, [pc, #260]	; 43c00214 <stacktop+0x8>
	ldr	r1, =__bss_end__	/* this is auto-relocated! */
43c0010c:	e59f1104 	ldr	r1, [pc, #260]	; 43c00218 <stacktop+0xc>
	mov	r2, #0x00000000		/* prepare zero to clear BSS */
43c00110:	e3a02000 	mov	r2, #0

43c00114 <clbss_l>:

clbss_l: cmp r0, r1			/* while not at end of BSS */
43c00114:	e1500001 	cmp	r0, r1
	strlo r2, [r0]			/* clear 32-bit BSS word */
43c00118:	35802000 	strcc	r2, [r0]
	addlo r0, r0, #4		/* move to next */
43c0011c:	32800004 	addcc	r0, r0, #4
	blo	clbss_l
43c00120:	3afffffb 	bcc	43c00114 <clbss_l>

	/* Call _main */
	b main
43c00124:	ea000e01 	b	43c03930 <main>
43c00128:	e1a00000 	nop			; (mov r0, r0)
43c0012c:	e1a00000 	nop			; (mov r0, r0)
43c00130:	e1a00000 	nop			; (mov r0, r0)
43c00134:	e1a00000 	nop			; (mov r0, r0)
43c00138:	e1a00000 	nop			; (mov r0, r0)
43c0013c:	e1a00000 	nop			; (mov r0, r0)

43c00140 <undefined_instruction>:
/*
 * Exception handlers
 */
	.align 5  // 2的5次方，=32bit 也就是4字节对其
undefined_instruction:
	b	.
43c00140:	eafffffe 	b	43c00140 <undefined_instruction>
43c00144:	e1a00000 	nop			; (mov r0, r0)
43c00148:	e1a00000 	nop			; (mov r0, r0)
43c0014c:	e1a00000 	nop			; (mov r0, r0)
43c00150:	e1a00000 	nop			; (mov r0, r0)
43c00154:	e1a00000 	nop			; (mov r0, r0)
43c00158:	e1a00000 	nop			; (mov r0, r0)
43c0015c:	e1a00000 	nop			; (mov r0, r0)

43c00160 <software_interrupt>:

	.align 5
software_interrupt:
	b	.
43c00160:	eafffffe 	b	43c00160 <software_interrupt>
43c00164:	e1a00000 	nop			; (mov r0, r0)
43c00168:	e1a00000 	nop			; (mov r0, r0)
43c0016c:	e1a00000 	nop			; (mov r0, r0)
43c00170:	e1a00000 	nop			; (mov r0, r0)
43c00174:	e1a00000 	nop			; (mov r0, r0)
43c00178:	e1a00000 	nop			; (mov r0, r0)
43c0017c:	e1a00000 	nop			; (mov r0, r0)

43c00180 <prefetch_abort>:

	.align 5
prefetch_abort:
	b	.
43c00180:	eafffffe 	b	43c00180 <prefetch_abort>
43c00184:	e1a00000 	nop			; (mov r0, r0)
43c00188:	e1a00000 	nop			; (mov r0, r0)
43c0018c:	e1a00000 	nop			; (mov r0, r0)
43c00190:	e1a00000 	nop			; (mov r0, r0)
43c00194:	e1a00000 	nop			; (mov r0, r0)
43c00198:	e1a00000 	nop			; (mov r0, r0)
43c0019c:	e1a00000 	nop			; (mov r0, r0)

43c001a0 <data_abort>:

	.align 5
data_abort:
	b	.
43c001a0:	eafffffe 	b	43c001a0 <data_abort>
43c001a4:	e1a00000 	nop			; (mov r0, r0)
43c001a8:	e1a00000 	nop			; (mov r0, r0)
43c001ac:	e1a00000 	nop			; (mov r0, r0)
43c001b0:	e1a00000 	nop			; (mov r0, r0)
43c001b4:	e1a00000 	nop			; (mov r0, r0)
43c001b8:	e1a00000 	nop			; (mov r0, r0)
43c001bc:	e1a00000 	nop			; (mov r0, r0)

43c001c0 <not_used>:

	.align 5
not_used:
	b	.
43c001c0:	eafffffe 	b	43c001c0 <not_used>
43c001c4:	e1a00000 	nop			; (mov r0, r0)
43c001c8:	e1a00000 	nop			; (mov r0, r0)
43c001cc:	e1a00000 	nop			; (mov r0, r0)
43c001d0:	e1a00000 	nop			; (mov r0, r0)
43c001d4:	e1a00000 	nop			; (mov r0, r0)
43c001d8:	e1a00000 	nop			; (mov r0, r0)
43c001dc:	e1a00000 	nop			; (mov r0, r0)

43c001e0 <irq>:

	.align 5
	.global irq
irq:
	sub  lr, lr, #4
43c001e0:	e24ee004 	sub	lr, lr, #4
	stmfd sp!, {r0-r12, lr}
43c001e4:	e92d5fff 	push	{r0, r1, r2, r3, r4, r5, r6, r7, r8, r9, sl, fp, ip, lr}
	.weak do_irq
	bl do_irq
43c001e8:	eb0008c3 	bl	43c024fc <do_irq>
	ldmfd sp!, {r0-r12, pc}^
43c001ec:	e8fd9fff 	ldm	sp!, {r0, r1, r2, r3, r4, r5, r6, r7, r8, r9, sl, fp, ip, pc}^
43c001f0:	e1a00000 	nop			; (mov r0, r0)
43c001f4:	e1a00000 	nop			; (mov r0, r0)
43c001f8:	e1a00000 	nop			; (mov r0, r0)
43c001fc:	e1a00000 	nop			; (mov r0, r0)

43c00200 <fiq>:

	.align 5
	.global fiq
fiq:
	sub  lr, lr, #4
43c00200:	e24ee004 	sub	lr, lr, #4
	stmfd sp!, {r0-r12, lr}
43c00204:	e92d5fff 	push	{r0, r1, r2, r3, r4, r5, r6, r7, r8, r9, sl, fp, ip, lr}
	.weak do_fiq
@	bl do_fiq
	ldmfd sp!, {r0-r12, pc}^
43c00208:	e8fd9fff 	ldm	sp!, {r0, r1, r2, r3, r4, r5, r6, r7, r8, r9, sl, fp, ip, pc}^

43c0020c <stacktop>:
43c0020c:	43c046fc 	bicmi	r4, r0, #252, 12	; 0xfc00000
43c00210:	43c00000 	bicmi	r0, r0, #0
43c00214:	43c047fc 	bicmi	r4, r0, #252, 14	; 0x3f00000
43c00218:	43c047fc 	bicmi	r4, r0, #252, 14	; 0x3f00000
43c0021c:	e1a00000 	nop			; (mov r0, r0)

43c00220 <__umodsi3>:
	.text
	.globl	 __umodsi3
	.type  __umodsi3       ,function
	.align 0
 __umodsi3      :
	cmp	divisor, #0
43c00220:	e3510000 	cmp	r1, #0
	beq	Ldiv0
43c00224:	0a000026 	beq	43c002c4 <Ldiv0>
	mov	curbit, #1
43c00228:	e3a03001 	mov	r3, #1
	cmp	dividend, divisor
43c0022c:	e1500001 	cmp	r0, r1
	movcc	pc, lr
43c00230:	31a0f00e 	movcc	pc, lr

43c00234 <Loop1>:
Loop1:
	@ Unless the divisor is very big, shift it up in multiples of
	@ four bits, since this is the amount of unwinding in the main
	@ division loop.  Continue shifting until the divisor is
	@ larger than the dividend.
	cmp	divisor, #0x10000000
43c00234:	e3510201 	cmp	r1, #268435456	; 0x10000000
	cmpcc	divisor, dividend
43c00238:	31510000 	cmpcc	r1, r0
	movcc	divisor, divisor, lsl #4
43c0023c:	31a01201 	lslcc	r1, r1, #4
	movcc	curbit, curbit, lsl #4
43c00240:	31a03203 	lslcc	r3, r3, #4
	bcc	Loop1
43c00244:	3afffffa 	bcc	43c00234 <Loop1>

43c00248 <Lbignum>:
Lbignum:
	@ For very big divisors, we must shift it a bit at a time, or
	@ we will be in danger of overflowing.
	cmp	divisor, #0x80000000
43c00248:	e3510102 	cmp	r1, #-2147483648	; 0x80000000
	cmpcc	divisor, dividend
43c0024c:	31510000 	cmpcc	r1, r0
	movcc	divisor, divisor, lsl #1
43c00250:	31a01081 	lslcc	r1, r1, #1
	movcc	curbit, curbit, lsl #1
43c00254:	31a03083 	lslcc	r3, r3, #1
	bcc	Lbignum
43c00258:	3afffffa 	bcc	43c00248 <Lbignum>

43c0025c <Loop3>:
Loop3:
	@ Test for possible subtractions.  On the final pass, this may
	@ subtract too much from the dividend, so keep track of which
	@ subtractions are done, we can fix them up afterwards...
	mov	overdone, #0
43c0025c:	e3a02000 	mov	r2, #0
	cmp	dividend, divisor
43c00260:	e1500001 	cmp	r0, r1
	subcs	dividend, dividend, divisor
43c00264:	20400001 	subcs	r0, r0, r1
	cmp	dividend, divisor, lsr #1
43c00268:	e15000a1 	cmp	r0, r1, lsr #1
	subcs	dividend, dividend, divisor, lsr #1
43c0026c:	204000a1 	subcs	r0, r0, r1, lsr #1
	orrcs	overdone, overdone, curbit, ror #1
43c00270:	218220e3 	orrcs	r2, r2, r3, ror #1
	cmp	dividend, divisor, lsr #2
43c00274:	e1500121 	cmp	r0, r1, lsr #2
	subcs	dividend, dividend, divisor, lsr #2
43c00278:	20400121 	subcs	r0, r0, r1, lsr #2
	orrcs	overdone, overdone, curbit, ror #2
43c0027c:	21822163 	orrcs	r2, r2, r3, ror #2
	cmp	dividend, divisor, lsr #3
43c00280:	e15001a1 	cmp	r0, r1, lsr #3
	subcs	dividend, dividend, divisor, lsr #3
43c00284:	204001a1 	subcs	r0, r0, r1, lsr #3
	orrcs	overdone, overdone, curbit, ror #3
43c00288:	218221e3 	orrcs	r2, r2, r3, ror #3
	mov	ip, curbit
43c0028c:	e1a0c003 	mov	ip, r3
	cmp	dividend, #0			@ Early termination?
43c00290:	e3500000 	cmp	r0, #0
	movnes	curbit, curbit, lsr #4		@ No, any more bits to do?
43c00294:	11b03223 	lsrsne	r3, r3, #4
	movne	divisor, divisor, lsr #4
43c00298:	11a01221 	lsrne	r1, r1, #4
	bne	Loop3
43c0029c:	1affffee 	bne	43c0025c <Loop3>
	@ the top three bits of "overdone".  Exactly which were not needed
	@ are governed by the position of the bit, stored in ip.
	@ If we terminated early, because dividend became zero,
	@ then none of the below will match, since the bit in ip will not be
	@ in the bottom nibble.
	ands	overdone, overdone, #0xe0000000
43c002a0:	e212220e 	ands	r2, r2, #-536870912	; 0xe0000000
	moveq	pc, lr				@ No fixups needed
43c002a4:	01a0f00e 	moveq	pc, lr
	tst	overdone, ip, ror #3
43c002a8:	e11201ec 	tst	r2, ip, ror #3
	addne	dividend, dividend, divisor, lsr #3
43c002ac:	108001a1 	addne	r0, r0, r1, lsr #3
	tst	overdone, ip, ror #2
43c002b0:	e112016c 	tst	r2, ip, ror #2
	addne	dividend, dividend, divisor, lsr #2
43c002b4:	10800121 	addne	r0, r0, r1, lsr #2
	tst	overdone, ip, ror #1
43c002b8:	e11200ec 	tst	r2, ip, ror #1
	addne	dividend, dividend, divisor, lsr #1
43c002bc:	108000a1 	addne	r0, r0, r1, lsr #1
	mov	pc, lr
43c002c0:	e1a0f00e 	mov	pc, lr

43c002c4 <Ldiv0>:
Ldiv0:
	str	lr, [sp, #-4]!
43c002c4:	e52de004 	push	{lr}		; (str lr, [sp, #-4]!)
@	bl	 __div0       (PLT)
	mov	r0, #0			@ about as wrong as it could be
43c002c8:	e3a00000 	mov	r0, #0
	ldmia	sp!, {pc}
43c002cc:	e49df004 	pop	{pc}		; (ldr pc, [sp], #4)

43c002d0 <__udivsi3>:
	.text
	.globl	 __udivsi3
	.type  __udivsi3       ,function
	.align	0
 __udivsi3      :
	cmp	divisor, #0
43c002d0:	e3510000 	cmp	r1, #0
	beq	Ldiv0
43c002d4:	0a00001f 	beq	43c00358 <Ldiv0>
	mov	curbit, #1
43c002d8:	e3a03001 	mov	r3, #1
	mov	result, #0
43c002dc:	e3a02000 	mov	r2, #0
	cmp	dividend, divisor
43c002e0:	e1500001 	cmp	r0, r1
	bcc	Lgot_result
43c002e4:	3a000019 	bcc	43c00350 <Lgot_result>

43c002e8 <Loop1>:
Loop1:
	@ Unless the divisor is very big, shift it up in multiples of
	@ four bits, since this is the amount of unwinding in the main
	@ division loop.  Continue shifting until the divisor is
	@ larger than the dividend.
	cmp	divisor, #0x10000000
43c002e8:	e3510201 	cmp	r1, #268435456	; 0x10000000
	cmpcc	divisor, dividend
43c002ec:	31510000 	cmpcc	r1, r0
	movcc	divisor, divisor, lsl #4
43c002f0:	31a01201 	lslcc	r1, r1, #4
	movcc	curbit, curbit, lsl #4
43c002f4:	31a03203 	lslcc	r3, r3, #4
	bcc	Loop1
43c002f8:	3afffffa 	bcc	43c002e8 <Loop1>

43c002fc <Lbignum>:
Lbignum:
	@ For very big divisors, we must shift it a bit at a time, or
	@ we will be in danger of overflowing.
	cmp	divisor, #0x80000000
43c002fc:	e3510102 	cmp	r1, #-2147483648	; 0x80000000
	cmpcc	divisor, dividend
43c00300:	31510000 	cmpcc	r1, r0
	movcc	divisor, divisor, lsl #1
43c00304:	31a01081 	lslcc	r1, r1, #1
	movcc	curbit, curbit, lsl #1
43c00308:	31a03083 	lslcc	r3, r3, #1
	bcc	Lbignum
43c0030c:	3afffffa 	bcc	43c002fc <Lbignum>

43c00310 <Loop3>:
Loop3:
	@ Test for possible subtractions, and note which bits
	@ are done in the result.  On the final pass, this may subtract
	@ too much from the dividend, but the result will be ok, since the
	@ "bit" will have been shifted out at the bottom.
	cmp	dividend, divisor
43c00310:	e1500001 	cmp	r0, r1
	subcs	dividend, dividend, divisor
43c00314:	20400001 	subcs	r0, r0, r1
	orrcs	result, result, curbit
43c00318:	21822003 	orrcs	r2, r2, r3
	cmp	dividend, divisor, lsr #1
43c0031c:	e15000a1 	cmp	r0, r1, lsr #1
	subcs	dividend, dividend, divisor, lsr #1
43c00320:	204000a1 	subcs	r0, r0, r1, lsr #1
	orrcs	result, result, curbit, lsr #1
43c00324:	218220a3 	orrcs	r2, r2, r3, lsr #1
	cmp	dividend, divisor, lsr #2
43c00328:	e1500121 	cmp	r0, r1, lsr #2
	subcs	dividend, dividend, divisor, lsr #2
43c0032c:	20400121 	subcs	r0, r0, r1, lsr #2
	orrcs	result, result, curbit, lsr #2
43c00330:	21822123 	orrcs	r2, r2, r3, lsr #2
	cmp	dividend, divisor, lsr #3
43c00334:	e15001a1 	cmp	r0, r1, lsr #3
	subcs	dividend, dividend, divisor, lsr #3
43c00338:	204001a1 	subcs	r0, r0, r1, lsr #3
	orrcs	result, result, curbit, lsr #3
43c0033c:	218221a3 	orrcs	r2, r2, r3, lsr #3
	cmp	dividend, #0			@ Early termination?
43c00340:	e3500000 	cmp	r0, #0
	movnes	curbit, curbit, lsr #4		@ No, any more bits to do?
43c00344:	11b03223 	lsrsne	r3, r3, #4
	movne	divisor, divisor, lsr #4
43c00348:	11a01221 	lsrne	r1, r1, #4
	bne	Loop3
43c0034c:	1affffef 	bne	43c00310 <Loop3>

43c00350 <Lgot_result>:
Lgot_result:
	mov	r0, result
43c00350:	e1a00002 	mov	r0, r2
	mov	pc, lr
43c00354:	e1a0f00e 	mov	pc, lr

43c00358 <Ldiv0>:
Ldiv0:
	str	lr, [sp, #-4]!
43c00358:	e52de004 	push	{lr}		; (str lr, [sp, #-4]!)
	@bl	 __div0       (PLT)
	mov	r0, #0			@ about as wrong as it could be
43c0035c:	e3a00000 	mov	r0, #0
	ldmia	sp!, {pc}
43c00360:	e49df004 	pop	{pc}		; (ldr pc, [sp], #4)

43c00364 <__toupper>:
		c -= 'A'-'a';
	return c;
}

static inline unsigned char __toupper(unsigned char c)
{
43c00364:	e52db004 	push	{fp}		; (str fp, [sp, #-4]!)
43c00368:	e28db000 	add	fp, sp, #0
43c0036c:	e24dd004 	sub	sp, sp, #4
43c00370:	e1a03000 	mov	r3, r0
43c00374:	e54b3004 	strb	r3, [fp, #-4]
	if (islower(c))
43c00378:	e55b3004 	ldrb	r3, [fp, #-4]
43c0037c:	e59f202c 	ldr	r2, [pc, #44]	; 43c003b0 <__toupper+0x4c>
43c00380:	e7d23003 	ldrb	r3, [r2, r3]
43c00384:	e2033002 	and	r3, r3, #2
43c00388:	e3530000 	cmp	r3, #0
43c0038c:	0a000002 	beq	43c0039c <__toupper+0x38>
		c -= 'a'-'A';
43c00390:	e55b3004 	ldrb	r3, [fp, #-4]
43c00394:	e2433020 	sub	r3, r3, #32
43c00398:	e54b3004 	strb	r3, [fp, #-4]
	return c;
43c0039c:	e55b3004 	ldrb	r3, [fp, #-4]
}
43c003a0:	e1a00003 	mov	r0, r3
43c003a4:	e28bd000 	add	sp, fp, #0
43c003a8:	e49db004 	pop	{fp}		; (ldr fp, [sp], #4)
43c003ac:	e12fff1e 	bx	lr
43c003b0:	43c046fc 	bicmi	r4, r0, #252, 12	; 0xfc00000

43c003b4 <simple_strtoul>:
#include <ctype.h>

#define size_t unsigned int

unsigned long simple_strtoul(const char *cp,char **endp,unsigned int base)
{
43c003b4:	e92d4800 	push	{fp, lr}
43c003b8:	e28db004 	add	fp, sp, #4
43c003bc:	e24dd014 	sub	sp, sp, #20
43c003c0:	e50b0010 	str	r0, [fp, #-16]
43c003c4:	e50b1014 	str	r1, [fp, #-20]	; 0xffffffec
43c003c8:	e50b2018 	str	r2, [fp, #-24]	; 0xffffffe8
	unsigned long result = 0,value;
43c003cc:	e3a03000 	mov	r3, #0
43c003d0:	e50b3008 	str	r3, [fp, #-8]

	if (*cp == '0') {
43c003d4:	e51b3010 	ldr	r3, [fp, #-16]
43c003d8:	e5d33000 	ldrb	r3, [r3]
43c003dc:	e3530030 	cmp	r3, #48	; 0x30
43c003e0:	1a000018 	bne	43c00448 <simple_strtoul+0x94>
		cp++;
43c003e4:	e51b3010 	ldr	r3, [fp, #-16]
43c003e8:	e2833001 	add	r3, r3, #1
43c003ec:	e50b3010 	str	r3, [fp, #-16]
		if ((*cp == 'x') && isxdigit(cp[1])) {
43c003f0:	e51b3010 	ldr	r3, [fp, #-16]
43c003f4:	e5d33000 	ldrb	r3, [r3]
43c003f8:	e3530078 	cmp	r3, #120	; 0x78
43c003fc:	1a00000c 	bne	43c00434 <simple_strtoul+0x80>
43c00400:	e51b3010 	ldr	r3, [fp, #-16]
43c00404:	e2833001 	add	r3, r3, #1
43c00408:	e5d33000 	ldrb	r3, [r3]
43c0040c:	e59f2140 	ldr	r2, [pc, #320]	; 43c00554 <simple_strtoul+0x1a0>
43c00410:	e7d23003 	ldrb	r3, [r2, r3]
43c00414:	e2033044 	and	r3, r3, #68	; 0x44
43c00418:	e3530000 	cmp	r3, #0
43c0041c:	0a000004 	beq	43c00434 <simple_strtoul+0x80>
			base = 16;
43c00420:	e3a03010 	mov	r3, #16
43c00424:	e50b3018 	str	r3, [fp, #-24]	; 0xffffffe8
			cp++;
43c00428:	e51b3010 	ldr	r3, [fp, #-16]
43c0042c:	e2833001 	add	r3, r3, #1
43c00430:	e50b3010 	str	r3, [fp, #-16]
		}
		if (!base) {
43c00434:	e51b3018 	ldr	r3, [fp, #-24]	; 0xffffffe8
43c00438:	e3530000 	cmp	r3, #0
43c0043c:	1a000001 	bne	43c00448 <simple_strtoul+0x94>
			base = 8;
43c00440:	e3a03008 	mov	r3, #8
43c00444:	e50b3018 	str	r3, [fp, #-24]	; 0xffffffe8
		}
	}
	if (!base) {
43c00448:	e51b3018 	ldr	r3, [fp, #-24]	; 0xffffffe8
43c0044c:	e3530000 	cmp	r3, #0
43c00450:	1a00000c 	bne	43c00488 <simple_strtoul+0xd4>
		base = 10;
43c00454:	e3a0300a 	mov	r3, #10
43c00458:	e50b3018 	str	r3, [fp, #-24]	; 0xffffffe8
	}
	while (isxdigit(*cp) && (value = isdigit(*cp) ? *cp-'0' : (islower(*cp)
43c0045c:	ea00000a 	b	43c0048c <simple_strtoul+0xd8>
	    ? toupper(*cp) : *cp)-'A'+10) < base) {
		result = result*base + value;
43c00460:	e51b3008 	ldr	r3, [fp, #-8]
43c00464:	e51b2018 	ldr	r2, [fp, #-24]	; 0xffffffe8
43c00468:	e0020293 	mul	r2, r3, r2
43c0046c:	e51b300c 	ldr	r3, [fp, #-12]
43c00470:	e0823003 	add	r3, r2, r3
43c00474:	e50b3008 	str	r3, [fp, #-8]
		cp++;
43c00478:	e51b3010 	ldr	r3, [fp, #-16]
43c0047c:	e2833001 	add	r3, r3, #1
43c00480:	e50b3010 	str	r3, [fp, #-16]
43c00484:	ea000000 	b	43c0048c <simple_strtoul+0xd8>
		}
	}
	if (!base) {
		base = 10;
	}
	while (isxdigit(*cp) && (value = isdigit(*cp) ? *cp-'0' : (islower(*cp)
43c00488:	e1a00000 	nop			; (mov r0, r0)
43c0048c:	e51b3010 	ldr	r3, [fp, #-16]
43c00490:	e5d33000 	ldrb	r3, [r3]
43c00494:	e59f20b8 	ldr	r2, [pc, #184]	; 43c00554 <simple_strtoul+0x1a0>
43c00498:	e7d23003 	ldrb	r3, [r2, r3]
43c0049c:	e2033044 	and	r3, r3, #68	; 0x44
43c004a0:	e3530000 	cmp	r3, #0
43c004a4:	0a000020 	beq	43c0052c <simple_strtoul+0x178>
43c004a8:	e51b3010 	ldr	r3, [fp, #-16]
43c004ac:	e5d33000 	ldrb	r3, [r3]
43c004b0:	e59f209c 	ldr	r2, [pc, #156]	; 43c00554 <simple_strtoul+0x1a0>
43c004b4:	e7d23003 	ldrb	r3, [r2, r3]
43c004b8:	e2033004 	and	r3, r3, #4
43c004bc:	e3530000 	cmp	r3, #0
43c004c0:	0a000003 	beq	43c004d4 <simple_strtoul+0x120>
43c004c4:	e51b3010 	ldr	r3, [fp, #-16]
43c004c8:	e5d33000 	ldrb	r3, [r3]
43c004cc:	e2433030 	sub	r3, r3, #48	; 0x30
43c004d0:	ea000010 	b	43c00518 <simple_strtoul+0x164>
43c004d4:	e51b3010 	ldr	r3, [fp, #-16]
43c004d8:	e5d33000 	ldrb	r3, [r3]
43c004dc:	e59f2070 	ldr	r2, [pc, #112]	; 43c00554 <simple_strtoul+0x1a0>
43c004e0:	e7d23003 	ldrb	r3, [r2, r3]
43c004e4:	e2033002 	and	r3, r3, #2
43c004e8:	e3530000 	cmp	r3, #0
43c004ec:	0a000006 	beq	43c0050c <simple_strtoul+0x158>
	    ? toupper(*cp) : *cp)-'A'+10) < base) {
43c004f0:	e51b3010 	ldr	r3, [fp, #-16]
43c004f4:	e5d33000 	ldrb	r3, [r3]
43c004f8:	e1a00003 	mov	r0, r3
43c004fc:	ebffff98 	bl	43c00364 <__toupper>
43c00500:	e1a03000 	mov	r3, r0
43c00504:	e2433037 	sub	r3, r3, #55	; 0x37
43c00508:	ea000002 	b	43c00518 <simple_strtoul+0x164>
43c0050c:	e51b3010 	ldr	r3, [fp, #-16]
43c00510:	e5d33000 	ldrb	r3, [r3]
43c00514:	e2433037 	sub	r3, r3, #55	; 0x37
		}
	}
	if (!base) {
		base = 10;
	}
	while (isxdigit(*cp) && (value = isdigit(*cp) ? *cp-'0' : (islower(*cp)
43c00518:	e50b300c 	str	r3, [fp, #-12]
43c0051c:	e51b200c 	ldr	r2, [fp, #-12]
43c00520:	e51b3018 	ldr	r3, [fp, #-24]	; 0xffffffe8
43c00524:	e1520003 	cmp	r2, r3
43c00528:	3affffcc 	bcc	43c00460 <simple_strtoul+0xac>
	    ? toupper(*cp) : *cp)-'A'+10) < base) {
		result = result*base + value;
		cp++;
	}
	if (endp)
43c0052c:	e51b3014 	ldr	r3, [fp, #-20]	; 0xffffffec
43c00530:	e3530000 	cmp	r3, #0
43c00534:	0a000002 	beq	43c00544 <simple_strtoul+0x190>
		*endp = (char *)cp;
43c00538:	e51b3014 	ldr	r3, [fp, #-20]	; 0xffffffec
43c0053c:	e51b2010 	ldr	r2, [fp, #-16]
43c00540:	e5832000 	str	r2, [r3]
	return result;
43c00544:	e51b3008 	ldr	r3, [fp, #-8]
}
43c00548:	e1a00003 	mov	r0, r3
43c0054c:	e24bd004 	sub	sp, fp, #4
43c00550:	e8bd8800 	pop	{fp, pc}
43c00554:	43c046fc 	bicmi	r4, r0, #252, 12	; 0xfc00000

43c00558 <simple_strtol>:

long simple_strtol(const char *cp,char **endp,unsigned int base)
{
43c00558:	e92d4800 	push	{fp, lr}
43c0055c:	e28db004 	add	fp, sp, #4
43c00560:	e24dd00c 	sub	sp, sp, #12
43c00564:	e50b0008 	str	r0, [fp, #-8]
43c00568:	e50b100c 	str	r1, [fp, #-12]
43c0056c:	e50b2010 	str	r2, [fp, #-16]
	if(*cp=='-')
43c00570:	e51b3008 	ldr	r3, [fp, #-8]
43c00574:	e5d33000 	ldrb	r3, [r3]
43c00578:	e353002d 	cmp	r3, #45	; 0x2d
43c0057c:	1a000008 	bne	43c005a4 <simple_strtol+0x4c>
		return -simple_strtoul(cp+1,endp,base);
43c00580:	e51b3008 	ldr	r3, [fp, #-8]
43c00584:	e2833001 	add	r3, r3, #1
43c00588:	e1a00003 	mov	r0, r3
43c0058c:	e51b100c 	ldr	r1, [fp, #-12]
43c00590:	e51b2010 	ldr	r2, [fp, #-16]
43c00594:	ebffff86 	bl	43c003b4 <simple_strtoul>
43c00598:	e1a03000 	mov	r3, r0
43c0059c:	e2633000 	rsb	r3, r3, #0
43c005a0:	ea000004 	b	43c005b8 <simple_strtol+0x60>
	return simple_strtoul(cp,endp,base);
43c005a4:	e51b0008 	ldr	r0, [fp, #-8]
43c005a8:	e51b100c 	ldr	r1, [fp, #-12]
43c005ac:	e51b2010 	ldr	r2, [fp, #-16]
43c005b0:	ebffff7f 	bl	43c003b4 <simple_strtoul>
43c005b4:	e1a03000 	mov	r3, r0
}
43c005b8:	e1a00003 	mov	r0, r3
43c005bc:	e24bd004 	sub	sp, fp, #4
43c005c0:	e8bd8800 	pop	{fp, pc}

43c005c4 <skip_atoi>:

/* we use this so that we can do without the ctype library */
#define is_digit(c)	((c) >= '0' && (c) <= '9')

static int skip_atoi(const char **s)
{
43c005c4:	e52db004 	push	{fp}		; (str fp, [sp, #-4]!)
43c005c8:	e28db000 	add	fp, sp, #0
43c005cc:	e24dd008 	sub	sp, sp, #8
43c005d0:	e50b0008 	str	r0, [fp, #-8]
	int i=0;
43c005d4:	e3a03000 	mov	r3, #0
43c005d8:	e50b3004 	str	r3, [fp, #-4]

	while (is_digit(**s))
43c005dc:	ea00000e 	b	43c0061c <skip_atoi+0x58>
		i = i*10 + *((*s)++) - '0';
43c005e0:	e51b2004 	ldr	r2, [fp, #-4]
43c005e4:	e1a03002 	mov	r3, r2
43c005e8:	e1a03103 	lsl	r3, r3, #2
43c005ec:	e0833002 	add	r3, r3, r2
43c005f0:	e1a03083 	lsl	r3, r3, #1
43c005f4:	e1a01003 	mov	r1, r3
43c005f8:	e51b3008 	ldr	r3, [fp, #-8]
43c005fc:	e5933000 	ldr	r3, [r3]
43c00600:	e5d32000 	ldrb	r2, [r3]
43c00604:	e0812002 	add	r2, r1, r2
43c00608:	e2422030 	sub	r2, r2, #48	; 0x30
43c0060c:	e50b2004 	str	r2, [fp, #-4]
43c00610:	e2832001 	add	r2, r3, #1
43c00614:	e51b3008 	ldr	r3, [fp, #-8]
43c00618:	e5832000 	str	r2, [r3]

static int skip_atoi(const char **s)
{
	int i=0;

	while (is_digit(**s))
43c0061c:	e51b3008 	ldr	r3, [fp, #-8]
43c00620:	e5933000 	ldr	r3, [r3]
43c00624:	e5d33000 	ldrb	r3, [r3]
43c00628:	e353002f 	cmp	r3, #47	; 0x2f
43c0062c:	9a000004 	bls	43c00644 <skip_atoi+0x80>
43c00630:	e51b3008 	ldr	r3, [fp, #-8]
43c00634:	e5933000 	ldr	r3, [r3]
43c00638:	e5d33000 	ldrb	r3, [r3]
43c0063c:	e3530039 	cmp	r3, #57	; 0x39
43c00640:	9affffe6 	bls	43c005e0 <skip_atoi+0x1c>
		i = i*10 + *((*s)++) - '0';
	return i;
43c00644:	e51b3004 	ldr	r3, [fp, #-4]
}
43c00648:	e1a00003 	mov	r0, r3
43c0064c:	e28bd000 	add	sp, fp, #0
43c00650:	e49db004 	pop	{fp}		; (ldr fp, [sp], #4)
43c00654:	e12fff1e 	bx	lr

43c00658 <number>:
#ifdef CFG_64BIT_VSPRINTF
static char * number(char * str, long long num, unsigned int base, int size, int precision ,int type)
#else
static char * number(char * str, long num, unsigned int base, int size, int precision ,int type)
#endif
{
43c00658:	e92d4800 	push	{fp, lr}
43c0065c:	e28db004 	add	fp, sp, #4
43c00660:	e24dd068 	sub	sp, sp, #104	; 0x68
43c00664:	e50b0060 	str	r0, [fp, #-96]	; 0xffffffa0
43c00668:	e50b1064 	str	r1, [fp, #-100]	; 0xffffff9c
43c0066c:	e50b2068 	str	r2, [fp, #-104]	; 0xffffff98
43c00670:	e50b306c 	str	r3, [fp, #-108]	; 0xffffff94
	char c,sign,tmp[66];
	const char *digits="0123456789abcdefghijklmnopqrstuvwxyz";
43c00674:	e59f346c 	ldr	r3, [pc, #1132]	; 43c00ae8 <number+0x490>
43c00678:	e50b300c 	str	r3, [fp, #-12]
	int i;

	if (type & LARGE)
43c0067c:	e59b3008 	ldr	r3, [fp, #8]
43c00680:	e2033040 	and	r3, r3, #64	; 0x40
43c00684:	e3530000 	cmp	r3, #0
43c00688:	0a000001 	beq	43c00694 <number+0x3c>
		digits = "0123456789ABCDEFGHIJKLMNOPQRSTUVWXYZ";
43c0068c:	e59f3458 	ldr	r3, [pc, #1112]	; 43c00aec <number+0x494>
43c00690:	e50b300c 	str	r3, [fp, #-12]
	if (type & LEFT)
43c00694:	e59b3008 	ldr	r3, [fp, #8]
43c00698:	e2033010 	and	r3, r3, #16
43c0069c:	e3530000 	cmp	r3, #0
43c006a0:	0a000002 	beq	43c006b0 <number+0x58>
		type &= ~ZEROPAD;
43c006a4:	e59b3008 	ldr	r3, [fp, #8]
43c006a8:	e3c33001 	bic	r3, r3, #1
43c006ac:	e58b3008 	str	r3, [fp, #8]
	if (base < 2 || base > 36)
43c006b0:	e51b3068 	ldr	r3, [fp, #-104]	; 0xffffff98
43c006b4:	e3530001 	cmp	r3, #1
43c006b8:	9a000002 	bls	43c006c8 <number+0x70>
43c006bc:	e51b3068 	ldr	r3, [fp, #-104]	; 0xffffff98
43c006c0:	e3530024 	cmp	r3, #36	; 0x24
43c006c4:	9a000001 	bls	43c006d0 <number+0x78>
		return 0;
43c006c8:	e3a03000 	mov	r3, #0
43c006cc:	ea000102 	b	43c00adc <number+0x484>
	c = (type & ZEROPAD) ? '0' : ' ';
43c006d0:	e59b3008 	ldr	r3, [fp, #8]
43c006d4:	e2033001 	and	r3, r3, #1
43c006d8:	e20330ff 	and	r3, r3, #255	; 0xff
43c006dc:	e3530000 	cmp	r3, #0
43c006e0:	0a000001 	beq	43c006ec <number+0x94>
43c006e4:	e3a03030 	mov	r3, #48	; 0x30
43c006e8:	ea000000 	b	43c006f0 <number+0x98>
43c006ec:	e3a03020 	mov	r3, #32
43c006f0:	e54b3011 	strb	r3, [fp, #-17]	; 0xffffffef
	sign = 0;
43c006f4:	e3a03000 	mov	r3, #0
43c006f8:	e54b3005 	strb	r3, [fp, #-5]
	if (type & SIGN) {
43c006fc:	e59b3008 	ldr	r3, [fp, #8]
43c00700:	e2033002 	and	r3, r3, #2
43c00704:	e3530000 	cmp	r3, #0
43c00708:	0a00001e 	beq	43c00788 <number+0x130>
		if (num < 0) {
43c0070c:	e51b3064 	ldr	r3, [fp, #-100]	; 0xffffff9c
43c00710:	e3530000 	cmp	r3, #0
43c00714:	aa000008 	bge	43c0073c <number+0xe4>
			sign = '-';
43c00718:	e3a0302d 	mov	r3, #45	; 0x2d
43c0071c:	e54b3005 	strb	r3, [fp, #-5]
			num = -num;
43c00720:	e51b3064 	ldr	r3, [fp, #-100]	; 0xffffff9c
43c00724:	e2633000 	rsb	r3, r3, #0
43c00728:	e50b3064 	str	r3, [fp, #-100]	; 0xffffff9c
			size--;
43c0072c:	e51b306c 	ldr	r3, [fp, #-108]	; 0xffffff94
43c00730:	e2433001 	sub	r3, r3, #1
43c00734:	e50b306c 	str	r3, [fp, #-108]	; 0xffffff94
43c00738:	ea000012 	b	43c00788 <number+0x130>
		} else if (type & PLUS) {
43c0073c:	e59b3008 	ldr	r3, [fp, #8]
43c00740:	e2033004 	and	r3, r3, #4
43c00744:	e3530000 	cmp	r3, #0
43c00748:	0a000005 	beq	43c00764 <number+0x10c>
			sign = '+';
43c0074c:	e3a0302b 	mov	r3, #43	; 0x2b
43c00750:	e54b3005 	strb	r3, [fp, #-5]
			size--;
43c00754:	e51b306c 	ldr	r3, [fp, #-108]	; 0xffffff94
43c00758:	e2433001 	sub	r3, r3, #1
43c0075c:	e50b306c 	str	r3, [fp, #-108]	; 0xffffff94
43c00760:	ea000008 	b	43c00788 <number+0x130>
		} else if (type & SPACE) {
43c00764:	e59b3008 	ldr	r3, [fp, #8]
43c00768:	e2033008 	and	r3, r3, #8
43c0076c:	e3530000 	cmp	r3, #0
43c00770:	0a000004 	beq	43c00788 <number+0x130>
			sign = ' ';
43c00774:	e3a03020 	mov	r3, #32
43c00778:	e54b3005 	strb	r3, [fp, #-5]
			size--;
43c0077c:	e51b306c 	ldr	r3, [fp, #-108]	; 0xffffff94
43c00780:	e2433001 	sub	r3, r3, #1
43c00784:	e50b306c 	str	r3, [fp, #-108]	; 0xffffff94
		}
	}
	if (type & SPECIAL) {
43c00788:	e59b3008 	ldr	r3, [fp, #8]
43c0078c:	e2033020 	and	r3, r3, #32
43c00790:	e3530000 	cmp	r3, #0
43c00794:	0a00000c 	beq	43c007cc <number+0x174>
		if (base == 16)
43c00798:	e51b3068 	ldr	r3, [fp, #-104]	; 0xffffff98
43c0079c:	e3530010 	cmp	r3, #16
43c007a0:	1a000003 	bne	43c007b4 <number+0x15c>
			size -= 2;
43c007a4:	e51b306c 	ldr	r3, [fp, #-108]	; 0xffffff94
43c007a8:	e2433002 	sub	r3, r3, #2
43c007ac:	e50b306c 	str	r3, [fp, #-108]	; 0xffffff94
43c007b0:	ea000005 	b	43c007cc <number+0x174>
		else if (base == 8)
43c007b4:	e51b3068 	ldr	r3, [fp, #-104]	; 0xffffff98
43c007b8:	e3530008 	cmp	r3, #8
43c007bc:	1a000002 	bne	43c007cc <number+0x174>
			size--;
43c007c0:	e51b306c 	ldr	r3, [fp, #-108]	; 0xffffff94
43c007c4:	e2433001 	sub	r3, r3, #1
43c007c8:	e50b306c 	str	r3, [fp, #-108]	; 0xffffff94
	}
	i = 0;
43c007cc:	e3a03000 	mov	r3, #0
43c007d0:	e50b3010 	str	r3, [fp, #-16]
	if (num == 0)
43c007d4:	e51b3064 	ldr	r3, [fp, #-100]	; 0xffffff9c
43c007d8:	e3530000 	cmp	r3, #0
43c007dc:	1a000027 	bne	43c00880 <number+0x228>
		tmp[i++]='0';
43c007e0:	e3e03057 	mvn	r3, #87	; 0x57
43c007e4:	e51b2010 	ldr	r2, [fp, #-16]
43c007e8:	e24b0004 	sub	r0, fp, #4
43c007ec:	e0802002 	add	r2, r0, r2
43c007f0:	e0823003 	add	r3, r2, r3
43c007f4:	e3a02030 	mov	r2, #48	; 0x30
43c007f8:	e5c32000 	strb	r2, [r3]
43c007fc:	e51b3010 	ldr	r3, [fp, #-16]
43c00800:	e2833001 	add	r3, r3, #1
43c00804:	e50b3010 	str	r3, [fp, #-16]
43c00808:	ea00001f 	b	43c0088c <number+0x234>
	else while (num != 0)
	if (i > precision)
43c0080c:	e51b2010 	ldr	r2, [fp, #-16]
43c00810:	e59b3004 	ldr	r3, [fp, #4]
43c00814:	e1520003 	cmp	r2, r3
43c00818:	da000018 	ble	43c00880 <number+0x228>
		tmp[i++] = digits[do_div(num,base)];
43c0081c:	e51b3064 	ldr	r3, [fp, #-100]	; 0xffffff9c
43c00820:	e1a00003 	mov	r0, r3
43c00824:	e51b1068 	ldr	r1, [fp, #-104]	; 0xffffff98
43c00828:	ebfffe7c 	bl	43c00220 <__umodsi3>
43c0082c:	e1a03000 	mov	r3, r0
43c00830:	e50b3018 	str	r3, [fp, #-24]	; 0xffffffe8
43c00834:	e51b3064 	ldr	r3, [fp, #-100]	; 0xffffff9c
43c00838:	e1a00003 	mov	r0, r3
43c0083c:	e51b1068 	ldr	r1, [fp, #-104]	; 0xffffff98
43c00840:	ebfffea2 	bl	43c002d0 <__udivsi3>
43c00844:	e1a03000 	mov	r3, r0
43c00848:	e50b3064 	str	r3, [fp, #-100]	; 0xffffff9c
43c0084c:	e51b3018 	ldr	r3, [fp, #-24]	; 0xffffffe8
43c00850:	e51b200c 	ldr	r2, [fp, #-12]
43c00854:	e0823003 	add	r3, r2, r3
43c00858:	e5d32000 	ldrb	r2, [r3]
43c0085c:	e3e03057 	mvn	r3, #87	; 0x57
43c00860:	e51b1010 	ldr	r1, [fp, #-16]
43c00864:	e24b0004 	sub	r0, fp, #4
43c00868:	e0801001 	add	r1, r0, r1
43c0086c:	e0813003 	add	r3, r1, r3
43c00870:	e5c32000 	strb	r2, [r3]
43c00874:	e51b3010 	ldr	r3, [fp, #-16]
43c00878:	e2833001 	add	r3, r3, #1
43c0087c:	e50b3010 	str	r3, [fp, #-16]
			size--;
	}
	i = 0;
	if (num == 0)
		tmp[i++]='0';
	else while (num != 0)
43c00880:	e51b3064 	ldr	r3, [fp, #-100]	; 0xffffff9c
43c00884:	e3530000 	cmp	r3, #0
43c00888:	1affffdf 	bne	43c0080c <number+0x1b4>
	if (i > precision)
		tmp[i++] = digits[do_div(num,base)];
		precision = i;
43c0088c:	e51b3010 	ldr	r3, [fp, #-16]
43c00890:	e58b3004 	str	r3, [fp, #4]
	size -= precision;
43c00894:	e51b206c 	ldr	r2, [fp, #-108]	; 0xffffff94
43c00898:	e59b3004 	ldr	r3, [fp, #4]
43c0089c:	e0633002 	rsb	r3, r3, r2
43c008a0:	e50b306c 	str	r3, [fp, #-108]	; 0xffffff94
	if (!(type&(ZEROPAD+LEFT)))
43c008a4:	e59b3008 	ldr	r3, [fp, #8]
43c008a8:	e2033011 	and	r3, r3, #17
43c008ac:	e3530000 	cmp	r3, #0
43c008b0:	1a000010 	bne	43c008f8 <number+0x2a0>
		while(size-->0)
43c008b4:	ea000005 	b	43c008d0 <number+0x278>
			*str++ = ' ';
43c008b8:	e51b3060 	ldr	r3, [fp, #-96]	; 0xffffffa0
43c008bc:	e3a02020 	mov	r2, #32
43c008c0:	e5c32000 	strb	r2, [r3]
43c008c4:	e51b3060 	ldr	r3, [fp, #-96]	; 0xffffffa0
43c008c8:	e2833001 	add	r3, r3, #1
43c008cc:	e50b3060 	str	r3, [fp, #-96]	; 0xffffffa0
	if (i > precision)
		tmp[i++] = digits[do_div(num,base)];
		precision = i;
	size -= precision;
	if (!(type&(ZEROPAD+LEFT)))
		while(size-->0)
43c008d0:	e51b306c 	ldr	r3, [fp, #-108]	; 0xffffff94
43c008d4:	e3530000 	cmp	r3, #0
43c008d8:	d3a03000 	movle	r3, #0
43c008dc:	c3a03001 	movgt	r3, #1
43c008e0:	e20330ff 	and	r3, r3, #255	; 0xff
43c008e4:	e51b206c 	ldr	r2, [fp, #-108]	; 0xffffff94
43c008e8:	e2422001 	sub	r2, r2, #1
43c008ec:	e50b206c 	str	r2, [fp, #-108]	; 0xffffff94
43c008f0:	e3530000 	cmp	r3, #0
43c008f4:	1affffef 	bne	43c008b8 <number+0x260>
			*str++ = ' ';
	if (sign)
43c008f8:	e55b3005 	ldrb	r3, [fp, #-5]
43c008fc:	e3530000 	cmp	r3, #0
43c00900:	0a000005 	beq	43c0091c <number+0x2c4>
		*str++ = sign;
43c00904:	e51b3060 	ldr	r3, [fp, #-96]	; 0xffffffa0
43c00908:	e55b2005 	ldrb	r2, [fp, #-5]
43c0090c:	e5c32000 	strb	r2, [r3]
43c00910:	e51b3060 	ldr	r3, [fp, #-96]	; 0xffffffa0
43c00914:	e2833001 	add	r3, r3, #1
43c00918:	e50b3060 	str	r3, [fp, #-96]	; 0xffffffa0
	if (type & SPECIAL) {
43c0091c:	e59b3008 	ldr	r3, [fp, #8]
43c00920:	e2033020 	and	r3, r3, #32
43c00924:	e3530000 	cmp	r3, #0
43c00928:	0a00001a 	beq	43c00998 <number+0x340>
		if (base==8)
43c0092c:	e51b3068 	ldr	r3, [fp, #-104]	; 0xffffff98
43c00930:	e3530008 	cmp	r3, #8
43c00934:	1a000006 	bne	43c00954 <number+0x2fc>
			*str++ = '0';
43c00938:	e51b3060 	ldr	r3, [fp, #-96]	; 0xffffffa0
43c0093c:	e3a02030 	mov	r2, #48	; 0x30
43c00940:	e5c32000 	strb	r2, [r3]
43c00944:	e51b3060 	ldr	r3, [fp, #-96]	; 0xffffffa0
43c00948:	e2833001 	add	r3, r3, #1
43c0094c:	e50b3060 	str	r3, [fp, #-96]	; 0xffffffa0
43c00950:	ea000010 	b	43c00998 <number+0x340>
		else if (base==16) {
43c00954:	e51b3068 	ldr	r3, [fp, #-104]	; 0xffffff98
43c00958:	e3530010 	cmp	r3, #16
43c0095c:	1a00000d 	bne	43c00998 <number+0x340>
			*str++ = '0';
43c00960:	e51b3060 	ldr	r3, [fp, #-96]	; 0xffffffa0
43c00964:	e3a02030 	mov	r2, #48	; 0x30
43c00968:	e5c32000 	strb	r2, [r3]
43c0096c:	e51b3060 	ldr	r3, [fp, #-96]	; 0xffffffa0
43c00970:	e2833001 	add	r3, r3, #1
43c00974:	e50b3060 	str	r3, [fp, #-96]	; 0xffffffa0
			*str++ = digits[33];
43c00978:	e51b300c 	ldr	r3, [fp, #-12]
43c0097c:	e2833021 	add	r3, r3, #33	; 0x21
43c00980:	e5d32000 	ldrb	r2, [r3]
43c00984:	e51b3060 	ldr	r3, [fp, #-96]	; 0xffffffa0
43c00988:	e5c32000 	strb	r2, [r3]
43c0098c:	e51b3060 	ldr	r3, [fp, #-96]	; 0xffffffa0
43c00990:	e2833001 	add	r3, r3, #1
43c00994:	e50b3060 	str	r3, [fp, #-96]	; 0xffffffa0
		}
	}
	if (!(type & LEFT))
43c00998:	e59b3008 	ldr	r3, [fp, #8]
43c0099c:	e2033010 	and	r3, r3, #16
43c009a0:	e3530000 	cmp	r3, #0
43c009a4:	1a000018 	bne	43c00a0c <number+0x3b4>
		while (size-- > 0)
43c009a8:	ea000005 	b	43c009c4 <number+0x36c>
			*str++ = c;
43c009ac:	e51b3060 	ldr	r3, [fp, #-96]	; 0xffffffa0
43c009b0:	e55b2011 	ldrb	r2, [fp, #-17]	; 0xffffffef
43c009b4:	e5c32000 	strb	r2, [r3]
43c009b8:	e51b3060 	ldr	r3, [fp, #-96]	; 0xffffffa0
43c009bc:	e2833001 	add	r3, r3, #1
43c009c0:	e50b3060 	str	r3, [fp, #-96]	; 0xffffffa0
			*str++ = '0';
			*str++ = digits[33];
		}
	}
	if (!(type & LEFT))
		while (size-- > 0)
43c009c4:	e51b306c 	ldr	r3, [fp, #-108]	; 0xffffff94
43c009c8:	e3530000 	cmp	r3, #0
43c009cc:	d3a03000 	movle	r3, #0
43c009d0:	c3a03001 	movgt	r3, #1
43c009d4:	e20330ff 	and	r3, r3, #255	; 0xff
43c009d8:	e51b206c 	ldr	r2, [fp, #-108]	; 0xffffff94
43c009dc:	e2422001 	sub	r2, r2, #1
43c009e0:	e50b206c 	str	r2, [fp, #-108]	; 0xffffff94
43c009e4:	e3530000 	cmp	r3, #0
43c009e8:	1affffef 	bne	43c009ac <number+0x354>
			*str++ = c;
	while (i < precision--)
43c009ec:	ea000007 	b	43c00a10 <number+0x3b8>
		*str++ = '0';
43c009f0:	e51b3060 	ldr	r3, [fp, #-96]	; 0xffffffa0
43c009f4:	e3a02030 	mov	r2, #48	; 0x30
43c009f8:	e5c32000 	strb	r2, [r3]
43c009fc:	e51b3060 	ldr	r3, [fp, #-96]	; 0xffffffa0
43c00a00:	e2833001 	add	r3, r3, #1
43c00a04:	e50b3060 	str	r3, [fp, #-96]	; 0xffffffa0
43c00a08:	ea000000 	b	43c00a10 <number+0x3b8>
		}
	}
	if (!(type & LEFT))
		while (size-- > 0)
			*str++ = c;
	while (i < precision--)
43c00a0c:	e1a00000 	nop			; (mov r0, r0)
43c00a10:	e59b2004 	ldr	r2, [fp, #4]
43c00a14:	e51b3010 	ldr	r3, [fp, #-16]
43c00a18:	e1520003 	cmp	r2, r3
43c00a1c:	d3a03000 	movle	r3, #0
43c00a20:	c3a03001 	movgt	r3, #1
43c00a24:	e20330ff 	and	r3, r3, #255	; 0xff
43c00a28:	e59b2004 	ldr	r2, [fp, #4]
43c00a2c:	e2422001 	sub	r2, r2, #1
43c00a30:	e58b2004 	str	r2, [fp, #4]
43c00a34:	e3530000 	cmp	r3, #0
43c00a38:	1affffec 	bne	43c009f0 <number+0x398>
		*str++ = '0';
	while (i-- > 0)
43c00a3c:	ea00000a 	b	43c00a6c <number+0x414>
		*str++ = tmp[i];
43c00a40:	e3e03057 	mvn	r3, #87	; 0x57
43c00a44:	e51b2010 	ldr	r2, [fp, #-16]
43c00a48:	e24b1004 	sub	r1, fp, #4
43c00a4c:	e0812002 	add	r2, r1, r2
43c00a50:	e0823003 	add	r3, r2, r3
43c00a54:	e5d32000 	ldrb	r2, [r3]
43c00a58:	e51b3060 	ldr	r3, [fp, #-96]	; 0xffffffa0
43c00a5c:	e5c32000 	strb	r2, [r3]
43c00a60:	e51b3060 	ldr	r3, [fp, #-96]	; 0xffffffa0
43c00a64:	e2833001 	add	r3, r3, #1
43c00a68:	e50b3060 	str	r3, [fp, #-96]	; 0xffffffa0
	if (!(type & LEFT))
		while (size-- > 0)
			*str++ = c;
	while (i < precision--)
		*str++ = '0';
	while (i-- > 0)
43c00a6c:	e51b3010 	ldr	r3, [fp, #-16]
43c00a70:	e3530000 	cmp	r3, #0
43c00a74:	d3a03000 	movle	r3, #0
43c00a78:	c3a03001 	movgt	r3, #1
43c00a7c:	e20330ff 	and	r3, r3, #255	; 0xff
43c00a80:	e51b2010 	ldr	r2, [fp, #-16]
43c00a84:	e2422001 	sub	r2, r2, #1
43c00a88:	e50b2010 	str	r2, [fp, #-16]
43c00a8c:	e3530000 	cmp	r3, #0
43c00a90:	1affffea 	bne	43c00a40 <number+0x3e8>
		*str++ = tmp[i];
	while (size-- > 0)
43c00a94:	ea000005 	b	43c00ab0 <number+0x458>
		*str++ = ' ';
43c00a98:	e51b3060 	ldr	r3, [fp, #-96]	; 0xffffffa0
43c00a9c:	e3a02020 	mov	r2, #32
43c00aa0:	e5c32000 	strb	r2, [r3]
43c00aa4:	e51b3060 	ldr	r3, [fp, #-96]	; 0xffffffa0
43c00aa8:	e2833001 	add	r3, r3, #1
43c00aac:	e50b3060 	str	r3, [fp, #-96]	; 0xffffffa0
			*str++ = c;
	while (i < precision--)
		*str++ = '0';
	while (i-- > 0)
		*str++ = tmp[i];
	while (size-- > 0)
43c00ab0:	e51b306c 	ldr	r3, [fp, #-108]	; 0xffffff94
43c00ab4:	e3530000 	cmp	r3, #0
43c00ab8:	d3a03000 	movle	r3, #0
43c00abc:	c3a03001 	movgt	r3, #1
43c00ac0:	e20330ff 	and	r3, r3, #255	; 0xff
43c00ac4:	e51b206c 	ldr	r2, [fp, #-108]	; 0xffffff94
43c00ac8:	e2422001 	sub	r2, r2, #1
43c00acc:	e50b206c 	str	r2, [fp, #-108]	; 0xffffff94
43c00ad0:	e3530000 	cmp	r3, #0
43c00ad4:	1affffef 	bne	43c00a98 <number+0x440>
		*str++ = ' ';
	return str;
43c00ad8:	e51b3060 	ldr	r3, [fp, #-96]	; 0xffffffa0
}
43c00adc:	e1a00003 	mov	r0, r3
43c00ae0:	e24bd004 	sub	sp, fp, #4
43c00ae4:	e8bd8800 	pop	{fp, pc}
43c00ae8:	43c0398c 	bicmi	r3, r0, #140, 18	; 0x230000
43c00aec:	43c039b4 	bicmi	r3, r0, #180, 18	; 0x2d0000

43c00af0 <strnlen>:

/* Forward decl. needed for IP address printing stuff... */
int sprintf(char * buf, const char *fmt, ...);
size_t strnlen(const char * s, size_t count)
{
43c00af0:	e52db004 	push	{fp}		; (str fp, [sp, #-4]!)
43c00af4:	e28db000 	add	fp, sp, #0
43c00af8:	e24dd00c 	sub	sp, sp, #12
43c00afc:	e50b0008 	str	r0, [fp, #-8]
43c00b00:	e50b100c 	str	r1, [fp, #-12]
	const char *sc;

	for (sc = s; count-- && *sc != '\0'; ++sc)
43c00b04:	e51b3008 	ldr	r3, [fp, #-8]
43c00b08:	e50b3004 	str	r3, [fp, #-4]
43c00b0c:	ea000002 	b	43c00b1c <strnlen+0x2c>
43c00b10:	e51b3004 	ldr	r3, [fp, #-4]
43c00b14:	e2833001 	add	r3, r3, #1
43c00b18:	e50b3004 	str	r3, [fp, #-4]
43c00b1c:	e51b300c 	ldr	r3, [fp, #-12]
43c00b20:	e3530000 	cmp	r3, #0
43c00b24:	03a03000 	moveq	r3, #0
43c00b28:	13a03001 	movne	r3, #1
43c00b2c:	e20330ff 	and	r3, r3, #255	; 0xff
43c00b30:	e51b200c 	ldr	r2, [fp, #-12]
43c00b34:	e2422001 	sub	r2, r2, #1
43c00b38:	e50b200c 	str	r2, [fp, #-12]
43c00b3c:	e3530000 	cmp	r3, #0
43c00b40:	0a000003 	beq	43c00b54 <strnlen+0x64>
43c00b44:	e51b3004 	ldr	r3, [fp, #-4]
43c00b48:	e5d33000 	ldrb	r3, [r3]
43c00b4c:	e3530000 	cmp	r3, #0
43c00b50:	1affffee 	bne	43c00b10 <strnlen+0x20>
		/* nothing */;
	return sc - s;
43c00b54:	e51b2004 	ldr	r2, [fp, #-4]
43c00b58:	e51b3008 	ldr	r3, [fp, #-8]
43c00b5c:	e0633002 	rsb	r3, r3, r2
}
43c00b60:	e1a00003 	mov	r0, r3
43c00b64:	e28bd000 	add	sp, fp, #0
43c00b68:	e49db004 	pop	{fp}		; (ldr fp, [sp], #4)
43c00b6c:	e12fff1e 	bx	lr

43c00b70 <vsprintf>:
int vsprintf(char *buf, const char *fmt, va_list args)
{
43c00b70:	e92d4800 	push	{fp, lr}
43c00b74:	e28db004 	add	fp, sp, #4
43c00b78:	e24dd044 	sub	sp, sp, #68	; 0x44
43c00b7c:	e50b0038 	str	r0, [fp, #-56]	; 0xffffffc8
43c00b80:	e50b103c 	str	r1, [fp, #-60]	; 0xffffffc4
43c00b84:	e50b2040 	str	r2, [fp, #-64]	; 0xffffffc0
	int field_width;	/* width of output field */
	int precision;		/* min. # of digits for integers; max
				   number of chars for from string */
	int qualifier;		/* 'h', 'l', or 'q' for integer fields */

	for (str=buf ; *fmt ; ++fmt) {
43c00b88:	e51b3038 	ldr	r3, [fp, #-56]	; 0xffffffc8
43c00b8c:	e50b3014 	str	r3, [fp, #-20]	; 0xffffffec
43c00b90:	ea000235 	b	43c0146c <vsprintf+0x8fc>
		if (*fmt != '%') {
43c00b94:	e51b303c 	ldr	r3, [fp, #-60]	; 0xffffffc4
43c00b98:	e5d33000 	ldrb	r3, [r3]
43c00b9c:	e3530025 	cmp	r3, #37	; 0x25
43c00ba0:	0a000007 	beq	43c00bc4 <vsprintf+0x54>
			*str++ = *fmt;
43c00ba4:	e51b303c 	ldr	r3, [fp, #-60]	; 0xffffffc4
43c00ba8:	e5d32000 	ldrb	r2, [r3]
43c00bac:	e51b3014 	ldr	r3, [fp, #-20]	; 0xffffffec
43c00bb0:	e5c32000 	strb	r2, [r3]
43c00bb4:	e51b3014 	ldr	r3, [fp, #-20]	; 0xffffffec
43c00bb8:	e2833001 	add	r3, r3, #1
43c00bbc:	e50b3014 	str	r3, [fp, #-20]	; 0xffffffec
			continue;
43c00bc0:	ea000226 	b	43c01460 <vsprintf+0x8f0>
		}

		/* process flags */
		flags = 0;
43c00bc4:	e3a03000 	mov	r3, #0
43c00bc8:	e50b301c 	str	r3, [fp, #-28]	; 0xffffffe4
		repeat:
			++fmt;		/* this also skips first '%' */
43c00bcc:	e51b303c 	ldr	r3, [fp, #-60]	; 0xffffffc4
43c00bd0:	e2833001 	add	r3, r3, #1
43c00bd4:	e50b303c 	str	r3, [fp, #-60]	; 0xffffffc4
			switch (*fmt) {
43c00bd8:	e51b303c 	ldr	r3, [fp, #-60]	; 0xffffffc4
43c00bdc:	e5d33000 	ldrb	r3, [r3]
43c00be0:	e2433020 	sub	r3, r3, #32
43c00be4:	e3530010 	cmp	r3, #16
43c00be8:	979ff103 	ldrls	pc, [pc, r3, lsl #2]
43c00bec:	ea000024 	b	43c00c84 <vsprintf+0x114>
43c00bf0:	43c00c54 	bicmi	r0, r0, #84, 24	; 0x5400
43c00bf4:	43c00c84 	bicmi	r0, r0, #132, 24	; 0x8400
43c00bf8:	43c00c84 	bicmi	r0, r0, #132, 24	; 0x8400
43c00bfc:	43c00c64 	bicmi	r0, r0, #100, 24	; 0x6400
43c00c00:	43c00c84 	bicmi	r0, r0, #132, 24	; 0x8400
43c00c04:	43c00c84 	bicmi	r0, r0, #132, 24	; 0x8400
43c00c08:	43c00c84 	bicmi	r0, r0, #132, 24	; 0x8400
43c00c0c:	43c00c84 	bicmi	r0, r0, #132, 24	; 0x8400
43c00c10:	43c00c84 	bicmi	r0, r0, #132, 24	; 0x8400
43c00c14:	43c00c84 	bicmi	r0, r0, #132, 24	; 0x8400
43c00c18:	43c00c84 	bicmi	r0, r0, #132, 24	; 0x8400
43c00c1c:	43c00c44 	bicmi	r0, r0, #68, 24	; 0x4400
43c00c20:	43c00c84 	bicmi	r0, r0, #132, 24	; 0x8400
43c00c24:	43c00c34 	bicmi	r0, r0, #52, 24	; 0x3400
43c00c28:	43c00c84 	bicmi	r0, r0, #132, 24	; 0x8400
43c00c2c:	43c00c84 	bicmi	r0, r0, #132, 24	; 0x8400
43c00c30:	43c00c74 	bicmi	r0, r0, #116, 24	; 0x7400
				case '-': flags |= LEFT; goto repeat;
43c00c34:	e51b301c 	ldr	r3, [fp, #-28]	; 0xffffffe4
43c00c38:	e3833010 	orr	r3, r3, #16
43c00c3c:	e50b301c 	str	r3, [fp, #-28]	; 0xffffffe4
43c00c40:	eaffffe1 	b	43c00bcc <vsprintf+0x5c>
				case '+': flags |= PLUS; goto repeat;
43c00c44:	e51b301c 	ldr	r3, [fp, #-28]	; 0xffffffe4
43c00c48:	e3833004 	orr	r3, r3, #4
43c00c4c:	e50b301c 	str	r3, [fp, #-28]	; 0xffffffe4
43c00c50:	eaffffdd 	b	43c00bcc <vsprintf+0x5c>
				case ' ': flags |= SPACE; goto repeat;
43c00c54:	e51b301c 	ldr	r3, [fp, #-28]	; 0xffffffe4
43c00c58:	e3833008 	orr	r3, r3, #8
43c00c5c:	e50b301c 	str	r3, [fp, #-28]	; 0xffffffe4
43c00c60:	eaffffd9 	b	43c00bcc <vsprintf+0x5c>
				case '#': flags |= SPECIAL; goto repeat;
43c00c64:	e51b301c 	ldr	r3, [fp, #-28]	; 0xffffffe4
43c00c68:	e3833020 	orr	r3, r3, #32
43c00c6c:	e50b301c 	str	r3, [fp, #-28]	; 0xffffffe4
43c00c70:	eaffffd5 	b	43c00bcc <vsprintf+0x5c>
				case '0': flags |= ZEROPAD; goto repeat;
43c00c74:	e51b301c 	ldr	r3, [fp, #-28]	; 0xffffffe4
43c00c78:	e3833001 	orr	r3, r3, #1
43c00c7c:	e50b301c 	str	r3, [fp, #-28]	; 0xffffffe4
43c00c80:	eaffffd1 	b	43c00bcc <vsprintf+0x5c>
				}

		/* get field width */
		field_width = -1;
43c00c84:	e3e03000 	mvn	r3, #0
43c00c88:	e50b3020 	str	r3, [fp, #-32]	; 0xffffffe0
		if (is_digit(*fmt))
43c00c8c:	e51b303c 	ldr	r3, [fp, #-60]	; 0xffffffc4
43c00c90:	e5d33000 	ldrb	r3, [r3]
43c00c94:	e353002f 	cmp	r3, #47	; 0x2f
43c00c98:	9a000008 	bls	43c00cc0 <vsprintf+0x150>
43c00c9c:	e51b303c 	ldr	r3, [fp, #-60]	; 0xffffffc4
43c00ca0:	e5d33000 	ldrb	r3, [r3]
43c00ca4:	e3530039 	cmp	r3, #57	; 0x39
43c00ca8:	8a000004 	bhi	43c00cc0 <vsprintf+0x150>
			field_width = skip_atoi(&fmt);
43c00cac:	e24b303c 	sub	r3, fp, #60	; 0x3c
43c00cb0:	e1a00003 	mov	r0, r3
43c00cb4:	ebfffe42 	bl	43c005c4 <skip_atoi>
43c00cb8:	e50b0020 	str	r0, [fp, #-32]	; 0xffffffe0
43c00cbc:	ea000014 	b	43c00d14 <vsprintf+0x1a4>
		else if (*fmt == '*') {
43c00cc0:	e51b303c 	ldr	r3, [fp, #-60]	; 0xffffffc4
43c00cc4:	e5d33000 	ldrb	r3, [r3]
43c00cc8:	e353002a 	cmp	r3, #42	; 0x2a
43c00ccc:	1a000010 	bne	43c00d14 <vsprintf+0x1a4>
			++fmt;
43c00cd0:	e51b303c 	ldr	r3, [fp, #-60]	; 0xffffffc4
43c00cd4:	e2833001 	add	r3, r3, #1
43c00cd8:	e50b303c 	str	r3, [fp, #-60]	; 0xffffffc4
			/* it's the next argument */
			field_width = va_arg(args, int);
43c00cdc:	e51b3040 	ldr	r3, [fp, #-64]	; 0xffffffc0
43c00ce0:	e2832004 	add	r2, r3, #4
43c00ce4:	e50b2040 	str	r2, [fp, #-64]	; 0xffffffc0
43c00ce8:	e5933000 	ldr	r3, [r3]
43c00cec:	e50b3020 	str	r3, [fp, #-32]	; 0xffffffe0
			if (field_width < 0) {
43c00cf0:	e51b3020 	ldr	r3, [fp, #-32]	; 0xffffffe0
43c00cf4:	e3530000 	cmp	r3, #0
43c00cf8:	aa000005 	bge	43c00d14 <vsprintf+0x1a4>
				field_width = -field_width;
43c00cfc:	e51b3020 	ldr	r3, [fp, #-32]	; 0xffffffe0
43c00d00:	e2633000 	rsb	r3, r3, #0
43c00d04:	e50b3020 	str	r3, [fp, #-32]	; 0xffffffe0
				flags |= LEFT;
43c00d08:	e51b301c 	ldr	r3, [fp, #-28]	; 0xffffffe4
43c00d0c:	e3833010 	orr	r3, r3, #16
43c00d10:	e50b301c 	str	r3, [fp, #-28]	; 0xffffffe4
			}
		}

		/* get the precision */
		precision = -1;
43c00d14:	e3e03000 	mvn	r3, #0
43c00d18:	e50b3024 	str	r3, [fp, #-36]	; 0xffffffdc
		if (*fmt == '.') {
43c00d1c:	e51b303c 	ldr	r3, [fp, #-60]	; 0xffffffc4
43c00d20:	e5d33000 	ldrb	r3, [r3]
43c00d24:	e353002e 	cmp	r3, #46	; 0x2e
43c00d28:	1a000020 	bne	43c00db0 <vsprintf+0x240>
			++fmt;
43c00d2c:	e51b303c 	ldr	r3, [fp, #-60]	; 0xffffffc4
43c00d30:	e2833001 	add	r3, r3, #1
43c00d34:	e50b303c 	str	r3, [fp, #-60]	; 0xffffffc4
			if (is_digit(*fmt))
43c00d38:	e51b303c 	ldr	r3, [fp, #-60]	; 0xffffffc4
43c00d3c:	e5d33000 	ldrb	r3, [r3]
43c00d40:	e353002f 	cmp	r3, #47	; 0x2f
43c00d44:	9a000008 	bls	43c00d6c <vsprintf+0x1fc>
43c00d48:	e51b303c 	ldr	r3, [fp, #-60]	; 0xffffffc4
43c00d4c:	e5d33000 	ldrb	r3, [r3]
43c00d50:	e3530039 	cmp	r3, #57	; 0x39
43c00d54:	8a000004 	bhi	43c00d6c <vsprintf+0x1fc>
				precision = skip_atoi(&fmt);
43c00d58:	e24b303c 	sub	r3, fp, #60	; 0x3c
43c00d5c:	e1a00003 	mov	r0, r3
43c00d60:	ebfffe17 	bl	43c005c4 <skip_atoi>
43c00d64:	e50b0024 	str	r0, [fp, #-36]	; 0xffffffdc
43c00d68:	ea00000b 	b	43c00d9c <vsprintf+0x22c>
			else if (*fmt == '*') {
43c00d6c:	e51b303c 	ldr	r3, [fp, #-60]	; 0xffffffc4
43c00d70:	e5d33000 	ldrb	r3, [r3]
43c00d74:	e353002a 	cmp	r3, #42	; 0x2a
43c00d78:	1a000007 	bne	43c00d9c <vsprintf+0x22c>
				++fmt;
43c00d7c:	e51b303c 	ldr	r3, [fp, #-60]	; 0xffffffc4
43c00d80:	e2833001 	add	r3, r3, #1
43c00d84:	e50b303c 	str	r3, [fp, #-60]	; 0xffffffc4
				/* it's the next argument */
				precision = va_arg(args, int);
43c00d88:	e51b3040 	ldr	r3, [fp, #-64]	; 0xffffffc0
43c00d8c:	e2832004 	add	r2, r3, #4
43c00d90:	e50b2040 	str	r2, [fp, #-64]	; 0xffffffc0
43c00d94:	e5933000 	ldr	r3, [r3]
43c00d98:	e50b3024 	str	r3, [fp, #-36]	; 0xffffffdc
			}
			if (precision < 0)
43c00d9c:	e51b3024 	ldr	r3, [fp, #-36]	; 0xffffffdc
43c00da0:	e3530000 	cmp	r3, #0
43c00da4:	aa000001 	bge	43c00db0 <vsprintf+0x240>
				precision = 0;
43c00da8:	e3a03000 	mov	r3, #0
43c00dac:	e50b3024 	str	r3, [fp, #-36]	; 0xffffffdc
		}

		/* get the conversion qualifier */
		qualifier = -1;
43c00db0:	e3e03000 	mvn	r3, #0
43c00db4:	e50b3028 	str	r3, [fp, #-40]	; 0xffffffd8
		if (*fmt == 'h' || *fmt == 'l' || *fmt == 'L' ||
43c00db8:	e51b303c 	ldr	r3, [fp, #-60]	; 0xffffffc4
43c00dbc:	e5d33000 	ldrb	r3, [r3]
43c00dc0:	e3530068 	cmp	r3, #104	; 0x68
43c00dc4:	0a000017 	beq	43c00e28 <vsprintf+0x2b8>
43c00dc8:	e51b303c 	ldr	r3, [fp, #-60]	; 0xffffffc4
43c00dcc:	e5d33000 	ldrb	r3, [r3]
43c00dd0:	e353006c 	cmp	r3, #108	; 0x6c
43c00dd4:	0a000013 	beq	43c00e28 <vsprintf+0x2b8>
43c00dd8:	e51b303c 	ldr	r3, [fp, #-60]	; 0xffffffc4
43c00ddc:	e5d33000 	ldrb	r3, [r3]
43c00de0:	e353004c 	cmp	r3, #76	; 0x4c
43c00de4:	0a00000f 	beq	43c00e28 <vsprintf+0x2b8>
		    *fmt == 'Z' || *fmt == 'z' || *fmt == 't' ||
43c00de8:	e51b303c 	ldr	r3, [fp, #-60]	; 0xffffffc4
43c00dec:	e5d33000 	ldrb	r3, [r3]
				precision = 0;
		}

		/* get the conversion qualifier */
		qualifier = -1;
		if (*fmt == 'h' || *fmt == 'l' || *fmt == 'L' ||
43c00df0:	e353005a 	cmp	r3, #90	; 0x5a
43c00df4:	0a00000b 	beq	43c00e28 <vsprintf+0x2b8>
		    *fmt == 'Z' || *fmt == 'z' || *fmt == 't' ||
43c00df8:	e51b303c 	ldr	r3, [fp, #-60]	; 0xffffffc4
43c00dfc:	e5d33000 	ldrb	r3, [r3]
43c00e00:	e353007a 	cmp	r3, #122	; 0x7a
43c00e04:	0a000007 	beq	43c00e28 <vsprintf+0x2b8>
43c00e08:	e51b303c 	ldr	r3, [fp, #-60]	; 0xffffffc4
43c00e0c:	e5d33000 	ldrb	r3, [r3]
43c00e10:	e3530074 	cmp	r3, #116	; 0x74
43c00e14:	0a000003 	beq	43c00e28 <vsprintf+0x2b8>
		    *fmt == 'q' ) {
43c00e18:	e51b303c 	ldr	r3, [fp, #-60]	; 0xffffffc4
43c00e1c:	e5d33000 	ldrb	r3, [r3]
		}

		/* get the conversion qualifier */
		qualifier = -1;
		if (*fmt == 'h' || *fmt == 'l' || *fmt == 'L' ||
		    *fmt == 'Z' || *fmt == 'z' || *fmt == 't' ||
43c00e20:	e3530071 	cmp	r3, #113	; 0x71
43c00e24:	1a000012 	bne	43c00e74 <vsprintf+0x304>
		    *fmt == 'q' ) {
			qualifier = *fmt;
43c00e28:	e51b303c 	ldr	r3, [fp, #-60]	; 0xffffffc4
43c00e2c:	e5d33000 	ldrb	r3, [r3]
43c00e30:	e50b3028 	str	r3, [fp, #-40]	; 0xffffffd8
			if (qualifier == 'l' && *(fmt+1) == 'l') {
43c00e34:	e51b3028 	ldr	r3, [fp, #-40]	; 0xffffffd8
43c00e38:	e353006c 	cmp	r3, #108	; 0x6c
43c00e3c:	1a000009 	bne	43c00e68 <vsprintf+0x2f8>
43c00e40:	e51b303c 	ldr	r3, [fp, #-60]	; 0xffffffc4
43c00e44:	e2833001 	add	r3, r3, #1
43c00e48:	e5d33000 	ldrb	r3, [r3]
43c00e4c:	e353006c 	cmp	r3, #108	; 0x6c
43c00e50:	1a000004 	bne	43c00e68 <vsprintf+0x2f8>
				qualifier = 'q';
43c00e54:	e3a03071 	mov	r3, #113	; 0x71
43c00e58:	e50b3028 	str	r3, [fp, #-40]	; 0xffffffd8
				++fmt;
43c00e5c:	e51b303c 	ldr	r3, [fp, #-60]	; 0xffffffc4
43c00e60:	e2833001 	add	r3, r3, #1
43c00e64:	e50b303c 	str	r3, [fp, #-60]	; 0xffffffc4
			}
			++fmt;
43c00e68:	e51b303c 	ldr	r3, [fp, #-60]	; 0xffffffc4
43c00e6c:	e2833001 	add	r3, r3, #1
43c00e70:	e50b303c 	str	r3, [fp, #-60]	; 0xffffffc4
		}

		/* default base */
		base = 10;
43c00e74:	e3a0300a 	mov	r3, #10
43c00e78:	e50b3010 	str	r3, [fp, #-16]

		switch (*fmt) {
43c00e7c:	e51b303c 	ldr	r3, [fp, #-60]	; 0xffffffc4
43c00e80:	e5d33000 	ldrb	r3, [r3]
43c00e84:	e2433025 	sub	r3, r3, #37	; 0x25
43c00e88:	e3530053 	cmp	r3, #83	; 0x53
43c00e8c:	979ff103 	ldrls	pc, [pc, r3, lsl #2]
43c00e90:	ea00010d 	b	43c012cc <vsprintf+0x75c>
43c00e94:	43c0127c 	bicmi	r1, r0, #124, 4	; 0xc0000007
43c00e98:	43c012cc 	bicmi	r1, r0, #204, 4	; 0xc000000c
43c00e9c:	43c012cc 	bicmi	r1, r0, #204, 4	; 0xc000000c
43c00ea0:	43c012cc 	bicmi	r1, r0, #204, 4	; 0xc000000c
43c00ea4:	43c012cc 	bicmi	r1, r0, #204, 4	; 0xc000000c
43c00ea8:	43c012cc 	bicmi	r1, r0, #204, 4	; 0xc000000c
43c00eac:	43c012cc 	bicmi	r1, r0, #204, 4	; 0xc000000c
43c00eb0:	43c012cc 	bicmi	r1, r0, #204, 4	; 0xc000000c
43c00eb4:	43c012cc 	bicmi	r1, r0, #204, 4	; 0xc000000c
43c00eb8:	43c012cc 	bicmi	r1, r0, #204, 4	; 0xc000000c
43c00ebc:	43c012cc 	bicmi	r1, r0, #204, 4	; 0xc000000c
43c00ec0:	43c012cc 	bicmi	r1, r0, #204, 4	; 0xc000000c
43c00ec4:	43c012cc 	bicmi	r1, r0, #204, 4	; 0xc000000c
43c00ec8:	43c012cc 	bicmi	r1, r0, #204, 4	; 0xc000000c
43c00ecc:	43c012cc 	bicmi	r1, r0, #204, 4	; 0xc000000c
43c00ed0:	43c012cc 	bicmi	r1, r0, #204, 4	; 0xc000000c
43c00ed4:	43c012cc 	bicmi	r1, r0, #204, 4	; 0xc000000c
43c00ed8:	43c012cc 	bicmi	r1, r0, #204, 4	; 0xc000000c
43c00edc:	43c012cc 	bicmi	r1, r0, #204, 4	; 0xc000000c
43c00ee0:	43c012cc 	bicmi	r1, r0, #204, 4	; 0xc000000c
43c00ee4:	43c012cc 	bicmi	r1, r0, #204, 4	; 0xc000000c
43c00ee8:	43c012cc 	bicmi	r1, r0, #204, 4	; 0xc000000c
43c00eec:	43c012cc 	bicmi	r1, r0, #204, 4	; 0xc000000c
43c00ef0:	43c012cc 	bicmi	r1, r0, #204, 4	; 0xc000000c
43c00ef4:	43c012cc 	bicmi	r1, r0, #204, 4	; 0xc000000c
43c00ef8:	43c012cc 	bicmi	r1, r0, #204, 4	; 0xc000000c
43c00efc:	43c012cc 	bicmi	r1, r0, #204, 4	; 0xc000000c
43c00f00:	43c012cc 	bicmi	r1, r0, #204, 4	; 0xc000000c
43c00f04:	43c012cc 	bicmi	r1, r0, #204, 4	; 0xc000000c
43c00f08:	43c012cc 	bicmi	r1, r0, #204, 4	; 0xc000000c
43c00f0c:	43c012cc 	bicmi	r1, r0, #204, 4	; 0xc000000c
43c00f10:	43c012cc 	bicmi	r1, r0, #204, 4	; 0xc000000c
43c00f14:	43c012cc 	bicmi	r1, r0, #204, 4	; 0xc000000c
43c00f18:	43c012cc 	bicmi	r1, r0, #204, 4	; 0xc000000c
43c00f1c:	43c012cc 	bicmi	r1, r0, #204, 4	; 0xc000000c
43c00f20:	43c012cc 	bicmi	r1, r0, #204, 4	; 0xc000000c
43c00f24:	43c012cc 	bicmi	r1, r0, #204, 4	; 0xc000000c
43c00f28:	43c012cc 	bicmi	r1, r0, #204, 4	; 0xc000000c
43c00f2c:	43c012cc 	bicmi	r1, r0, #204, 4	; 0xc000000c
43c00f30:	43c012cc 	bicmi	r1, r0, #204, 4	; 0xc000000c
43c00f34:	43c012cc 	bicmi	r1, r0, #204, 4	; 0xc000000c
43c00f38:	43c012cc 	bicmi	r1, r0, #204, 4	; 0xc000000c
43c00f3c:	43c012cc 	bicmi	r1, r0, #204, 4	; 0xc000000c
43c00f40:	43c012cc 	bicmi	r1, r0, #204, 4	; 0xc000000c
43c00f44:	43c012cc 	bicmi	r1, r0, #204, 4	; 0xc000000c
43c00f48:	43c012cc 	bicmi	r1, r0, #204, 4	; 0xc000000c
43c00f4c:	43c012cc 	bicmi	r1, r0, #204, 4	; 0xc000000c
43c00f50:	43c012cc 	bicmi	r1, r0, #204, 4	; 0xc000000c
43c00f54:	43c012cc 	bicmi	r1, r0, #204, 4	; 0xc000000c
43c00f58:	43c012cc 	bicmi	r1, r0, #204, 4	; 0xc000000c
43c00f5c:	43c012cc 	bicmi	r1, r0, #204, 4	; 0xc000000c
43c00f60:	43c012a4 	bicmi	r1, r0, #164, 4	; 0x4000000a
43c00f64:	43c012cc 	bicmi	r1, r0, #204, 4	; 0xc000000c
43c00f68:	43c012cc 	bicmi	r1, r0, #204, 4	; 0xc000000c
43c00f6c:	43c012cc 	bicmi	r1, r0, #204, 4	; 0xc000000c
43c00f70:	43c012cc 	bicmi	r1, r0, #204, 4	; 0xc000000c
43c00f74:	43c012cc 	bicmi	r1, r0, #204, 4	; 0xc000000c
43c00f78:	43c012cc 	bicmi	r1, r0, #204, 4	; 0xc000000c
43c00f7c:	43c012cc 	bicmi	r1, r0, #204, 4	; 0xc000000c
43c00f80:	43c012cc 	bicmi	r1, r0, #204, 4	; 0xc000000c
43c00f84:	43c012cc 	bicmi	r1, r0, #204, 4	; 0xc000000c
43c00f88:	43c012cc 	bicmi	r1, r0, #204, 4	; 0xc000000c
43c00f8c:	43c00fe4 	bicmi	r0, r0, #228, 30	; 0x390
43c00f90:	43c012bc 	bicmi	r1, r0, #188, 4	; 0xc000000b
43c00f94:	43c012cc 	bicmi	r1, r0, #204, 4	; 0xc000000c
43c00f98:	43c012cc 	bicmi	r1, r0, #204, 4	; 0xc000000c
43c00f9c:	43c012cc 	bicmi	r1, r0, #204, 4	; 0xc000000c
43c00fa0:	43c012cc 	bicmi	r1, r0, #204, 4	; 0xc000000c
43c00fa4:	43c012bc 	bicmi	r1, r0, #188, 4	; 0xc000000b
43c00fa8:	43c012cc 	bicmi	r1, r0, #204, 4	; 0xc000000c
43c00fac:	43c012cc 	bicmi	r1, r0, #204, 4	; 0xc000000c
43c00fb0:	43c012cc 	bicmi	r1, r0, #204, 4	; 0xc000000c
43c00fb4:	43c012cc 	bicmi	r1, r0, #204, 4	; 0xc000000c
43c00fb8:	43c01218 	bicmi	r1, r0, #24, 4	; 0x80000001
43c00fbc:	43c01298 	bicmi	r1, r0, #152, 4	; 0x80000009
43c00fc0:	43c011bc 	bicmi	r1, r0, #188, 2	; 0x2f
43c00fc4:	43c012cc 	bicmi	r1, r0, #204, 4	; 0xc000000c
43c00fc8:	43c012cc 	bicmi	r1, r0, #204, 4	; 0xc000000c
43c00fcc:	43c01088 	bicmi	r1, r0, #136	; 0x88
43c00fd0:	43c012cc 	bicmi	r1, r0, #204, 4	; 0xc000000c
43c00fd4:	43c01324 	bicmi	r1, r0, #36, 6	; 0x90000000
43c00fd8:	43c012cc 	bicmi	r1, r0, #204, 4	; 0xc000000c
43c00fdc:	43c012cc 	bicmi	r1, r0, #204, 4	; 0xc000000c
43c00fe0:	43c012b0 	bicmi	r1, r0, #176, 4
		case 'c':
			if (!(flags & LEFT))
43c00fe4:	e51b301c 	ldr	r3, [fp, #-28]	; 0xffffffe4
43c00fe8:	e2033010 	and	r3, r3, #16
43c00fec:	e3530000 	cmp	r3, #0
43c00ff0:	1a00000c 	bne	43c01028 <vsprintf+0x4b8>
				while (--field_width > 0)
43c00ff4:	ea000005 	b	43c01010 <vsprintf+0x4a0>
					*str++ = ' ';
43c00ff8:	e51b3014 	ldr	r3, [fp, #-20]	; 0xffffffec
43c00ffc:	e3a02020 	mov	r2, #32
43c01000:	e5c32000 	strb	r2, [r3]
43c01004:	e51b3014 	ldr	r3, [fp, #-20]	; 0xffffffec
43c01008:	e2833001 	add	r3, r3, #1
43c0100c:	e50b3014 	str	r3, [fp, #-20]	; 0xffffffec
		base = 10;

		switch (*fmt) {
		case 'c':
			if (!(flags & LEFT))
				while (--field_width > 0)
43c01010:	e51b3020 	ldr	r3, [fp, #-32]	; 0xffffffe0
43c01014:	e2433001 	sub	r3, r3, #1
43c01018:	e50b3020 	str	r3, [fp, #-32]	; 0xffffffe0
43c0101c:	e51b3020 	ldr	r3, [fp, #-32]	; 0xffffffe0
43c01020:	e3530000 	cmp	r3, #0
43c01024:	cafffff3 	bgt	43c00ff8 <vsprintf+0x488>
					*str++ = ' ';
			*str++ = (unsigned char) va_arg(args, int);
43c01028:	e51b3040 	ldr	r3, [fp, #-64]	; 0xffffffc0
43c0102c:	e2832004 	add	r2, r3, #4
43c01030:	e50b2040 	str	r2, [fp, #-64]	; 0xffffffc0
43c01034:	e5933000 	ldr	r3, [r3]
43c01038:	e20320ff 	and	r2, r3, #255	; 0xff
43c0103c:	e51b3014 	ldr	r3, [fp, #-20]	; 0xffffffec
43c01040:	e5c32000 	strb	r2, [r3]
43c01044:	e51b3014 	ldr	r3, [fp, #-20]	; 0xffffffec
43c01048:	e2833001 	add	r3, r3, #1
43c0104c:	e50b3014 	str	r3, [fp, #-20]	; 0xffffffec
			while (--field_width > 0)
43c01050:	ea000005 	b	43c0106c <vsprintf+0x4fc>
				*str++ = ' ';
43c01054:	e51b3014 	ldr	r3, [fp, #-20]	; 0xffffffec
43c01058:	e3a02020 	mov	r2, #32
43c0105c:	e5c32000 	strb	r2, [r3]
43c01060:	e51b3014 	ldr	r3, [fp, #-20]	; 0xffffffec
43c01064:	e2833001 	add	r3, r3, #1
43c01068:	e50b3014 	str	r3, [fp, #-20]	; 0xffffffec
		case 'c':
			if (!(flags & LEFT))
				while (--field_width > 0)
					*str++ = ' ';
			*str++ = (unsigned char) va_arg(args, int);
			while (--field_width > 0)
43c0106c:	e51b3020 	ldr	r3, [fp, #-32]	; 0xffffffe0
43c01070:	e2433001 	sub	r3, r3, #1
43c01074:	e50b3020 	str	r3, [fp, #-32]	; 0xffffffe0
43c01078:	e51b3020 	ldr	r3, [fp, #-32]	; 0xffffffe0
43c0107c:	e3530000 	cmp	r3, #0
43c01080:	cafffff3 	bgt	43c01054 <vsprintf+0x4e4>
				*str++ = ' ';
			continue;
43c01084:	ea0000f5 	b	43c01460 <vsprintf+0x8f0>

		case 's':
			s = va_arg(args, char *);
43c01088:	e51b3040 	ldr	r3, [fp, #-64]	; 0xffffffc0
43c0108c:	e2832004 	add	r2, r3, #4
43c01090:	e50b2040 	str	r2, [fp, #-64]	; 0xffffffc0
43c01094:	e5933000 	ldr	r3, [r3]
43c01098:	e50b3018 	str	r3, [fp, #-24]	; 0xffffffe8
			if (!s)
43c0109c:	e51b3018 	ldr	r3, [fp, #-24]	; 0xffffffe8
43c010a0:	e3530000 	cmp	r3, #0
43c010a4:	1a000001 	bne	43c010b0 <vsprintf+0x540>
				s = "<NULL>";
43c010a8:	e59f33f0 	ldr	r3, [pc, #1008]	; 43c014a0 <vsprintf+0x930>
43c010ac:	e50b3018 	str	r3, [fp, #-24]	; 0xffffffe8

			len = strnlen(s, precision);
43c010b0:	e51b3024 	ldr	r3, [fp, #-36]	; 0xffffffdc
43c010b4:	e51b0018 	ldr	r0, [fp, #-24]	; 0xffffffe8
43c010b8:	e1a01003 	mov	r1, r3
43c010bc:	ebfffe8b 	bl	43c00af0 <strnlen>
43c010c0:	e1a03000 	mov	r3, r0
43c010c4:	e50b302c 	str	r3, [fp, #-44]	; 0xffffffd4

			if (!(flags & LEFT))
43c010c8:	e51b301c 	ldr	r3, [fp, #-28]	; 0xffffffe4
43c010cc:	e2033010 	and	r3, r3, #16
43c010d0:	e3530000 	cmp	r3, #0
43c010d4:	1a000011 	bne	43c01120 <vsprintf+0x5b0>
				while (len < field_width--)
43c010d8:	ea000005 	b	43c010f4 <vsprintf+0x584>
					*str++ = ' ';
43c010dc:	e51b3014 	ldr	r3, [fp, #-20]	; 0xffffffec
43c010e0:	e3a02020 	mov	r2, #32
43c010e4:	e5c32000 	strb	r2, [r3]
43c010e8:	e51b3014 	ldr	r3, [fp, #-20]	; 0xffffffec
43c010ec:	e2833001 	add	r3, r3, #1
43c010f0:	e50b3014 	str	r3, [fp, #-20]	; 0xffffffec
				s = "<NULL>";

			len = strnlen(s, precision);

			if (!(flags & LEFT))
				while (len < field_width--)
43c010f4:	e51b2020 	ldr	r2, [fp, #-32]	; 0xffffffe0
43c010f8:	e51b302c 	ldr	r3, [fp, #-44]	; 0xffffffd4
43c010fc:	e1520003 	cmp	r2, r3
43c01100:	d3a03000 	movle	r3, #0
43c01104:	c3a03001 	movgt	r3, #1
43c01108:	e20330ff 	and	r3, r3, #255	; 0xff
43c0110c:	e51b2020 	ldr	r2, [fp, #-32]	; 0xffffffe0
43c01110:	e2422001 	sub	r2, r2, #1
43c01114:	e50b2020 	str	r2, [fp, #-32]	; 0xffffffe0
43c01118:	e3530000 	cmp	r3, #0
43c0111c:	1affffee 	bne	43c010dc <vsprintf+0x56c>
					*str++ = ' ';
			for (i = 0; i < len; ++i)
43c01120:	e3a03000 	mov	r3, #0
43c01124:	e50b300c 	str	r3, [fp, #-12]
43c01128:	ea00000c 	b	43c01160 <vsprintf+0x5f0>
				*str++ = *s++;
43c0112c:	e51b3018 	ldr	r3, [fp, #-24]	; 0xffffffe8
43c01130:	e5d32000 	ldrb	r2, [r3]
43c01134:	e51b3014 	ldr	r3, [fp, #-20]	; 0xffffffec
43c01138:	e5c32000 	strb	r2, [r3]
43c0113c:	e51b3014 	ldr	r3, [fp, #-20]	; 0xffffffec
43c01140:	e2833001 	add	r3, r3, #1
43c01144:	e50b3014 	str	r3, [fp, #-20]	; 0xffffffec
43c01148:	e51b3018 	ldr	r3, [fp, #-24]	; 0xffffffe8
43c0114c:	e2833001 	add	r3, r3, #1
43c01150:	e50b3018 	str	r3, [fp, #-24]	; 0xffffffe8
			len = strnlen(s, precision);

			if (!(flags & LEFT))
				while (len < field_width--)
					*str++ = ' ';
			for (i = 0; i < len; ++i)
43c01154:	e51b300c 	ldr	r3, [fp, #-12]
43c01158:	e2833001 	add	r3, r3, #1
43c0115c:	e50b300c 	str	r3, [fp, #-12]
43c01160:	e51b200c 	ldr	r2, [fp, #-12]
43c01164:	e51b302c 	ldr	r3, [fp, #-44]	; 0xffffffd4
43c01168:	e1520003 	cmp	r2, r3
43c0116c:	baffffee 	blt	43c0112c <vsprintf+0x5bc>
				*str++ = *s++;
			while (len < field_width--)
43c01170:	ea000005 	b	43c0118c <vsprintf+0x61c>
				*str++ = ' ';
43c01174:	e51b3014 	ldr	r3, [fp, #-20]	; 0xffffffec
43c01178:	e3a02020 	mov	r2, #32
43c0117c:	e5c32000 	strb	r2, [r3]
43c01180:	e51b3014 	ldr	r3, [fp, #-20]	; 0xffffffec
43c01184:	e2833001 	add	r3, r3, #1
43c01188:	e50b3014 	str	r3, [fp, #-20]	; 0xffffffec
			if (!(flags & LEFT))
				while (len < field_width--)
					*str++ = ' ';
			for (i = 0; i < len; ++i)
				*str++ = *s++;
			while (len < field_width--)
43c0118c:	e51b2020 	ldr	r2, [fp, #-32]	; 0xffffffe0
43c01190:	e51b302c 	ldr	r3, [fp, #-44]	; 0xffffffd4
43c01194:	e1520003 	cmp	r2, r3
43c01198:	d3a03000 	movle	r3, #0
43c0119c:	c3a03001 	movgt	r3, #1
43c011a0:	e20330ff 	and	r3, r3, #255	; 0xff
43c011a4:	e51b2020 	ldr	r2, [fp, #-32]	; 0xffffffe0
43c011a8:	e2422001 	sub	r2, r2, #1
43c011ac:	e50b2020 	str	r2, [fp, #-32]	; 0xffffffe0
43c011b0:	e3530000 	cmp	r3, #0
43c011b4:	1affffee 	bne	43c01174 <vsprintf+0x604>
				*str++ = ' ';
			continue;
43c011b8:	ea0000a8 	b	43c01460 <vsprintf+0x8f0>

		case 'p':
			if (field_width == -1) {
43c011bc:	e51b3020 	ldr	r3, [fp, #-32]	; 0xffffffe0
43c011c0:	e3730001 	cmn	r3, #1
43c011c4:	1a000004 	bne	43c011dc <vsprintf+0x66c>
				field_width = 2*sizeof(void *);
43c011c8:	e3a03008 	mov	r3, #8
43c011cc:	e50b3020 	str	r3, [fp, #-32]	; 0xffffffe0
				flags |= ZEROPAD;
43c011d0:	e51b301c 	ldr	r3, [fp, #-28]	; 0xffffffe4
43c011d4:	e3833001 	orr	r3, r3, #1
43c011d8:	e50b301c 	str	r3, [fp, #-28]	; 0xffffffe4
			}
			str = number(str,
				(unsigned long) va_arg(args, void *), 16,
43c011dc:	e51b3040 	ldr	r3, [fp, #-64]	; 0xffffffc0
43c011e0:	e2832004 	add	r2, r3, #4
43c011e4:	e50b2040 	str	r2, [fp, #-64]	; 0xffffffc0
43c011e8:	e5933000 	ldr	r3, [r3]
		case 'p':
			if (field_width == -1) {
				field_width = 2*sizeof(void *);
				flags |= ZEROPAD;
			}
			str = number(str,
43c011ec:	e51b2024 	ldr	r2, [fp, #-36]	; 0xffffffdc
43c011f0:	e58d2000 	str	r2, [sp]
43c011f4:	e51b201c 	ldr	r2, [fp, #-28]	; 0xffffffe4
43c011f8:	e58d2004 	str	r2, [sp, #4]
43c011fc:	e51b0014 	ldr	r0, [fp, #-20]	; 0xffffffec
43c01200:	e1a01003 	mov	r1, r3
43c01204:	e3a02010 	mov	r2, #16
43c01208:	e51b3020 	ldr	r3, [fp, #-32]	; 0xffffffe0
43c0120c:	ebfffd11 	bl	43c00658 <number>
43c01210:	e50b0014 	str	r0, [fp, #-20]	; 0xffffffec
				(unsigned long) va_arg(args, void *), 16,
				field_width, precision, flags);
			continue;
43c01214:	ea000091 	b	43c01460 <vsprintf+0x8f0>


		case 'n':
			if (qualifier == 'l') {
43c01218:	e51b3028 	ldr	r3, [fp, #-40]	; 0xffffffd8
43c0121c:	e353006c 	cmp	r3, #108	; 0x6c
43c01220:	1a00000a 	bne	43c01250 <vsprintf+0x6e0>
				long * ip = va_arg(args, long *);
43c01224:	e51b3040 	ldr	r3, [fp, #-64]	; 0xffffffc0
43c01228:	e2832004 	add	r2, r3, #4
43c0122c:	e50b2040 	str	r2, [fp, #-64]	; 0xffffffc0
43c01230:	e5933000 	ldr	r3, [r3]
43c01234:	e50b3030 	str	r3, [fp, #-48]	; 0xffffffd0
				*ip = (str - buf);
43c01238:	e51b2014 	ldr	r2, [fp, #-20]	; 0xffffffec
43c0123c:	e51b3038 	ldr	r3, [fp, #-56]	; 0xffffffc8
43c01240:	e0632002 	rsb	r2, r3, r2
43c01244:	e51b3030 	ldr	r3, [fp, #-48]	; 0xffffffd0
43c01248:	e5832000 	str	r2, [r3]
			} else {
				int * ip = va_arg(args, int *);
				*ip = (str - buf);
			}
			continue;
43c0124c:	ea000083 	b	43c01460 <vsprintf+0x8f0>
		case 'n':
			if (qualifier == 'l') {
				long * ip = va_arg(args, long *);
				*ip = (str - buf);
			} else {
				int * ip = va_arg(args, int *);
43c01250:	e51b3040 	ldr	r3, [fp, #-64]	; 0xffffffc0
43c01254:	e2832004 	add	r2, r3, #4
43c01258:	e50b2040 	str	r2, [fp, #-64]	; 0xffffffc0
43c0125c:	e5933000 	ldr	r3, [r3]
43c01260:	e50b3034 	str	r3, [fp, #-52]	; 0xffffffcc
				*ip = (str - buf);
43c01264:	e51b2014 	ldr	r2, [fp, #-20]	; 0xffffffec
43c01268:	e51b3038 	ldr	r3, [fp, #-56]	; 0xffffffc8
43c0126c:	e0632002 	rsb	r2, r3, r2
43c01270:	e51b3034 	ldr	r3, [fp, #-52]	; 0xffffffcc
43c01274:	e5832000 	str	r2, [r3]
			}
			continue;
43c01278:	ea000078 	b	43c01460 <vsprintf+0x8f0>

		case '%':
			*str++ = '%';
43c0127c:	e51b3014 	ldr	r3, [fp, #-20]	; 0xffffffec
43c01280:	e3a02025 	mov	r2, #37	; 0x25
43c01284:	e5c32000 	strb	r2, [r3]
43c01288:	e51b3014 	ldr	r3, [fp, #-20]	; 0xffffffec
43c0128c:	e2833001 	add	r3, r3, #1
43c01290:	e50b3014 	str	r3, [fp, #-20]	; 0xffffffec
			continue;
43c01294:	ea000071 	b	43c01460 <vsprintf+0x8f0>

		/* integer number formats - set up the flags and "break" */
		case 'o':
			base = 8;
43c01298:	e3a03008 	mov	r3, #8
43c0129c:	e50b3010 	str	r3, [fp, #-16]
			break;
43c012a0:	ea000020 	b	43c01328 <vsprintf+0x7b8>

		case 'X':
			flags |= LARGE;
43c012a4:	e51b301c 	ldr	r3, [fp, #-28]	; 0xffffffe4
43c012a8:	e3833040 	orr	r3, r3, #64	; 0x40
43c012ac:	e50b301c 	str	r3, [fp, #-28]	; 0xffffffe4
		case 'x':
			base = 16;
43c012b0:	e3a03010 	mov	r3, #16
43c012b4:	e50b3010 	str	r3, [fp, #-16]
			break;
43c012b8:	ea00001a 	b	43c01328 <vsprintf+0x7b8>

		case 'd':
		case 'i':
			flags |= SIGN;
43c012bc:	e51b301c 	ldr	r3, [fp, #-28]	; 0xffffffe4
43c012c0:	e3833002 	orr	r3, r3, #2
43c012c4:	e50b301c 	str	r3, [fp, #-28]	; 0xffffffe4
		case 'u':
			break;
43c012c8:	ea000016 	b	43c01328 <vsprintf+0x7b8>

		default:
			*str++ = '%';
43c012cc:	e51b3014 	ldr	r3, [fp, #-20]	; 0xffffffec
43c012d0:	e3a02025 	mov	r2, #37	; 0x25
43c012d4:	e5c32000 	strb	r2, [r3]
43c012d8:	e51b3014 	ldr	r3, [fp, #-20]	; 0xffffffec
43c012dc:	e2833001 	add	r3, r3, #1
43c012e0:	e50b3014 	str	r3, [fp, #-20]	; 0xffffffec
			if (*fmt)
43c012e4:	e51b303c 	ldr	r3, [fp, #-60]	; 0xffffffc4
43c012e8:	e5d33000 	ldrb	r3, [r3]
43c012ec:	e3530000 	cmp	r3, #0
43c012f0:	0a000007 	beq	43c01314 <vsprintf+0x7a4>
				*str++ = *fmt;
43c012f4:	e51b303c 	ldr	r3, [fp, #-60]	; 0xffffffc4
43c012f8:	e5d32000 	ldrb	r2, [r3]
43c012fc:	e51b3014 	ldr	r3, [fp, #-20]	; 0xffffffec
43c01300:	e5c32000 	strb	r2, [r3]
43c01304:	e51b3014 	ldr	r3, [fp, #-20]	; 0xffffffec
43c01308:	e2833001 	add	r3, r3, #1
43c0130c:	e50b3014 	str	r3, [fp, #-20]	; 0xffffffec
			else
				--fmt;
			continue;
43c01310:	ea000052 	b	43c01460 <vsprintf+0x8f0>
		default:
			*str++ = '%';
			if (*fmt)
				*str++ = *fmt;
			else
				--fmt;
43c01314:	e51b303c 	ldr	r3, [fp, #-60]	; 0xffffffc4
43c01318:	e2433001 	sub	r3, r3, #1
43c0131c:	e50b303c 	str	r3, [fp, #-60]	; 0xffffffc4
			continue;
43c01320:	ea00004e 	b	43c01460 <vsprintf+0x8f0>

		case 'd':
		case 'i':
			flags |= SIGN;
		case 'u':
			break;
43c01324:	e1a00000 	nop			; (mov r0, r0)
#ifdef CFG_64BIT_VSPRINTF
		if (qualifier == 'q')  /* "quad" for 64 bit variables */
			num = va_arg(args, unsigned long long);
		else
#endif
		if (qualifier == 'l') {
43c01328:	e51b3028 	ldr	r3, [fp, #-40]	; 0xffffffd8
43c0132c:	e353006c 	cmp	r3, #108	; 0x6c
43c01330:	1a000005 	bne	43c0134c <vsprintf+0x7dc>
			num = va_arg(args, unsigned long);
43c01334:	e51b3040 	ldr	r3, [fp, #-64]	; 0xffffffc0
43c01338:	e2832004 	add	r2, r3, #4
43c0133c:	e50b2040 	str	r2, [fp, #-64]	; 0xffffffc0
43c01340:	e5933000 	ldr	r3, [r3]
43c01344:	e50b3008 	str	r3, [fp, #-8]
43c01348:	ea000038 	b	43c01430 <vsprintf+0x8c0>
		} else if (qualifier == 'Z' || qualifier == 'z') {
43c0134c:	e51b3028 	ldr	r3, [fp, #-40]	; 0xffffffd8
43c01350:	e353005a 	cmp	r3, #90	; 0x5a
43c01354:	0a000002 	beq	43c01364 <vsprintf+0x7f4>
43c01358:	e51b3028 	ldr	r3, [fp, #-40]	; 0xffffffd8
43c0135c:	e353007a 	cmp	r3, #122	; 0x7a
43c01360:	1a000005 	bne	43c0137c <vsprintf+0x80c>
			num = va_arg(args, size_t);
43c01364:	e51b3040 	ldr	r3, [fp, #-64]	; 0xffffffc0
43c01368:	e2832004 	add	r2, r3, #4
43c0136c:	e50b2040 	str	r2, [fp, #-64]	; 0xffffffc0
43c01370:	e5933000 	ldr	r3, [r3]
43c01374:	e50b3008 	str	r3, [fp, #-8]
43c01378:	ea00002c 	b	43c01430 <vsprintf+0x8c0>
		} else if (qualifier == 't') {
43c0137c:	e51b3028 	ldr	r3, [fp, #-40]	; 0xffffffd8
43c01380:	e3530074 	cmp	r3, #116	; 0x74
43c01384:	1a000005 	bne	43c013a0 <vsprintf+0x830>
			num = va_arg(args, long);
43c01388:	e51b3040 	ldr	r3, [fp, #-64]	; 0xffffffc0
43c0138c:	e2832004 	add	r2, r3, #4
43c01390:	e50b2040 	str	r2, [fp, #-64]	; 0xffffffc0
43c01394:	e5933000 	ldr	r3, [r3]
43c01398:	e50b3008 	str	r3, [fp, #-8]
43c0139c:	ea000023 	b	43c01430 <vsprintf+0x8c0>
		} else if (qualifier == 'h') {
43c013a0:	e51b3028 	ldr	r3, [fp, #-40]	; 0xffffffd8
43c013a4:	e3530068 	cmp	r3, #104	; 0x68
43c013a8:	1a000011 	bne	43c013f4 <vsprintf+0x884>
			num = (unsigned short) va_arg(args, int);
43c013ac:	e51b3040 	ldr	r3, [fp, #-64]	; 0xffffffc0
43c013b0:	e2832004 	add	r2, r3, #4
43c013b4:	e50b2040 	str	r2, [fp, #-64]	; 0xffffffc0
43c013b8:	e5933000 	ldr	r3, [r3]
43c013bc:	e1a03803 	lsl	r3, r3, #16
43c013c0:	e1a03823 	lsr	r3, r3, #16
43c013c4:	e50b3008 	str	r3, [fp, #-8]
			if (flags & SIGN)
43c013c8:	e51b301c 	ldr	r3, [fp, #-28]	; 0xffffffe4
43c013cc:	e2033002 	and	r3, r3, #2
43c013d0:	e3530000 	cmp	r3, #0
43c013d4:	0a000015 	beq	43c01430 <vsprintf+0x8c0>
				num = (short) num;
43c013d8:	e51b3008 	ldr	r3, [fp, #-8]
43c013dc:	e1a03803 	lsl	r3, r3, #16
43c013e0:	e1a03823 	lsr	r3, r3, #16
43c013e4:	e1a03803 	lsl	r3, r3, #16
43c013e8:	e1a03843 	asr	r3, r3, #16
43c013ec:	e50b3008 	str	r3, [fp, #-8]
43c013f0:	ea00000e 	b	43c01430 <vsprintf+0x8c0>
		} else if (flags & SIGN)
43c013f4:	e51b301c 	ldr	r3, [fp, #-28]	; 0xffffffe4
43c013f8:	e2033002 	and	r3, r3, #2
43c013fc:	e3530000 	cmp	r3, #0
43c01400:	0a000005 	beq	43c0141c <vsprintf+0x8ac>
			num = va_arg(args, int);
43c01404:	e51b3040 	ldr	r3, [fp, #-64]	; 0xffffffc0
43c01408:	e2832004 	add	r2, r3, #4
43c0140c:	e50b2040 	str	r2, [fp, #-64]	; 0xffffffc0
43c01410:	e5933000 	ldr	r3, [r3]
43c01414:	e50b3008 	str	r3, [fp, #-8]
43c01418:	ea000004 	b	43c01430 <vsprintf+0x8c0>
		else
			num = va_arg(args, unsigned int);
43c0141c:	e51b3040 	ldr	r3, [fp, #-64]	; 0xffffffc0
43c01420:	e2832004 	add	r2, r3, #4
43c01424:	e50b2040 	str	r2, [fp, #-64]	; 0xffffffc0
43c01428:	e5933000 	ldr	r3, [r3]
43c0142c:	e50b3008 	str	r3, [fp, #-8]
		str = number(str, num, base, field_width, precision, flags);
43c01430:	e51b2008 	ldr	r2, [fp, #-8]
43c01434:	e51b3010 	ldr	r3, [fp, #-16]
43c01438:	e51b1024 	ldr	r1, [fp, #-36]	; 0xffffffdc
43c0143c:	e58d1000 	str	r1, [sp]
43c01440:	e51b101c 	ldr	r1, [fp, #-28]	; 0xffffffe4
43c01444:	e58d1004 	str	r1, [sp, #4]
43c01448:	e51b0014 	ldr	r0, [fp, #-20]	; 0xffffffec
43c0144c:	e1a01002 	mov	r1, r2
43c01450:	e1a02003 	mov	r2, r3
43c01454:	e51b3020 	ldr	r3, [fp, #-32]	; 0xffffffe0
43c01458:	ebfffc7e 	bl	43c00658 <number>
43c0145c:	e50b0014 	str	r0, [fp, #-20]	; 0xffffffec
	int field_width;	/* width of output field */
	int precision;		/* min. # of digits for integers; max
				   number of chars for from string */
	int qualifier;		/* 'h', 'l', or 'q' for integer fields */

	for (str=buf ; *fmt ; ++fmt) {
43c01460:	e51b303c 	ldr	r3, [fp, #-60]	; 0xffffffc4
43c01464:	e2833001 	add	r3, r3, #1
43c01468:	e50b303c 	str	r3, [fp, #-60]	; 0xffffffc4
43c0146c:	e51b303c 	ldr	r3, [fp, #-60]	; 0xffffffc4
43c01470:	e5d33000 	ldrb	r3, [r3]
43c01474:	e3530000 	cmp	r3, #0
43c01478:	1afffdc5 	bne	43c00b94 <vsprintf+0x24>
			num = va_arg(args, int);
		else
			num = va_arg(args, unsigned int);
		str = number(str, num, base, field_width, precision, flags);
	}
	*str = '\0';
43c0147c:	e51b3014 	ldr	r3, [fp, #-20]	; 0xffffffec
43c01480:	e3a02000 	mov	r2, #0
43c01484:	e5c32000 	strb	r2, [r3]
	return str-buf;
43c01488:	e51b2014 	ldr	r2, [fp, #-20]	; 0xffffffec
43c0148c:	e51b3038 	ldr	r3, [fp, #-56]	; 0xffffffc8
43c01490:	e0633002 	rsb	r3, r3, r2
}
43c01494:	e1a00003 	mov	r0, r3
43c01498:	e24bd004 	sub	sp, fp, #4
43c0149c:	e8bd8800 	pop	{fp, pc}
43c014a0:	43c039dc 	bicmi	r3, r0, #220, 18	; 0x370000

43c014a4 <sprintf>:

int sprintf(char * buf, const char *fmt, ...)
{
43c014a4:	e92d000e 	push	{r1, r2, r3}
43c014a8:	e92d4800 	push	{fp, lr}
43c014ac:	e28db004 	add	fp, sp, #4
43c014b0:	e24dd00c 	sub	sp, sp, #12
43c014b4:	e50b0010 	str	r0, [fp, #-16]
	va_list args;
	int i;

	va_start(args, fmt);
43c014b8:	e28b3008 	add	r3, fp, #8
43c014bc:	e50b300c 	str	r3, [fp, #-12]
	i=vsprintf(buf,fmt,args);
43c014c0:	e51b300c 	ldr	r3, [fp, #-12]
43c014c4:	e51b0010 	ldr	r0, [fp, #-16]
43c014c8:	e59b1004 	ldr	r1, [fp, #4]
43c014cc:	e1a02003 	mov	r2, r3
43c014d0:	ebfffda6 	bl	43c00b70 <vsprintf>
43c014d4:	e50b0008 	str	r0, [fp, #-8]
	va_end(args);
	return i;
43c014d8:	e51b3008 	ldr	r3, [fp, #-8]
}
43c014dc:	e1a00003 	mov	r0, r3
43c014e0:	e24bd004 	sub	sp, fp, #4
43c014e4:	e8bd4800 	pop	{fp, lr}
43c014e8:	e28dd00c 	add	sp, sp, #12
43c014ec:	e12fff1e 	bx	lr

43c014f0 <printf>:

void printf (const char *fmt, ...)
{
43c014f0:	e92d000f 	push	{r0, r1, r2, r3}
43c014f4:	e92d4800 	push	{fp, lr}
43c014f8:	e28db004 	add	fp, sp, #4
43c014fc:	e24dd068 	sub	sp, sp, #104	; 0x68
	va_list args;
	char printbuffer[100];
	va_start (args, fmt);
43c01500:	e28b3008 	add	r3, fp, #8
43c01504:	e50b3008 	str	r3, [fp, #-8]

	/* For this to work, printbuffer must be larger than
	 * anything we ever want to print.
	 */
	vsprintf (printbuffer, fmt, args);
43c01508:	e51b3008 	ldr	r3, [fp, #-8]
43c0150c:	e24b206c 	sub	r2, fp, #108	; 0x6c
43c01510:	e1a00002 	mov	r0, r2
43c01514:	e59b1004 	ldr	r1, [fp, #4]
43c01518:	e1a02003 	mov	r2, r3
43c0151c:	ebfffd93 	bl	43c00b70 <vsprintf>
	va_end (args);
	__uart_puts (printbuffer);
43c01520:	e24b306c 	sub	r3, fp, #108	; 0x6c
43c01524:	e1a00003 	mov	r0, r3
43c01528:	eb000049 	bl	43c01654 <__uart_puts>
}
43c0152c:	e24bd004 	sub	sp, fp, #4
43c01530:	e8bd4800 	pop	{fp, lr}
43c01534:	e28dd010 	add	sp, sp, #16
43c01538:	e12fff1e 	bx	lr

43c0153c <__uart_init>:
#include <s5p6818.h>

void __uart_init()
{
43c0153c:	e52db004 	push	{fp}		; (str fp, [sp, #-4]!)
43c01540:	e28db000 	add	fp, sp, #0
	// 1. GPIOD14GPIOD18Ϊڹ
	GPIOD.ALTFN0 = GPIOD.ALTFN0 & ((~(0x3 << 28)) | (0x1 << 28));
43c01544:	e59f30a8 	ldr	r3, [pc, #168]	; 43c015f4 <__uart_init+0xb8>
43c01548:	e59f20a4 	ldr	r2, [pc, #164]	; 43c015f4 <__uart_init+0xb8>
43c0154c:	e5922020 	ldr	r2, [r2, #32]
43c01550:	e3c22202 	bic	r2, r2, #536870912	; 0x20000000
43c01554:	e5832020 	str	r2, [r3, #32]
	GPIOD.ALTFN1 = GPIOD.ALTFN1 & ((~(0x3 << 4)) | (0x1 << 4));
43c01558:	e59f3094 	ldr	r3, [pc, #148]	; 43c015f4 <__uart_init+0xb8>
43c0155c:	e59f2090 	ldr	r2, [pc, #144]	; 43c015f4 <__uart_init+0xb8>
43c01560:	e5922024 	ldr	r2, [r2, #36]	; 0x24
43c01564:	e3c22020 	bic	r2, r2, #32
43c01568:	e5832024 	str	r2, [r3, #36]	; 0x24
	// 2. ֡ʽ
	UART0.ULCON = UART0.ULCON & (~(0x1 << 6));
43c0156c:	e59f3084 	ldr	r3, [pc, #132]	; 43c015f8 <__uart_init+0xbc>
43c01570:	e59f2080 	ldr	r2, [pc, #128]	; 43c015f8 <__uart_init+0xbc>
43c01574:	e5922000 	ldr	r2, [r2]
43c01578:	e3c22040 	bic	r2, r2, #64	; 0x40
43c0157c:	e5832000 	str	r2, [r3]
	UART0.ULCON = UART0.ULCON & (~(0x7 << 3));
43c01580:	e59f3070 	ldr	r3, [pc, #112]	; 43c015f8 <__uart_init+0xbc>
43c01584:	e59f206c 	ldr	r2, [pc, #108]	; 43c015f8 <__uart_init+0xbc>
43c01588:	e5922000 	ldr	r2, [r2]
43c0158c:	e3c22038 	bic	r2, r2, #56	; 0x38
43c01590:	e5832000 	str	r2, [r3]
	UART0.ULCON = UART0.ULCON & (~(0x1 << 2));
43c01594:	e59f305c 	ldr	r3, [pc, #92]	; 43c015f8 <__uart_init+0xbc>
43c01598:	e59f2058 	ldr	r2, [pc, #88]	; 43c015f8 <__uart_init+0xbc>
43c0159c:	e5922000 	ldr	r2, [r2]
43c015a0:	e3c22004 	bic	r2, r2, #4
43c015a4:	e5832000 	str	r2, [r3]
	UART0.ULCON = UART0.ULCON | (0x3 << 0);
43c015a8:	e59f3048 	ldr	r3, [pc, #72]	; 43c015f8 <__uart_init+0xbc>
43c015ac:	e59f2044 	ldr	r2, [pc, #68]	; 43c015f8 <__uart_init+0xbc>
43c015b0:	e5922000 	ldr	r2, [r2]
43c015b4:	e3822003 	orr	r2, r2, #3
43c015b8:	e5832000 	str	r2, [r3]
	// 3. òΪ115200
	UART0.UBRDIV = 26;
43c015bc:	e59f3034 	ldr	r3, [pc, #52]	; 43c015f8 <__uart_init+0xbc>
43c015c0:	e3a0201a 	mov	r2, #26
43c015c4:	e5832028 	str	r2, [r3, #40]	; 0x28
	UART0.UFRACVAL = 2;
43c015c8:	e59f3028 	ldr	r3, [pc, #40]	; 43c015f8 <__uart_init+0xbc>
43c015cc:	e3a02002 	mov	r2, #2
43c015d0:	e583202c 	str	r2, [r3, #44]	; 0x2c
	// 4. ʹܴڹ
	UART0.UCON = UART0.UCON & ((~(0xF << 0)) | (0x5 << 0));
43c015d4:	e59f301c 	ldr	r3, [pc, #28]	; 43c015f8 <__uart_init+0xbc>
43c015d8:	e59f2018 	ldr	r2, [pc, #24]	; 43c015f8 <__uart_init+0xbc>
43c015dc:	e5922004 	ldr	r2, [r2, #4]
43c015e0:	e3c2200a 	bic	r2, r2, #10
43c015e4:	e5832004 	str	r2, [r3, #4]
}
43c015e8:	e28bd000 	add	sp, fp, #0
43c015ec:	e49db004 	pop	{fp}		; (ldr fp, [sp], #4)
43c015f0:	e12fff1e 	bx	lr
43c015f4:	c001d000 	andgt	sp, r1, r0
43c015f8:	c00a1000 	andgt	r1, sl, r0

43c015fc <__uart_putc>:

void __uart_putc(const char data)
{
43c015fc:	e92d4800 	push	{fp, lr}
43c01600:	e28db004 	add	fp, sp, #4
43c01604:	e24dd004 	sub	sp, sp, #4
43c01608:	e1a03000 	mov	r3, r0
43c0160c:	e54b3008 	strb	r3, [fp, #-8]
	while(!(UART0.UTRSTAT & 0X2));
43c01610:	e1a00000 	nop			; (mov r0, r0)
43c01614:	e59f3034 	ldr	r3, [pc, #52]	; 43c01650 <__uart_putc+0x54>
43c01618:	e5933010 	ldr	r3, [r3, #16]
43c0161c:	e2033002 	and	r3, r3, #2
43c01620:	e3530000 	cmp	r3, #0
43c01624:	0afffffa 	beq	43c01614 <__uart_putc+0x18>
	UART0.UTXH = data;
43c01628:	e59f3020 	ldr	r3, [pc, #32]	; 43c01650 <__uart_putc+0x54>
43c0162c:	e55b2008 	ldrb	r2, [fp, #-8]
43c01630:	e5832020 	str	r2, [r3, #32]
	if (data == '\n')
43c01634:	e55b3008 	ldrb	r3, [fp, #-8]
43c01638:	e353000a 	cmp	r3, #10
43c0163c:	1a000001 	bne	43c01648 <__uart_putc+0x4c>
		__uart_putc('\r');
43c01640:	e3a0000d 	mov	r0, #13
43c01644:	ebffffec 	bl	43c015fc <__uart_putc>
}
43c01648:	e24bd004 	sub	sp, fp, #4
43c0164c:	e8bd8800 	pop	{fp, pc}
43c01650:	c00a1000 	andgt	r1, sl, r0

43c01654 <__uart_puts>:
void __uart_puts(const  char  *pstr)
{
43c01654:	e92d4800 	push	{fp, lr}
43c01658:	e28db004 	add	fp, sp, #4
43c0165c:	e24dd004 	sub	sp, sp, #4
43c01660:	e50b0008 	str	r0, [fp, #-8]
	while(*pstr != '\0')
43c01664:	ea000006 	b	43c01684 <__uart_puts+0x30>
		__uart_putc(*pstr++);
43c01668:	e51b3008 	ldr	r3, [fp, #-8]
43c0166c:	e5d33000 	ldrb	r3, [r3]
43c01670:	e51b2008 	ldr	r2, [fp, #-8]
43c01674:	e2822001 	add	r2, r2, #1
43c01678:	e50b2008 	str	r2, [fp, #-8]
43c0167c:	e1a00003 	mov	r0, r3
43c01680:	ebffffdd 	bl	43c015fc <__uart_putc>
	if (data == '\n')
		__uart_putc('\r');
}
void __uart_puts(const  char  *pstr)
{
	while(*pstr != '\0')
43c01684:	e51b3008 	ldr	r3, [fp, #-8]
43c01688:	e5d33000 	ldrb	r3, [r3]
43c0168c:	e3530000 	cmp	r3, #0
43c01690:	1afffff4 	bne	43c01668 <__uart_puts+0x14>
		__uart_putc(*pstr++);
}
43c01694:	e24bd004 	sub	sp, fp, #4
43c01698:	e8bd8800 	pop	{fp, pc}

43c0169c <__uart_getc>:

char __uart_getc(void)
{
43c0169c:	e52db004 	push	{fp}		; (str fp, [sp, #-4]!)
43c016a0:	e28db000 	add	fp, sp, #0
43c016a4:	e24dd004 	sub	sp, sp, #4
	char data;
	while (!(UART0.UTRSTAT & 0X1));
43c016a8:	e1a00000 	nop			; (mov r0, r0)
43c016ac:	e59f302c 	ldr	r3, [pc, #44]	; 43c016e0 <__uart_getc+0x44>
43c016b0:	e5933010 	ldr	r3, [r3, #16]
43c016b4:	e2033001 	and	r3, r3, #1
43c016b8:	e3530000 	cmp	r3, #0
43c016bc:	0afffffa 	beq	43c016ac <__uart_getc+0x10>
	data = UART0.URXH;
43c016c0:	e59f3018 	ldr	r3, [pc, #24]	; 43c016e0 <__uart_getc+0x44>
43c016c4:	e5933024 	ldr	r3, [r3, #36]	; 0x24
43c016c8:	e54b3001 	strb	r3, [fp, #-1]
	return data;
43c016cc:	e55b3001 	ldrb	r3, [fp, #-1]
}
43c016d0:	e1a00003 	mov	r0, r3
43c016d4:	e28bd000 	add	sp, fp, #0
43c016d8:	e49db004 	pop	{fp}		; (ldr fp, [sp], #4)
43c016dc:	e12fff1e 	bx	lr
43c016e0:	c00a1000 	andgt	r1, sl, r0

43c016e4 <hal_watchdog_init>:
#include "watchdog.h"

/*看门狗的初始化*/
void hal_watchdog_init(void)
{
43c016e4:	e92d4800 	push	{fp, lr}
43c016e8:	e28db004 	add	fp, sp, #4
43c016ec:	e24dd010 	sub	sp, sp, #16
	unsigned int *ip_reset1 = (unsigned int *)0xC0012004;
43c016f0:	e59f30dc 	ldr	r3, [pc, #220]	; 43c017d4 <__vfp11_veneer_0_r+0x58>
43c016f4:	e50b3008 	str	r3, [fp, #-8]
	*ip_reset1 = *ip_reset1 & (~(0x3 <<26));
43c016f8:	e51b3008 	ldr	r3, [fp, #-8]
43c016fc:	e5933000 	ldr	r3, [r3]
43c01700:	e3c32303 	bic	r2, r3, #201326592	; 0xc000000
43c01704:	e51b3008 	ldr	r3, [fp, #-8]
43c01708:	e5832000 	str	r2, [r3]
	*ip_reset1 = *ip_reset1 | (0x3 << 26);
43c0170c:	e51b3008 	ldr	r3, [fp, #-8]
43c01710:	e5933000 	ldr	r3, [r3]
43c01714:	e3832303 	orr	r2, r3, #201326592	; 0xc000000
43c01718:	e51b3008 	ldr	r3, [fp, #-8]
43c0171c:	e5832000 	str	r2, [r3]
	//设置分频数值
	WTCON &= (~(0xFF << 8));//先清零
43c01720:	e59f30b0 	ldr	r3, [pc, #176]	; 43c017d8 <__vfp11_veneer_0_r+0x5c>
43c01724:	e59f20ac 	ldr	r2, [pc, #172]	; 43c017d8 <__vfp11_veneer_0_r+0x5c>
43c01728:	e5922000 	ldr	r2, [r2]
43c0172c:	e3c22cff 	bic	r2, r2, #65280	; 0xff00
43c01730:	e5832000 	str	r2, [r3]
	WTCON |= (_PRESCALER << 8);  //再设置成249
43c01734:	e59f309c 	ldr	r3, [pc, #156]	; 43c017d8 <__vfp11_veneer_0_r+0x5c>
43c01738:	e59f2098 	ldr	r2, [pc, #152]	; 43c017d8 <__vfp11_veneer_0_r+0x5c>
43c0173c:	e5922000 	ldr	r2, [r2]
43c01740:	e3822cf9 	orr	r2, r2, #63744	; 0xf900
43c01744:	e5832000 	str	r2, [r3]
	//设置分频因子
	WTCON |= (0x3 << 3);         //128
43c01748:	e59f3088 	ldr	r3, [pc, #136]	; 43c017d8 <__vfp11_veneer_0_r+0x5c>
43c0174c:	e59f2084 	ldr	r2, [pc, #132]	; 43c017d8 <__vfp11_veneer_0_r+0x5c>
43c01750:	e5922000 	ldr	r2, [r2]
43c01754:	e3822018 	orr	r2, r2, #24
43c01758:	e5832000 	str	r2, [r3]
	//设置WTCNT寄存器的初始值
	WTCNT = _WATCNT;             //8448 * 2
43c0175c:	e59f3078 	ldr	r3, [pc, #120]	; 43c017dc <__vfp11_veneer_0_r+0x60>
43c01760:	e3a02c42 	mov	r2, #16896	; 0x4200
43c01764:	e5832000 	str	r2, [r3]
	//WTDAT = _WATCNT;			//在看门狗启动后该数值不能加载到WTCNT寄存器中
	//计算看门狗定时器时钟周期
	float t_watchdog = (float) 1 / ( ((float)_PLCK*1000000 / ( _PRESCALER + 1 )) / (float) _DIVFACTOR);
43c01768:	e59f3070 	ldr	r3, [pc, #112]	; 43c017e0 <__vfp11_veneer_0_r+0x64>
43c0176c:	e50b300c 	str	r3, [fp, #-12]
	//计算超时时间
	float time = t_watchdog * _WATCNT;
43c01770:	ed1b7a03 	vldr	s14, [fp, #-12]
43c01774:	eddf7a15 	vldr	s15, [pc, #84]	; 43c017d0 <__vfp11_veneer_0_r+0x54>
43c01778:	ea000881 	b	43c03984 <__vfp11_veneer_0>

43c0177c <__vfp11_veneer_0_r>:
43c0177c:	ee777aa7 	vadd.f32	s15, s15, s15
43c01780:	ed4b7a04 	vstr	s15, [fp, #-16]
	int  _time = (int) time;
43c01784:	ed5b7a04 	vldr	s15, [fp, #-16]
43c01788:	eefd7ae7 	vcvt.s32.f32	s15, s15
43c0178c:	ee173a90 	vmov	r3, s15
43c01790:	e50b3014 	str	r3, [fp, #-20]	; 0xffffffec
	printf("_time = %d \n",_time);
43c01794:	e59f0048 	ldr	r0, [pc, #72]	; 43c017e4 <__vfp11_veneer_0_r+0x68>
43c01798:	e51b1014 	ldr	r1, [fp, #-20]	; 0xffffffec
43c0179c:	ebffff53 	bl	43c014f0 <printf>
	//启动看门狗
	WTCON |= (0x1 << 2); //Reset signal enable
43c017a0:	e59f3030 	ldr	r3, [pc, #48]	; 43c017d8 <__vfp11_veneer_0_r+0x5c>
43c017a4:	e59f202c 	ldr	r2, [pc, #44]	; 43c017d8 <__vfp11_veneer_0_r+0x5c>
43c017a8:	e5922000 	ldr	r2, [r2]
43c017ac:	e3822004 	orr	r2, r2, #4
43c017b0:	e5832000 	str	r2, [r3]
	WTCON |= (0x1 << 5);//wdt enable
43c017b4:	e59f301c 	ldr	r3, [pc, #28]	; 43c017d8 <__vfp11_veneer_0_r+0x5c>
43c017b8:	e59f2018 	ldr	r2, [pc, #24]	; 43c017d8 <__vfp11_veneer_0_r+0x5c>
43c017bc:	e5922000 	ldr	r2, [r2]
43c017c0:	e3822020 	orr	r2, r2, #32
43c017c4:	e5832000 	str	r2, [r3]
}
43c017c8:	e24bd004 	sub	sp, fp, #4
43c017cc:	e8bd8800 	pop	{fp, pc}
43c017d0:	46040000 	strmi	r0, [r4], -r0
43c017d4:	c0012004 	andgt	r2, r1, r4
43c017d8:	c0019000 	andgt	r9, r1, r0
43c017dc:	c0019008 	andgt	r9, r1, r8
43c017e0:	395fb23b 	ldmdbcc	pc, {r0, r1, r3, r4, r5, r9, ip, sp, pc}^	; <UNPREDICTABLE>
43c017e4:	43c039e4 	bicmi	r3, r0, #228, 18	; 0x390000

43c017e8 <WDT_Feed>:
void WDT_Feed(void)//喂狗函数
{
43c017e8:	e52db004 	push	{fp}		; (str fp, [sp, #-4]!)
43c017ec:	e28db000 	add	fp, sp, #0
	WTCNT = _WATCNT;//重置计数器
43c017f0:	e59f3010 	ldr	r3, [pc, #16]	; 43c01808 <WDT_Feed+0x20>
43c017f4:	e3a02c42 	mov	r2, #16896	; 0x4200
43c017f8:	e5832000 	str	r2, [r3]
}
43c017fc:	e28bd000 	add	sp, fp, #0
43c01800:	e49db004 	pop	{fp}		; (ldr fp, [sp], #4)
43c01804:	e12fff1e 	bx	lr
43c01808:	c0019008 	andgt	r9, r1, r8

43c0180c <hal_uart_init>:
#include "uart.h"
#include "led_on.h"
#include "pwm_on.h"
#include "adc.h"
void hal_uart_init(_uint32 sclk_uart,_uint32 bound)//时钟源的频率，波特率
{
43c0180c:	e52db004 	push	{fp}		; (str fp, [sp, #-4]!)
43c01810:	e28db000 	add	fp, sp, #0
43c01814:	e24dd014 	sub	sp, sp, #20
43c01818:	e50b0010 	str	r0, [fp, #-16]
43c0181c:	e50b1014 	str	r1, [fp, #-20]	; 0xffffffec
	// 1. 设置UARTTXD0::GPIOD18 GPIOxALTFN1[5:4]=01引脚和UARTRXD0::GPIOD14 GPIOxALTFN0[29:28]=01引脚位串口功能
	GPIOD.ALTFN1 &= ~( 0x1 <<5 );
43c01820:	e59f3178 	ldr	r3, [pc, #376]	; 43c019a0 <hal_uart_init+0x194>
43c01824:	e59f2174 	ldr	r2, [pc, #372]	; 43c019a0 <hal_uart_init+0x194>
43c01828:	e5922024 	ldr	r2, [r2, #36]	; 0x24
43c0182c:	e3c22020 	bic	r2, r2, #32
43c01830:	e5832024 	str	r2, [r3, #36]	; 0x24
	GPIOD.ALTFN1 |=  ( 0x1 <<4 );
43c01834:	e59f3164 	ldr	r3, [pc, #356]	; 43c019a0 <hal_uart_init+0x194>
43c01838:	e59f2160 	ldr	r2, [pc, #352]	; 43c019a0 <hal_uart_init+0x194>
43c0183c:	e5922024 	ldr	r2, [r2, #36]	; 0x24
43c01840:	e3822010 	orr	r2, r2, #16
43c01844:	e5832024 	str	r2, [r3, #36]	; 0x24
	GPIOD.ALTFN0 &= ~( 0x1 << 29 );
43c01848:	e59f3150 	ldr	r3, [pc, #336]	; 43c019a0 <hal_uart_init+0x194>
43c0184c:	e59f214c 	ldr	r2, [pc, #332]	; 43c019a0 <hal_uart_init+0x194>
43c01850:	e5922020 	ldr	r2, [r2, #32]
43c01854:	e3c22202 	bic	r2, r2, #536870912	; 0x20000000
43c01858:	e5832020 	str	r2, [r3, #32]
	GPIOD.ALTFN0 |=  ( 0x1 << 28 );
43c0185c:	e59f313c 	ldr	r3, [pc, #316]	; 43c019a0 <hal_uart_init+0x194>
43c01860:	e59f2138 	ldr	r2, [pc, #312]	; 43c019a0 <hal_uart_init+0x194>
43c01864:	e5922020 	ldr	r2, [r2, #32]
43c01868:	e3822201 	orr	r2, r2, #268435456	; 0x10000000
43c0186c:	e5832020 	str	r2, [r3, #32]

	// 2. 设置串口数据帧的格式：8N1    ULCON
	//ULCON[6]:0 正常模式  ULCON[1:0]:11 8位数据位  ULCON[5:3]:0xx 无校验位   ULCON[2]:0 1个停止位
	UART0.ULCON &= ~( 0x1 << 6 );//Normal Mode
43c01870:	e59f312c 	ldr	r3, [pc, #300]	; 43c019a4 <hal_uart_init+0x198>
43c01874:	e59f2128 	ldr	r2, [pc, #296]	; 43c019a4 <hal_uart_init+0x198>
43c01878:	e5922000 	ldr	r2, [r2]
43c0187c:	e3c22040 	bic	r2, r2, #64	; 0x40
43c01880:	e5832000 	str	r2, [r3]
	UART0.ULCON &= ~( 0x1 << 3 );//no parity
43c01884:	e59f3118 	ldr	r3, [pc, #280]	; 43c019a4 <hal_uart_init+0x198>
43c01888:	e59f2114 	ldr	r2, [pc, #276]	; 43c019a4 <hal_uart_init+0x198>
43c0188c:	e5922000 	ldr	r2, [r2]
43c01890:	e3c22008 	bic	r2, r2, #8
43c01894:	e5832000 	str	r2, [r3]
	UART0.ULCON &= ~( 0x1 << 2 );//one stop
43c01898:	e59f3104 	ldr	r3, [pc, #260]	; 43c019a4 <hal_uart_init+0x198>
43c0189c:	e59f2100 	ldr	r2, [pc, #256]	; 43c019a4 <hal_uart_init+0x198>
43c018a0:	e5922000 	ldr	r2, [r2]
43c018a4:	e3c22004 	bic	r2, r2, #4
43c018a8:	e5832000 	str	r2, [r3]
	UART0.ULCON |=  0x3;//8 bits datas
43c018ac:	e59f30f0 	ldr	r3, [pc, #240]	; 43c019a4 <hal_uart_init+0x198>
43c018b0:	e59f20ec 	ldr	r2, [pc, #236]	; 43c019a4 <hal_uart_init+0x198>
43c018b4:	e5922000 	ldr	r2, [r2]
43c018b8:	e3822003 	orr	r2, r2, #3
43c018bc:	e5832000 	str	r2, [r3]

	//printf("sclk_uart = %d\n",sclk_uart);
	//printf("bound = %d\n",bound);

	// 3. 设置串口的波特率 115200   UBRDIV  UFRACVAL
	float div_val = (float) ( sclk_uart * 1000000 ) /  ( bound * 16 )-1;
43c018c0:	e51b3010 	ldr	r3, [fp, #-16]
43c018c4:	e59f20dc 	ldr	r2, [pc, #220]	; 43c019a8 <hal_uart_init+0x19c>
43c018c8:	e0030392 	mul	r3, r2, r3
43c018cc:	ee063a90 	vmov	s13, r3
43c018d0:	eeb87a66 	vcvt.f32.u32	s14, s13
43c018d4:	e51b3014 	ldr	r3, [fp, #-20]	; 0xffffffec
43c018d8:	e1a03203 	lsl	r3, r3, #4
43c018dc:	ee063a90 	vmov	s13, r3
43c018e0:	eef87a66 	vcvt.f32.u32	s15, s13
43c018e4:	eec77a27 	vdiv.f32	s15, s14, s15
43c018e8:	eeb77a00 	vmov.f32	s14, #112	; 0x70
43c018ec:	ee777ac7 	vsub.f32	s15, s15, s14
43c018f0:	ed4b7a01 	vstr	s15, [fp, #-4]
	//得到整数部分
	int ubrdivn = (int) div_val;
43c018f4:	ed5b7a01 	vldr	s15, [fp, #-4]
43c018f8:	eefd7ae7 	vcvt.s32.f32	s15, s15
43c018fc:	ee173a90 	vmov	r3, s15
43c01900:	e50b3008 	str	r3, [fp, #-8]
	//计算小数部分
	int ufracvaln =(int)((div_val  - (float)ubrdivn) * 16);
43c01904:	e51b3008 	ldr	r3, [fp, #-8]
43c01908:	ee073a10 	vmov	s14, r3
43c0190c:	eef87ac7 	vcvt.f32.s32	s15, s14
43c01910:	ed1b7a01 	vldr	s14, [fp, #-4]
43c01914:	ee377a67 	vsub.f32	s14, s14, s15
43c01918:	eef37a00 	vmov.f32	s15, #48	; 0x30
43c0191c:	ee677a27 	vmul.f32	s15, s14, s15
43c01920:	eefd7ae7 	vcvt.s32.f32	s15, s15
43c01924:	ee173a90 	vmov	r3, s15
43c01928:	e50b300c 	str	r3, [fp, #-12]

//	printf("ubrdivn=%d\n",ubrdivn);
//	printf("ufracvaln=%d\n",ufracvaln); 

	//设置UBRDIVn寄存器和UFRACVALn寄存器的数值
	UART0.UBRDIV    = ubrdivn;
43c0192c:	e59f3070 	ldr	r3, [pc, #112]	; 43c019a4 <hal_uart_init+0x198>
43c01930:	e51b2008 	ldr	r2, [fp, #-8]
43c01934:	e5832028 	str	r2, [r3, #40]	; 0x28
	UART0.UFRACVAL = ufracvaln;
43c01938:	e59f3064 	ldr	r3, [pc, #100]	; 43c019a4 <hal_uart_init+0x198>
43c0193c:	e51b200c 	ldr	r2, [fp, #-12]
43c01940:	e583202c 	str	r2, [r3, #44]	; 0x2c
	// 4. 设置串口发送和接收模式：轮询模式  
	//UCON Transmit Mode [3:2] 01 = Interrupt request or Polling mode
	//UCON Receive  Mode [1:0] 01 = Interrupt request or Polling mode
	UART0.UCON |=  (0x1 << 2);
43c01944:	e59f3058 	ldr	r3, [pc, #88]	; 43c019a4 <hal_uart_init+0x198>
43c01948:	e59f2054 	ldr	r2, [pc, #84]	; 43c019a4 <hal_uart_init+0x198>
43c0194c:	e5922004 	ldr	r2, [r2, #4]
43c01950:	e3822004 	orr	r2, r2, #4
43c01954:	e5832004 	str	r2, [r3, #4]
	UART0.UCON &= ~(0x1 << 3);
43c01958:	e59f3044 	ldr	r3, [pc, #68]	; 43c019a4 <hal_uart_init+0x198>
43c0195c:	e59f2040 	ldr	r2, [pc, #64]	; 43c019a4 <hal_uart_init+0x198>
43c01960:	e5922004 	ldr	r2, [r2, #4]
43c01964:	e3c22008 	bic	r2, r2, #8
43c01968:	e5832004 	str	r2, [r3, #4]
	UART0.UCON |=	0x1;
43c0196c:	e59f3030 	ldr	r3, [pc, #48]	; 43c019a4 <hal_uart_init+0x198>
43c01970:	e59f202c 	ldr	r2, [pc, #44]	; 43c019a4 <hal_uart_init+0x198>
43c01974:	e5922004 	ldr	r2, [r2, #4]
43c01978:	e3822001 	orr	r2, r2, #1
43c0197c:	e5832004 	str	r2, [r3, #4]
	UART0.UCON &= ~(0x1 << 1);
43c01980:	e59f301c 	ldr	r3, [pc, #28]	; 43c019a4 <hal_uart_init+0x198>
43c01984:	e59f2018 	ldr	r2, [pc, #24]	; 43c019a4 <hal_uart_init+0x198>
43c01988:	e5922004 	ldr	r2, [r2, #4]
43c0198c:	e3c22002 	bic	r2, r2, #2
43c01990:	e5832004 	str	r2, [r3, #4]
//	printf("UART0.UCON=%X",UART0.UCON);
}
43c01994:	e28bd000 	add	sp, fp, #0
43c01998:	e49db004 	pop	{fp}		; (ldr fp, [sp], #4)
43c0199c:	e12fff1e 	bx	lr
43c019a0:	c001d000 	andgt	sp, r1, r0
43c019a4:	c00a1000 	andgt	r1, sl, r0
43c019a8:	000f4240 	andeq	r4, pc, r0, asr #4

43c019ac <strlen>:

int strlen(const char* str)
{   
43c019ac:	e52db004 	push	{fp}		; (str fp, [sp, #-4]!)
43c019b0:	e28db000 	add	fp, sp, #0
43c019b4:	e24dd008 	sub	sp, sp, #8
43c019b8:	e50b0008 	str	r0, [fp, #-8]
	int len = 0;
43c019bc:	e3a03000 	mov	r3, #0
43c019c0:	e50b3004 	str	r3, [fp, #-4]
	while(*str!='\0')
43c019c4:	ea000005 	b	43c019e0 <strlen+0x34>
	{   
		len++;
43c019c8:	e51b3004 	ldr	r3, [fp, #-4]
43c019cc:	e2833001 	add	r3, r3, #1
43c019d0:	e50b3004 	str	r3, [fp, #-4]
		str++;
43c019d4:	e51b3008 	ldr	r3, [fp, #-8]
43c019d8:	e2833001 	add	r3, r3, #1
43c019dc:	e50b3008 	str	r3, [fp, #-8]
}

int strlen(const char* str)
{   
	int len = 0;
	while(*str!='\0')
43c019e0:	e51b3008 	ldr	r3, [fp, #-8]
43c019e4:	e5d33000 	ldrb	r3, [r3]
43c019e8:	e3530000 	cmp	r3, #0
43c019ec:	1afffff5 	bne	43c019c8 <strlen+0x1c>
	{   
		len++;
		str++;
	}
	return len;
43c019f0:	e51b3004 	ldr	r3, [fp, #-4]
}
43c019f4:	e1a00003 	mov	r0, r3
43c019f8:	e28bd000 	add	sp, fp, #0
43c019fc:	e49db004 	pop	{fp}		; (ldr fp, [sp], #4)
43c01a00:	e12fff1e 	bx	lr

43c01a04 <Transmit_Byte>:


// 发送一个字节的函数
void Transmit_Byte(const char ch)
{
43c01a04:	e92d4800 	push	{fp, lr}
43c01a08:	e28db004 	add	fp, sp, #4
43c01a0c:	e24dd004 	sub	sp, sp, #4
43c01a10:	e1a03000 	mov	r3, r0
43c01a14:	e54b3008 	strb	r3, [fp, #-8]
	// 循环判断发送缓冲区是否为空  UTRSTAT[1]=1
	//printf("寄存器UTRSTAT[2]::%d\n",r_val_trns);
	//printf("寄存器UTRSTAT[1]::%d\n",r_val_buf);

	while(!((UART0.UTRSTAT >> 1) & (0x1)) );//等待发送缓冲器为空
43c01a18:	e1a00000 	nop			; (mov r0, r0)
43c01a1c:	e59f3038 	ldr	r3, [pc, #56]	; 43c01a5c <Transmit_Byte+0x58>
43c01a20:	e5933010 	ldr	r3, [r3, #16]
43c01a24:	e1a030a3 	lsr	r3, r3, #1
43c01a28:	e2033001 	and	r3, r3, #1
43c01a2c:	e3530000 	cmp	r3, #0
43c01a30:	0afffff9 	beq	43c01a1c <Transmit_Byte+0x18>

	// 继续向发送缓冲区内发送数据  发送寄存器 
	//	printf("*****************************************\n");
	UART0.UTXH = ch;
43c01a34:	e59f3020 	ldr	r3, [pc, #32]	; 43c01a5c <Transmit_Byte+0x58>
43c01a38:	e55b2008 	ldrb	r2, [fp, #-8]
43c01a3c:	e5832020 	str	r2, [r3, #32]


	if(ch == '\n')
43c01a40:	e55b3008 	ldrb	r3, [fp, #-8]
43c01a44:	e353000a 	cmp	r3, #10
43c01a48:	1a000001 	bne	43c01a54 <Transmit_Byte+0x50>
		Transmit_Byte('\r');
43c01a4c:	e3a0000d 	mov	r0, #13
43c01a50:	ebffffeb 	bl	43c01a04 <Transmit_Byte>
}
43c01a54:	e24bd004 	sub	sp, fp, #4
43c01a58:	e8bd8800 	pop	{fp, pc}
43c01a5c:	c00a1000 	andgt	r1, sl, r0

43c01a60 <Receive_Byte>:

// 接收一个字节的函数
char Receive_Byte(int command_num,int CommandValue,int voltage_low_down_adc,int voltage_low_up_adc,
		int voltage_middle_adc,int voltage_high_down_adc, int voltage_high_up_adc)
{
43c01a60:	e92d4800 	push	{fp, lr}
43c01a64:	e28db004 	add	fp, sp, #4
43c01a68:	e24dd01c 	sub	sp, sp, #28
43c01a6c:	e50b0008 	str	r0, [fp, #-8]
43c01a70:	e50b100c 	str	r1, [fp, #-12]
43c01a74:	e50b2010 	str	r2, [fp, #-16]
43c01a78:	e50b3014 	str	r3, [fp, #-20]	; 0xffffffec
	//char ch;
	// 判断接收缓冲区是否有有效数据，如果接收缓冲区没有有效数据，
	// 则等待接收缓冲区有有效的数据  UTRSTAT[0]
	//printf("寄存器UTRSTAT[0]::%d\n",r_val);
	while(!((UART0.UTRSTAT >> 0) & (0x1))) //0为空 1为数据准备好了
43c01a7c:	ea00000b 	b	43c01ab0 <Receive_Byte+0x50>
	{
		//printf("UARTC.c 命令编号::::::%d\n",command_num);
		ExecCommandByUart(command_num,CommandValue,voltage_low_down_adc,voltage_low_up_adc,voltage_middle_adc,voltage_high_down_adc,voltage_high_up_adc);
43c01a80:	e51b3008 	ldr	r3, [fp, #-8]
43c01a84:	e59b2004 	ldr	r2, [fp, #4]
43c01a88:	e58d2000 	str	r2, [sp]
43c01a8c:	e59b2008 	ldr	r2, [fp, #8]
43c01a90:	e58d2004 	str	r2, [sp, #4]
43c01a94:	e59b200c 	ldr	r2, [fp, #12]
43c01a98:	e58d2008 	str	r2, [sp, #8]
43c01a9c:	e1a00003 	mov	r0, r3
43c01aa0:	e51b100c 	ldr	r1, [fp, #-12]
43c01aa4:	e51b2010 	ldr	r2, [fp, #-16]
43c01aa8:	e51b3014 	ldr	r3, [fp, #-20]	; 0xffffffec
43c01aac:	eb00007f 	bl	43c01cb0 <ExecCommandByUart>
{
	//char ch;
	// 判断接收缓冲区是否有有效数据，如果接收缓冲区没有有效数据，
	// 则等待接收缓冲区有有效的数据  UTRSTAT[0]
	//printf("寄存器UTRSTAT[0]::%d\n",r_val);
	while(!((UART0.UTRSTAT >> 0) & (0x1))) //0为空 1为数据准备好了
43c01ab0:	e59f3024 	ldr	r3, [pc, #36]	; 43c01adc <Receive_Byte+0x7c>
43c01ab4:	e5933010 	ldr	r3, [r3, #16]
43c01ab8:	e2033001 	and	r3, r3, #1
43c01abc:	e3530000 	cmp	r3, #0
43c01ac0:	0affffee 	beq	43c01a80 <Receive_Byte+0x20>
		ExecCommandByUart(command_num,CommandValue,voltage_low_down_adc,voltage_low_up_adc,voltage_middle_adc,voltage_high_down_adc,voltage_high_up_adc);
	}

	//接收数据
	//ch = UART0.URXH;
	return UART0.URXH;
43c01ac4:	e59f3010 	ldr	r3, [pc, #16]	; 43c01adc <Receive_Byte+0x7c>
43c01ac8:	e5933024 	ldr	r3, [r3, #36]	; 0x24
43c01acc:	e20330ff 	and	r3, r3, #255	; 0xff
}
43c01ad0:	e1a00003 	mov	r0, r3
43c01ad4:	e24bd004 	sub	sp, fp, #4
43c01ad8:	e8bd8800 	pop	{fp, pc}
43c01adc:	c00a1000 	andgt	r1, sl, r0

43c01ae0 <Transmit_String>:

// 发送字符串的函数
void Transmit_String(const char *str) 
{
43c01ae0:	e92d4800 	push	{fp, lr}
43c01ae4:	e28db004 	add	fp, sp, #4
43c01ae8:	e24dd008 	sub	sp, sp, #8
43c01aec:	e50b000c 	str	r0, [fp, #-12]
	// 判断是否到字符串的结尾
	const char *ptr = str;
43c01af0:	e51b300c 	ldr	r3, [fp, #-12]
43c01af4:	e50b3008 	str	r3, [fp, #-8]
	while(*ptr!='\0')
43c01af8:	ea000006 	b	43c01b18 <Transmit_String+0x38>
	{
		// 如果没有到结尾调用Transmit_Byte函数，一个字节一个字节发送。
		Transmit_Byte(*ptr);
43c01afc:	e51b3008 	ldr	r3, [fp, #-8]
43c01b00:	e5d33000 	ldrb	r3, [r3]
43c01b04:	e1a00003 	mov	r0, r3
43c01b08:	ebffffbd 	bl	43c01a04 <Transmit_Byte>
		ptr++;
43c01b0c:	e51b3008 	ldr	r3, [fp, #-8]
43c01b10:	e2833001 	add	r3, r3, #1
43c01b14:	e50b3008 	str	r3, [fp, #-8]
// 发送字符串的函数
void Transmit_String(const char *str) 
{
	// 判断是否到字符串的结尾
	const char *ptr = str;
	while(*ptr!='\0')
43c01b18:	e51b3008 	ldr	r3, [fp, #-8]
43c01b1c:	e5d33000 	ldrb	r3, [r3]
43c01b20:	e3530000 	cmp	r3, #0
43c01b24:	1afffff4 	bne	43c01afc <Transmit_String+0x1c>
		// 如果没有到结尾调用Transmit_Byte函数，一个字节一个字节发送。
		Transmit_Byte(*ptr);
		ptr++;
	}

}
43c01b28:	e24bd004 	sub	sp, fp, #4
43c01b2c:	e8bd8800 	pop	{fp, pc}

43c01b30 <Receive_String>:

//接受字符串的函数
void Receive_String(char *str,int len,int command_num,int CommandValue,int voltage_low_down_adc,
		int voltage_low_up_adc,int voltage_middle_adc,int voltage_high_down_adc, int voltage_high_up_adc)
{
43c01b30:	e92d4800 	push	{fp, lr}
43c01b34:	e28db004 	add	fp, sp, #4
43c01b38:	e24dd024 	sub	sp, sp, #36	; 0x24
43c01b3c:	e50b0010 	str	r0, [fp, #-16]
43c01b40:	e50b1014 	str	r1, [fp, #-20]	; 0xffffffec
43c01b44:	e50b2018 	str	r2, [fp, #-24]	; 0xffffffe8
43c01b48:	e50b301c 	str	r3, [fp, #-28]	; 0xffffffe4
	char ch;//从仿真终端接受字符
	int i;
	for(i=0;i<len-1;i++)
43c01b4c:	e3a03000 	mov	r3, #0
43c01b50:	e50b3008 	str	r3, [fp, #-8]
43c01b54:	ea00001a 	b	43c01bc4 <Receive_String+0x94>
	{
		ch = Receive_Byte(command_num,CommandValue,voltage_low_down_adc,voltage_low_up_adc,voltage_middle_adc,voltage_high_down_adc,voltage_high_up_adc);//接收终端的字符
43c01b58:	e59b300c 	ldr	r3, [fp, #12]
43c01b5c:	e58d3000 	str	r3, [sp]
43c01b60:	e59b3010 	ldr	r3, [fp, #16]
43c01b64:	e58d3004 	str	r3, [sp, #4]
43c01b68:	e59b3014 	ldr	r3, [fp, #20]
43c01b6c:	e58d3008 	str	r3, [sp, #8]
43c01b70:	e51b0018 	ldr	r0, [fp, #-24]	; 0xffffffe8
43c01b74:	e51b101c 	ldr	r1, [fp, #-28]	; 0xffffffe4
43c01b78:	e59b2004 	ldr	r2, [fp, #4]
43c01b7c:	e59b3008 	ldr	r3, [fp, #8]
43c01b80:	ebffffb6 	bl	43c01a60 <Receive_Byte>
43c01b84:	e1a03000 	mov	r3, r0
43c01b88:	e54b3009 	strb	r3, [fp, #-9]
		if(ch != '\r')//如果不是回车
43c01b8c:	e55b3009 	ldrb	r3, [fp, #-9]
43c01b90:	e353000d 	cmp	r3, #13
43c01b94:	0a000010 	beq	43c01bdc <Receive_String+0xac>
		{
			str[i] = ch;//读取终端的字符串到数组中
43c01b98:	e51b3008 	ldr	r3, [fp, #-8]
43c01b9c:	e51b2010 	ldr	r2, [fp, #-16]
43c01ba0:	e0823003 	add	r3, r2, r3
43c01ba4:	e55b2009 	ldrb	r2, [fp, #-9]
43c01ba8:	e5c32000 	strb	r2, [r3]
			Transmit_Byte(ch);//放到发送寄存器中回显
43c01bac:	e55b3009 	ldrb	r3, [fp, #-9]
43c01bb0:	e1a00003 	mov	r0, r3
43c01bb4:	ebffff92 	bl	43c01a04 <Transmit_Byte>
void Receive_String(char *str,int len,int command_num,int CommandValue,int voltage_low_down_adc,
		int voltage_low_up_adc,int voltage_middle_adc,int voltage_high_down_adc, int voltage_high_up_adc)
{
	char ch;//从仿真终端接受字符
	int i;
	for(i=0;i<len-1;i++)
43c01bb8:	e51b3008 	ldr	r3, [fp, #-8]
43c01bbc:	e2833001 	add	r3, r3, #1
43c01bc0:	e50b3008 	str	r3, [fp, #-8]
43c01bc4:	e51b3014 	ldr	r3, [fp, #-20]	; 0xffffffec
43c01bc8:	e2432001 	sub	r2, r3, #1
43c01bcc:	e51b3008 	ldr	r3, [fp, #-8]
43c01bd0:	e1520003 	cmp	r2, r3
43c01bd4:	caffffdf 	bgt	43c01b58 <Receive_String+0x28>
43c01bd8:	ea000000 	b	43c01be0 <Receive_String+0xb0>
			str[i] = ch;//读取终端的字符串到数组中
			Transmit_Byte(ch);//放到发送寄存器中回显
		}
		else
		{
			break;//如果接收到的是回车则跳出循环
43c01bdc:	e1a00000 	nop			; (mov r0, r0)
		}
	}
	str[i] = '\0';
43c01be0:	e51b3008 	ldr	r3, [fp, #-8]
43c01be4:	e51b2010 	ldr	r2, [fp, #-16]
43c01be8:	e0823003 	add	r3, r2, r3
43c01bec:	e3a02000 	mov	r2, #0
43c01bf0:	e5c32000 	strb	r2, [r3]
}
43c01bf4:	e24bd004 	sub	sp, fp, #4
43c01bf8:	e8bd8800 	pop	{fp, pc}

43c01bfc <StringCmp>:



int StringCmp(char* str,char *dtr)
{
43c01bfc:	e52db004 	push	{fp}		; (str fp, [sp, #-4]!)
43c01c00:	e28db000 	add	fp, sp, #0
43c01c04:	e24dd010 	sub	sp, sp, #16
43c01c08:	e50b000c 	str	r0, [fp, #-12]
43c01c0c:	e50b1010 	str	r1, [fp, #-16]
	char *ptr1 = str;
43c01c10:	e51b300c 	ldr	r3, [fp, #-12]
43c01c14:	e50b3004 	str	r3, [fp, #-4]
	char *ptr2 = dtr;
43c01c18:	e51b3010 	ldr	r3, [fp, #-16]
43c01c1c:	e50b3008 	str	r3, [fp, #-8]
	while((*ptr1 == *ptr2)&&(*ptr1!='\0')&&(*ptr2!='\0'))
43c01c20:	ea000005 	b	43c01c3c <StringCmp+0x40>
	{
		ptr1++;
43c01c24:	e51b3004 	ldr	r3, [fp, #-4]
43c01c28:	e2833001 	add	r3, r3, #1
43c01c2c:	e50b3004 	str	r3, [fp, #-4]
		ptr2++;
43c01c30:	e51b3008 	ldr	r3, [fp, #-8]
43c01c34:	e2833001 	add	r3, r3, #1
43c01c38:	e50b3008 	str	r3, [fp, #-8]

int StringCmp(char* str,char *dtr)
{
	char *ptr1 = str;
	char *ptr2 = dtr;
	while((*ptr1 == *ptr2)&&(*ptr1!='\0')&&(*ptr2!='\0'))
43c01c3c:	e51b3004 	ldr	r3, [fp, #-4]
43c01c40:	e5d32000 	ldrb	r2, [r3]
43c01c44:	e51b3008 	ldr	r3, [fp, #-8]
43c01c48:	e5d33000 	ldrb	r3, [r3]
43c01c4c:	e1520003 	cmp	r2, r3
43c01c50:	1a000007 	bne	43c01c74 <StringCmp+0x78>
43c01c54:	e51b3004 	ldr	r3, [fp, #-4]
43c01c58:	e5d33000 	ldrb	r3, [r3]
43c01c5c:	e3530000 	cmp	r3, #0
43c01c60:	0a000003 	beq	43c01c74 <StringCmp+0x78>
43c01c64:	e51b3008 	ldr	r3, [fp, #-8]
43c01c68:	e5d33000 	ldrb	r3, [r3]
43c01c6c:	e3530000 	cmp	r3, #0
43c01c70:	1affffeb 	bne	43c01c24 <StringCmp+0x28>
	{
		ptr1++;
		ptr2++;
	}
	if((*ptr1=='\0') && (*ptr2=='\0'))
43c01c74:	e51b3004 	ldr	r3, [fp, #-4]
43c01c78:	e5d33000 	ldrb	r3, [r3]
43c01c7c:	e3530000 	cmp	r3, #0
43c01c80:	1a000005 	bne	43c01c9c <StringCmp+0xa0>
43c01c84:	e51b3008 	ldr	r3, [fp, #-8]
43c01c88:	e5d33000 	ldrb	r3, [r3]
43c01c8c:	e3530000 	cmp	r3, #0
43c01c90:	1a000001 	bne	43c01c9c <StringCmp+0xa0>
		return 1;
43c01c94:	e3a03001 	mov	r3, #1
43c01c98:	ea000000 	b	43c01ca0 <StringCmp+0xa4>
	else
		return 0;
43c01c9c:	e3a03000 	mov	r3, #0
}
43c01ca0:	e1a00003 	mov	r0, r3
43c01ca4:	e28bd000 	add	sp, fp, #0
43c01ca8:	e49db004 	pop	{fp}		; (ldr fp, [sp], #4)
43c01cac:	e12fff1e 	bx	lr

43c01cb0 <ExecCommandByUart>:

//根据命令编号来执行命令
void ExecCommandByUart(command_num_t command_num,int CommandValue,int voltage_low_down_adc,int voltage_low_up_adc,
		int voltage_middle_adc,int voltage_high_down_adc, int voltage_high_up_adc)//执行命令
{
43c01cb0:	e92d4800 	push	{fp, lr}
43c01cb4:	e28db004 	add	fp, sp, #4
43c01cb8:	e24dd01c 	sub	sp, sp, #28
43c01cbc:	e50b000c 	str	r0, [fp, #-12]
43c01cc0:	e50b1010 	str	r1, [fp, #-16]
43c01cc4:	e50b2014 	str	r2, [fp, #-20]	; 0xffffffec
43c01cc8:	e50b3018 	str	r3, [fp, #-24]	; 0xffffffe8
	//ADC读取电压初始化
	int voltage_adc = 0;
43c01ccc:	e3a03000 	mov	r3, #0
43c01cd0:	e50b3008 	str	r3, [fp, #-8]

	switch(command_num)
43c01cd4:	e51b300c 	ldr	r3, [fp, #-12]
43c01cd8:	e353000e 	cmp	r3, #14
43c01cdc:	979ff103 	ldrls	pc, [pc, r3, lsl #2]
43c01ce0:	ea00003b 	b	43c01dd4 <ExecCommandByUart+0x124>
43c01ce4:	43c01d20 	bicmi	r1, r0, #32, 26	; 0x800
43c01ce8:	43c01d28 	bicmi	r1, r0, #40, 26	; 0xa00
43c01cec:	43c01d30 	bicmi	r1, r0, #48, 26	; 0xc00
43c01cf0:	43c01d3c 	bicmi	r1, r0, #60, 26	; 0xf00
43c01cf4:	43c01d44 	bicmi	r1, r0, #68, 26	; 0x1100
43c01cf8:	43c01d50 	bicmi	r1, r0, #80, 26	; 0x1400
43c01cfc:	43c01d58 	bicmi	r1, r0, #88, 26	; 0x1600
43c01d00:	43c01d64 	bicmi	r1, r0, #100, 26	; 0x1900
43c01d04:	43c01d74 	bicmi	r1, r0, #116, 26	; 0x1d00
43c01d08:	43c01d7c 	bicmi	r1, r0, #124, 26	; 0x1f00
43c01d0c:	43c01d88 	bicmi	r1, r0, #136, 26	; 0x2200
43c01d10:	43c01d94 	bicmi	r1, r0, #148, 26	; 0x2500
43c01d14:	43c01da0 	bicmi	r1, r0, #160, 26	; 0x2800
43c01d18:	43c01dac 	bicmi	r1, r0, #172, 26	; 0x2b00
43c01d1c:	43c01dc0 	bicmi	r1, r0, #192, 26	; 0x3000
	{
		//电压 与 命令 有冲突
		case COMMAND_INIT:
			//三色灯闪烁
			led_change();
43c01d20:	eb000557 	bl	43c03284 <led_change>
			break;
43c01d24:	ea00002b 	b	43c01dd8 <ExecCommandByUart+0x128>
		case COMMAND_REDON:
			//红灯闪烁
			red_led_on();
43c01d28:	eb000534 	bl	43c03200 <red_led_on>
			break;
43c01d2c:	ea000029 	b	43c01dd8 <ExecCommandByUart+0x128>
		case COMMAND_REDOFF:
			//红灯关闭
			hal_red_led_stutes(0);
43c01d30:	e3a00000 	mov	r0, #0
43c01d34:	eb0004ef 	bl	43c030f8 <hal_red_led_stutes>
			break;
43c01d38:	ea000026 	b	43c01dd8 <ExecCommandByUart+0x128>
		case COMMAND_GREENON:
			//绿灯闪烁
			green_led_on();
43c01d3c:	eb00053a 	bl	43c0322c <green_led_on>
			break;
43c01d40:	ea000024 	b	43c01dd8 <ExecCommandByUart+0x128>
		case COMMAND_GREENOFF:
			//绿灯关闭
			hal_green_led_stutes(0);
43c01d44:	e3a00000 	mov	r0, #0
43c01d48:	eb000500 	bl	43c03150 <hal_green_led_stutes>
			break;
43c01d4c:	ea000021 	b	43c01dd8 <ExecCommandByUart+0x128>
		case COMMAND_BLUEON:
			//蓝灯闪烁
			blue_led_on();
43c01d50:	eb000540 	bl	43c03258 <blue_led_on>
			break;
43c01d54:	ea00001f 	b	43c01dd8 <ExecCommandByUart+0x128>
		case COMMAND_BLUEOFF:
			//蓝灯关闭
			hal_blue_led_stutes(0);
43c01d58:	e3a00000 	mov	r0, #0
43c01d5c:	eb000511 	bl	43c031a8 <hal_blue_led_stutes>
			break;
43c01d60:	ea00001c 	b	43c01dd8 <ExecCommandByUart+0x128>
		case COMMAND_PWMON:
			//蜂鸣器叫
			hal_pwm2_on(249,299);//1000HZ
43c01d64:	e3a000f9 	mov	r0, #249	; 0xf9
43c01d68:	e59f10b4 	ldr	r1, [pc, #180]	; 43c01e24 <ExecCommandByUart+0x174>
43c01d6c:	eb00033f 	bl	43c02a70 <hal_pwm2_on>
			break;
43c01d70:	ea000018 	b	43c01dd8 <ExecCommandByUart+0x128>
		case COMMAND_PWMOFF:
			//蜂鸣器不叫
			hal_pwm_off();
43c01d74:	eb000391 	bl	43c02bc0 <hal_pwm_off>
			break;
43c01d78:	ea000016 	b	43c01dd8 <ExecCommandByUart+0x128>
		case COMMAND_CHANGE_LOWDOWN:
			//修改报警低电压下限阀值
			voltage_low_down_adc = CommandValue;
43c01d7c:	e51b3010 	ldr	r3, [fp, #-16]
43c01d80:	e50b3014 	str	r3, [fp, #-20]	; 0xffffffec
			break;
43c01d84:	ea000013 	b	43c01dd8 <ExecCommandByUart+0x128>
		case COMMAND_CHANGE_LOWUP:
			//修改报警低电压上限阀值
			voltage_low_up_adc = CommandValue;
43c01d88:	e51b3010 	ldr	r3, [fp, #-16]
43c01d8c:	e50b3018 	str	r3, [fp, #-24]	; 0xffffffe8
			break;
43c01d90:	ea000010 	b	43c01dd8 <ExecCommandByUart+0x128>
		case COMMAND_CHANGE_HIGHDOWN:
			//修改报警高电压下限阀值
			voltage_high_down_adc = CommandValue;
43c01d94:	e51b3010 	ldr	r3, [fp, #-16]
43c01d98:	e58b3008 	str	r3, [fp, #8]
			break;
43c01d9c:	ea00000d 	b	43c01dd8 <ExecCommandByUart+0x128>
		case COMMAND_CHANGE_HIGHUP:
			//修改报警高电压上限阀值
			voltage_high_up_adc = CommandValue;
43c01da0:	e51b3010 	ldr	r3, [fp, #-16]
43c01da4:	e58b300c 	str	r3, [fp, #12]
			break;
43c01da8:	ea00000a 	b	43c01dd8 <ExecCommandByUart+0x128>
		case COMMAND_NAME_ERROR:
			printf("错误的命令名字\n");
43c01dac:	e59f0074 	ldr	r0, [pc, #116]	; 43c01e28 <ExecCommandByUart+0x178>
43c01db0:	ebfffdce 	bl	43c014f0 <printf>
			delay_ms(5000);
43c01db4:	e59f0070 	ldr	r0, [pc, #112]	; 43c01e2c <ExecCommandByUart+0x17c>
43c01db8:	eb000478 	bl	43c02fa0 <delay_ms>
			break;
43c01dbc:	ea000005 	b	43c01dd8 <ExecCommandByUart+0x128>
		case COMMAND_VALUE_ERROR:
			printf("错误的命令参数\n");
43c01dc0:	e59f0068 	ldr	r0, [pc, #104]	; 43c01e30 <ExecCommandByUart+0x180>
43c01dc4:	ebfffdc9 	bl	43c014f0 <printf>
			delay_ms(5000);
43c01dc8:	e59f005c 	ldr	r0, [pc, #92]	; 43c01e2c <ExecCommandByUart+0x17c>
43c01dcc:	eb000473 	bl	43c02fa0 <delay_ms>
			break;
43c01dd0:	ea000000 	b	43c01dd8 <ExecCommandByUart+0x128>
		default:
			break;
43c01dd4:	e1a00000 	nop			; (mov r0, r0)
	}

	if((command_num>=COMMAND_CHANGE_LOWDOWN)&&(command_num<=COMMAND_CHANGE_HIGHUP))
43c01dd8:	e51b300c 	ldr	r3, [fp, #-12]
43c01ddc:	e3530008 	cmp	r3, #8
43c01de0:	9a00000d 	bls	43c01e1c <ExecCommandByUart+0x16c>
43c01de4:	e51b300c 	ldr	r3, [fp, #-12]
43c01de8:	e353000c 	cmp	r3, #12
43c01dec:	8a00000a 	bhi	43c01e1c <ExecCommandByUart+0x16c>
	{
		voltage_adc = get_adc_value();
43c01df0:	eb0005a1 	bl	43c0347c <get_adc_value>
43c01df4:	e50b0008 	str	r0, [fp, #-8]
		//调用电压检测函数
		voltage_control(voltage_adc,voltage_low_down_adc,voltage_low_up_adc,voltage_middle_adc,voltage_high_down_adc,voltage_high_up_adc);   
43c01df8:	e59b3008 	ldr	r3, [fp, #8]
43c01dfc:	e58d3000 	str	r3, [sp]
43c01e00:	e59b300c 	ldr	r3, [fp, #12]
43c01e04:	e58d3004 	str	r3, [sp, #4]
43c01e08:	e51b0008 	ldr	r0, [fp, #-8]
43c01e0c:	e51b1014 	ldr	r1, [fp, #-20]	; 0xffffffec
43c01e10:	e51b2018 	ldr	r2, [fp, #-24]	; 0xffffffe8
43c01e14:	e59b3004 	ldr	r3, [fp, #4]
43c01e18:	eb0005e6 	bl	43c035b8 <voltage_control>
	}


}
43c01e1c:	e24bd004 	sub	sp, fp, #4
43c01e20:	e8bd8800 	pop	{fp, pc}
43c01e24:	0000012b 	andeq	r0, r0, fp, lsr #2
43c01e28:	43c039f4 	bicmi	r3, r0, #244, 18	; 0x3d0000
43c01e2c:	00001388 	andeq	r1, r0, r8, lsl #7
43c01e30:	43c03a0c 	bicmi	r3, r0, #12, 20	; 0xc000

43c01e34 <getCommandNameByUart>:

char* getCommandNameByUart(char *buffer_uart)//分离命令 得到命令名
{
43c01e34:	e52db004 	push	{fp}		; (str fp, [sp, #-4]!)
43c01e38:	e28db000 	add	fp, sp, #0
43c01e3c:	e24dd048 	sub	sp, sp, #72	; 0x48
43c01e40:	e50b0048 	str	r0, [fp, #-72]	; 0xffffffb8
	char *ptr = buffer_uart;                                              
43c01e44:	e51b3048 	ldr	r3, [fp, #-72]	; 0xffffffb8
43c01e48:	e50b3004 	str	r3, [fp, #-4]
	char CommandName[50]={0};
43c01e4c:	e24b3044 	sub	r3, fp, #68	; 0x44
43c01e50:	e3a02000 	mov	r2, #0
43c01e54:	e5832000 	str	r2, [r3]
43c01e58:	e2833004 	add	r3, r3, #4
43c01e5c:	e3a02000 	mov	r2, #0
43c01e60:	e5832000 	str	r2, [r3]
43c01e64:	e2833004 	add	r3, r3, #4
43c01e68:	e3a02000 	mov	r2, #0
43c01e6c:	e5832000 	str	r2, [r3]
43c01e70:	e2833004 	add	r3, r3, #4
43c01e74:	e3a02000 	mov	r2, #0
43c01e78:	e5832000 	str	r2, [r3]
43c01e7c:	e2833004 	add	r3, r3, #4
43c01e80:	e3a02000 	mov	r2, #0
43c01e84:	e5832000 	str	r2, [r3]
43c01e88:	e2833004 	add	r3, r3, #4
43c01e8c:	e3a02000 	mov	r2, #0
43c01e90:	e5832000 	str	r2, [r3]
43c01e94:	e2833004 	add	r3, r3, #4
43c01e98:	e3a02000 	mov	r2, #0
43c01e9c:	e5832000 	str	r2, [r3]
43c01ea0:	e2833004 	add	r3, r3, #4
43c01ea4:	e3a02000 	mov	r2, #0
43c01ea8:	e5832000 	str	r2, [r3]
43c01eac:	e2833004 	add	r3, r3, #4
43c01eb0:	e3a02000 	mov	r2, #0
43c01eb4:	e5832000 	str	r2, [r3]
43c01eb8:	e2833004 	add	r3, r3, #4
43c01ebc:	e3a02000 	mov	r2, #0
43c01ec0:	e5832000 	str	r2, [r3]
43c01ec4:	e2833004 	add	r3, r3, #4
43c01ec8:	e3a02000 	mov	r2, #0
43c01ecc:	e5832000 	str	r2, [r3]
43c01ed0:	e2833004 	add	r3, r3, #4
43c01ed4:	e3a02000 	mov	r2, #0
43c01ed8:	e5832000 	str	r2, [r3]
43c01edc:	e2833004 	add	r3, r3, #4
43c01ee0:	e3a02000 	mov	r2, #0
43c01ee4:	e1c320b0 	strh	r2, [r3]
43c01ee8:	e2833002 	add	r3, r3, #2
	int i=0;
43c01eec:	e3a03000 	mov	r3, #0
43c01ef0:	e50b3008 	str	r3, [fp, #-8]
	int count_blank = 0;
43c01ef4:	e3a03000 	mov	r3, #0
43c01ef8:	e50b300c 	str	r3, [fp, #-12]
	while(*ptr!='\0')
43c01efc:	ea000023 	b	43c01f90 <getCommandNameByUart+0x15c>
	{
		if(count_blank>=2)
43c01f00:	e51b300c 	ldr	r3, [fp, #-12]
43c01f04:	e3530001 	cmp	r3, #1
43c01f08:	ca000025 	bgt	43c01fa4 <getCommandNameByUart+0x170>
		{
			break;
		}
		else
		{
			CommandName[i] = *ptr;
43c01f0c:	e51b3004 	ldr	r3, [fp, #-4]
43c01f10:	e5d32000 	ldrb	r2, [r3]
43c01f14:	e3e03043 	mvn	r3, #67	; 0x43
43c01f18:	e51b1008 	ldr	r1, [fp, #-8]
43c01f1c:	e08b1001 	add	r1, fp, r1
43c01f20:	e0813003 	add	r3, r1, r3
43c01f24:	e5c32000 	strb	r2, [r3]
			ptr++;
43c01f28:	e51b3004 	ldr	r3, [fp, #-4]
43c01f2c:	e2833001 	add	r3, r3, #1
43c01f30:	e50b3004 	str	r3, [fp, #-4]
			i++;
43c01f34:	e51b3008 	ldr	r3, [fp, #-8]
43c01f38:	e2833001 	add	r3, r3, #1
43c01f3c:	e50b3008 	str	r3, [fp, #-8]
		}
		if(*ptr == ' ')
43c01f40:	e51b3004 	ldr	r3, [fp, #-4]
43c01f44:	e5d33000 	ldrb	r3, [r3]
43c01f48:	e3530020 	cmp	r3, #32
43c01f4c:	1a00000f 	bne	43c01f90 <getCommandNameByUart+0x15c>
		{
			CommandName[i] = *ptr;
43c01f50:	e51b3004 	ldr	r3, [fp, #-4]
43c01f54:	e5d32000 	ldrb	r2, [r3]
43c01f58:	e3e03043 	mvn	r3, #67	; 0x43
43c01f5c:	e51b1008 	ldr	r1, [fp, #-8]
43c01f60:	e08b1001 	add	r1, fp, r1
43c01f64:	e0813003 	add	r3, r1, r3
43c01f68:	e5c32000 	strb	r2, [r3]
			ptr++;
43c01f6c:	e51b3004 	ldr	r3, [fp, #-4]
43c01f70:	e2833001 	add	r3, r3, #1
43c01f74:	e50b3004 	str	r3, [fp, #-4]
			i++;
43c01f78:	e51b3008 	ldr	r3, [fp, #-8]
43c01f7c:	e2833001 	add	r3, r3, #1
43c01f80:	e50b3008 	str	r3, [fp, #-8]
			count_blank++;
43c01f84:	e51b300c 	ldr	r3, [fp, #-12]
43c01f88:	e2833001 	add	r3, r3, #1
43c01f8c:	e50b300c 	str	r3, [fp, #-12]
{
	char *ptr = buffer_uart;                                              
	char CommandName[50]={0};
	int i=0;
	int count_blank = 0;
	while(*ptr!='\0')
43c01f90:	e51b3004 	ldr	r3, [fp, #-4]
43c01f94:	e5d33000 	ldrb	r3, [r3]
43c01f98:	e3530000 	cmp	r3, #0
43c01f9c:	1affffd7 	bne	43c01f00 <getCommandNameByUart+0xcc>
43c01fa0:	ea000000 	b	43c01fa8 <getCommandNameByUart+0x174>
	{
		if(count_blank>=2)
		{
			break;
43c01fa4:	e1a00000 	nop			; (mov r0, r0)
			i++;
			count_blank++;
		}
	}

	char *ptr_CommandName = CommandName;
43c01fa8:	e24b3044 	sub	r3, fp, #68	; 0x44
43c01fac:	e50b3010 	str	r3, [fp, #-16]

	return ptr_CommandName;
43c01fb0:	e51b3010 	ldr	r3, [fp, #-16]
}
43c01fb4:	e1a00003 	mov	r0, r3
43c01fb8:	e28bd000 	add	sp, fp, #0
43c01fbc:	e49db004 	pop	{fp}		; (ldr fp, [sp], #4)
43c01fc0:	e12fff1e 	bx	lr

43c01fc4 <getCommandValueByUart>:

char* getCommandValueByUart(char *buffer_uart)//分离命令 得到参数数值
{
43c01fc4:	e52db004 	push	{fp}		; (str fp, [sp, #-4]!)
43c01fc8:	e28db000 	add	fp, sp, #0
43c01fcc:	e24dd028 	sub	sp, sp, #40	; 0x28
43c01fd0:	e50b0028 	str	r0, [fp, #-40]	; 0xffffffd8
	char *ptr = buffer_uart;                                              
43c01fd4:	e51b3028 	ldr	r3, [fp, #-40]	; 0xffffffd8
43c01fd8:	e50b3004 	str	r3, [fp, #-4]
	char CommandValue[20]={0};
43c01fdc:	e24b3024 	sub	r3, fp, #36	; 0x24
43c01fe0:	e3a02000 	mov	r2, #0
43c01fe4:	e5832000 	str	r2, [r3]
43c01fe8:	e2833004 	add	r3, r3, #4
43c01fec:	e3a02000 	mov	r2, #0
43c01ff0:	e5832000 	str	r2, [r3]
43c01ff4:	e2833004 	add	r3, r3, #4
43c01ff8:	e3a02000 	mov	r2, #0
43c01ffc:	e5832000 	str	r2, [r3]
43c02000:	e2833004 	add	r3, r3, #4
43c02004:	e3a02000 	mov	r2, #0
43c02008:	e5832000 	str	r2, [r3]
43c0200c:	e2833004 	add	r3, r3, #4
43c02010:	e3a02000 	mov	r2, #0
43c02014:	e5832000 	str	r2, [r3]
43c02018:	e2833004 	add	r3, r3, #4
	int i=0;
43c0201c:	e3a03000 	mov	r3, #0
43c02020:	e50b3008 	str	r3, [fp, #-8]
	int count_blank = 0;
43c02024:	e3a03000 	mov	r3, #0
43c02028:	e50b300c 	str	r3, [fp, #-12]

	while(*ptr!='\0')
43c0202c:	ea000028 	b	43c020d4 <getCommandValueByUart+0x110>
	{
		if(count_blank>=2)
43c02030:	e51b300c 	ldr	r3, [fp, #-12]
43c02034:	e3530001 	cmp	r3, #1
43c02038:	da00000d 	ble	43c02074 <getCommandValueByUart+0xb0>
		{
			CommandValue[i] = *ptr;
43c0203c:	e51b3004 	ldr	r3, [fp, #-4]
43c02040:	e5d32000 	ldrb	r2, [r3]
43c02044:	e3e03023 	mvn	r3, #35	; 0x23
43c02048:	e51b1008 	ldr	r1, [fp, #-8]
43c0204c:	e08b1001 	add	r1, fp, r1
43c02050:	e0813003 	add	r3, r1, r3
43c02054:	e5c32000 	strb	r2, [r3]
			ptr++;
43c02058:	e51b3004 	ldr	r3, [fp, #-4]
43c0205c:	e2833001 	add	r3, r3, #1
43c02060:	e50b3004 	str	r3, [fp, #-4]
			i++;
43c02064:	e51b3008 	ldr	r3, [fp, #-8]
43c02068:	e2833001 	add	r3, r3, #1
43c0206c:	e50b3008 	str	r3, [fp, #-8]
43c02070:	ea000005 	b	43c0208c <getCommandValueByUart+0xc8>
		}
		else
		{
			ptr++;
43c02074:	e51b3004 	ldr	r3, [fp, #-4]
43c02078:	e2833001 	add	r3, r3, #1
43c0207c:	e50b3004 	str	r3, [fp, #-4]
			i++;
43c02080:	e51b3008 	ldr	r3, [fp, #-8]
43c02084:	e2833001 	add	r3, r3, #1
43c02088:	e50b3008 	str	r3, [fp, #-8]
		}
		if(*ptr == ' ')
43c0208c:	e51b3004 	ldr	r3, [fp, #-4]
43c02090:	e5d33000 	ldrb	r3, [r3]
43c02094:	e3530020 	cmp	r3, #32
43c02098:	1a00000d 	bne	43c020d4 <getCommandValueByUart+0x110>
		{
			ptr++;
43c0209c:	e51b3004 	ldr	r3, [fp, #-4]
43c020a0:	e2833001 	add	r3, r3, #1
43c020a4:	e50b3004 	str	r3, [fp, #-4]
			i++;
43c020a8:	e51b3008 	ldr	r3, [fp, #-8]
43c020ac:	e2833001 	add	r3, r3, #1
43c020b0:	e50b3008 	str	r3, [fp, #-8]
			count_blank++;
43c020b4:	e51b300c 	ldr	r3, [fp, #-12]
43c020b8:	e2833001 	add	r3, r3, #1
43c020bc:	e50b300c 	str	r3, [fp, #-12]
			if(count_blank>=2)
43c020c0:	e51b300c 	ldr	r3, [fp, #-12]
43c020c4:	e3530001 	cmp	r3, #1
43c020c8:	da000001 	ble	43c020d4 <getCommandValueByUart+0x110>
				i=0;
43c020cc:	e3a03000 	mov	r3, #0
43c020d0:	e50b3008 	str	r3, [fp, #-8]
	char *ptr = buffer_uart;                                              
	char CommandValue[20]={0};
	int i=0;
	int count_blank = 0;

	while(*ptr!='\0')
43c020d4:	e51b3004 	ldr	r3, [fp, #-4]
43c020d8:	e5d33000 	ldrb	r3, [r3]
43c020dc:	e3530000 	cmp	r3, #0
43c020e0:	1affffd2 	bne	43c02030 <getCommandValueByUart+0x6c>
			if(count_blank>=2)
				i=0;
		}
	}

	char *ptr_CommandValue = CommandValue;
43c020e4:	e24b3024 	sub	r3, fp, #36	; 0x24
43c020e8:	e50b3010 	str	r3, [fp, #-16]

	return ptr_CommandValue;
43c020ec:	e51b3010 	ldr	r3, [fp, #-16]
}
43c020f0:	e1a00003 	mov	r0, r3
43c020f4:	e28bd000 	add	sp, fp, #0
43c020f8:	e49db004 	pop	{fp}		; (ldr fp, [sp], #4)
43c020fc:	e12fff1e 	bx	lr

43c02100 <getCommandNumByUart>:

//根据命令名字得到命令编号
int  getCommandNumByUart(char *CommandName,int command_num)
{
43c02100:	e92d4800 	push	{fp, lr}
43c02104:	e28db004 	add	fp, sp, #4
43c02108:	e24dd008 	sub	sp, sp, #8
43c0210c:	e50b0008 	str	r0, [fp, #-8]
43c02110:	e50b100c 	str	r1, [fp, #-12]
	if((StringCmp(CommandName,"REDON")) || (StringCmp(CommandName,"redon")) )
43c02114:	e51b0008 	ldr	r0, [fp, #-8]
43c02118:	e59f1300 	ldr	r1, [pc, #768]	; 43c02420 <getCommandNumByUart+0x320>
43c0211c:	ebfffeb6 	bl	43c01bfc <StringCmp>
43c02120:	e1a03000 	mov	r3, r0
43c02124:	e3530000 	cmp	r3, #0
43c02128:	1a000005 	bne	43c02144 <getCommandNumByUart+0x44>
43c0212c:	e51b0008 	ldr	r0, [fp, #-8]
43c02130:	e59f12ec 	ldr	r1, [pc, #748]	; 43c02424 <getCommandNumByUart+0x324>
43c02134:	ebfffeb0 	bl	43c01bfc <StringCmp>
43c02138:	e1a03000 	mov	r3, r0
43c0213c:	e3530000 	cmp	r3, #0
43c02140:	0a000002 	beq	43c02150 <getCommandNumByUart+0x50>
	{
		command_num = 1;
43c02144:	e3a03001 	mov	r3, #1
43c02148:	e50b300c 	str	r3, [fp, #-12]
43c0214c:	ea0000af 	b	43c02410 <getCommandNumByUart+0x310>
	}
	else if((StringCmp(CommandName,"REDOFF")) || (StringCmp(CommandName,"redoff")) )
43c02150:	e51b0008 	ldr	r0, [fp, #-8]
43c02154:	e59f12cc 	ldr	r1, [pc, #716]	; 43c02428 <getCommandNumByUart+0x328>
43c02158:	ebfffea7 	bl	43c01bfc <StringCmp>
43c0215c:	e1a03000 	mov	r3, r0
43c02160:	e3530000 	cmp	r3, #0
43c02164:	1a000005 	bne	43c02180 <getCommandNumByUart+0x80>
43c02168:	e51b0008 	ldr	r0, [fp, #-8]
43c0216c:	e59f12b8 	ldr	r1, [pc, #696]	; 43c0242c <getCommandNumByUart+0x32c>
43c02170:	ebfffea1 	bl	43c01bfc <StringCmp>
43c02174:	e1a03000 	mov	r3, r0
43c02178:	e3530000 	cmp	r3, #0
43c0217c:	0a000005 	beq	43c02198 <getCommandNumByUart+0x98>
	{
		if((command_num == 1))//红灯亮
43c02180:	e51b300c 	ldr	r3, [fp, #-12]
43c02184:	e3530001 	cmp	r3, #1
43c02188:	1a0000a0 	bne	43c02410 <getCommandNumByUart+0x310>
			command_num = 2;
43c0218c:	e3a03002 	mov	r3, #2
43c02190:	e50b300c 	str	r3, [fp, #-12]
	{
		command_num = 1;
	}
	else if((StringCmp(CommandName,"REDOFF")) || (StringCmp(CommandName,"redoff")) )
	{
		if((command_num == 1))//红灯亮
43c02194:	ea00009d 	b	43c02410 <getCommandNumByUart+0x310>
			command_num = 2;
	}
	else if((StringCmp(CommandName,"GREENON")) || (StringCmp(CommandName,"greenon")) )
43c02198:	e51b0008 	ldr	r0, [fp, #-8]
43c0219c:	e59f128c 	ldr	r1, [pc, #652]	; 43c02430 <getCommandNumByUart+0x330>
43c021a0:	ebfffe95 	bl	43c01bfc <StringCmp>
43c021a4:	e1a03000 	mov	r3, r0
43c021a8:	e3530000 	cmp	r3, #0
43c021ac:	1a000005 	bne	43c021c8 <getCommandNumByUart+0xc8>
43c021b0:	e51b0008 	ldr	r0, [fp, #-8]
43c021b4:	e59f1278 	ldr	r1, [pc, #632]	; 43c02434 <getCommandNumByUart+0x334>
43c021b8:	ebfffe8f 	bl	43c01bfc <StringCmp>
43c021bc:	e1a03000 	mov	r3, r0
43c021c0:	e3530000 	cmp	r3, #0
43c021c4:	0a000002 	beq	43c021d4 <getCommandNumByUart+0xd4>
	{
		command_num = 3;
43c021c8:	e3a03003 	mov	r3, #3
43c021cc:	e50b300c 	str	r3, [fp, #-12]
43c021d0:	ea00008e 	b	43c02410 <getCommandNumByUart+0x310>
	}
	else if((StringCmp(CommandName,"GREENOFF")) || (StringCmp(CommandName,"greenoff")) )
43c021d4:	e51b0008 	ldr	r0, [fp, #-8]
43c021d8:	e59f1258 	ldr	r1, [pc, #600]	; 43c02438 <getCommandNumByUart+0x338>
43c021dc:	ebfffe86 	bl	43c01bfc <StringCmp>
43c021e0:	e1a03000 	mov	r3, r0
43c021e4:	e3530000 	cmp	r3, #0
43c021e8:	1a000005 	bne	43c02204 <getCommandNumByUart+0x104>
43c021ec:	e51b0008 	ldr	r0, [fp, #-8]
43c021f0:	e59f1244 	ldr	r1, [pc, #580]	; 43c0243c <getCommandNumByUart+0x33c>
43c021f4:	ebfffe80 	bl	43c01bfc <StringCmp>
43c021f8:	e1a03000 	mov	r3, r0
43c021fc:	e3530000 	cmp	r3, #0
43c02200:	0a000005 	beq	43c0221c <getCommandNumByUart+0x11c>
	{
		if(command_num == 3)//绿灯亮
43c02204:	e51b300c 	ldr	r3, [fp, #-12]
43c02208:	e3530003 	cmp	r3, #3
43c0220c:	1a00007f 	bne	43c02410 <getCommandNumByUart+0x310>
			command_num = 4;
43c02210:	e3a03004 	mov	r3, #4
43c02214:	e50b300c 	str	r3, [fp, #-12]
	{
		command_num = 3;
	}
	else if((StringCmp(CommandName,"GREENOFF")) || (StringCmp(CommandName,"greenoff")) )
	{
		if(command_num == 3)//绿灯亮
43c02218:	ea00007c 	b	43c02410 <getCommandNumByUart+0x310>
			command_num = 4;
	}
	else if((StringCmp(CommandName,"BLUEON")) || (StringCmp(CommandName,"blueon")) )
43c0221c:	e51b0008 	ldr	r0, [fp, #-8]
43c02220:	e59f1218 	ldr	r1, [pc, #536]	; 43c02440 <getCommandNumByUart+0x340>
43c02224:	ebfffe74 	bl	43c01bfc <StringCmp>
43c02228:	e1a03000 	mov	r3, r0
43c0222c:	e3530000 	cmp	r3, #0
43c02230:	1a000005 	bne	43c0224c <getCommandNumByUart+0x14c>
43c02234:	e51b0008 	ldr	r0, [fp, #-8]
43c02238:	e59f1204 	ldr	r1, [pc, #516]	; 43c02444 <getCommandNumByUart+0x344>
43c0223c:	ebfffe6e 	bl	43c01bfc <StringCmp>
43c02240:	e1a03000 	mov	r3, r0
43c02244:	e3530000 	cmp	r3, #0
43c02248:	0a000002 	beq	43c02258 <getCommandNumByUart+0x158>
	{
		command_num = 5;
43c0224c:	e3a03005 	mov	r3, #5
43c02250:	e50b300c 	str	r3, [fp, #-12]
43c02254:	ea00006d 	b	43c02410 <getCommandNumByUart+0x310>
	}
	else if((StringCmp(CommandName,"BLUEOFF")) || (StringCmp(CommandName,"blueoff")) )
43c02258:	e51b0008 	ldr	r0, [fp, #-8]
43c0225c:	e59f11e4 	ldr	r1, [pc, #484]	; 43c02448 <getCommandNumByUart+0x348>
43c02260:	ebfffe65 	bl	43c01bfc <StringCmp>
43c02264:	e1a03000 	mov	r3, r0
43c02268:	e3530000 	cmp	r3, #0
43c0226c:	1a000005 	bne	43c02288 <getCommandNumByUart+0x188>
43c02270:	e51b0008 	ldr	r0, [fp, #-8]
43c02274:	e59f11d0 	ldr	r1, [pc, #464]	; 43c0244c <getCommandNumByUart+0x34c>
43c02278:	ebfffe5f 	bl	43c01bfc <StringCmp>
43c0227c:	e1a03000 	mov	r3, r0
43c02280:	e3530000 	cmp	r3, #0
43c02284:	0a000005 	beq	43c022a0 <getCommandNumByUart+0x1a0>
	{
		if(command_num == 5)//蓝灯亮
43c02288:	e51b300c 	ldr	r3, [fp, #-12]
43c0228c:	e3530005 	cmp	r3, #5
43c02290:	1a00005e 	bne	43c02410 <getCommandNumByUart+0x310>
			command_num = 6;
43c02294:	e3a03006 	mov	r3, #6
43c02298:	e50b300c 	str	r3, [fp, #-12]
	{
		command_num = 5;
	}
	else if((StringCmp(CommandName,"BLUEOFF")) || (StringCmp(CommandName,"blueoff")) )
	{
		if(command_num == 5)//蓝灯亮
43c0229c:	ea00005b 	b	43c02410 <getCommandNumByUart+0x310>
			command_num = 6;
	}
	else if((StringCmp(CommandName,"PWMON")) || (StringCmp(CommandName,"pwmon")))
43c022a0:	e51b0008 	ldr	r0, [fp, #-8]
43c022a4:	e59f11a4 	ldr	r1, [pc, #420]	; 43c02450 <getCommandNumByUart+0x350>
43c022a8:	ebfffe53 	bl	43c01bfc <StringCmp>
43c022ac:	e1a03000 	mov	r3, r0
43c022b0:	e3530000 	cmp	r3, #0
43c022b4:	1a000005 	bne	43c022d0 <getCommandNumByUart+0x1d0>
43c022b8:	e51b0008 	ldr	r0, [fp, #-8]
43c022bc:	e59f1190 	ldr	r1, [pc, #400]	; 43c02454 <getCommandNumByUart+0x354>
43c022c0:	ebfffe4d 	bl	43c01bfc <StringCmp>
43c022c4:	e1a03000 	mov	r3, r0
43c022c8:	e3530000 	cmp	r3, #0
43c022cc:	0a000002 	beq	43c022dc <getCommandNumByUart+0x1dc>
	{
		command_num = 7;
43c022d0:	e3a03007 	mov	r3, #7
43c022d4:	e50b300c 	str	r3, [fp, #-12]
43c022d8:	ea00004c 	b	43c02410 <getCommandNumByUart+0x310>
	}
	else if((StringCmp(CommandName,"PWMOFF")) || (StringCmp(CommandName,"pwmoff")))
43c022dc:	e51b0008 	ldr	r0, [fp, #-8]
43c022e0:	e59f1170 	ldr	r1, [pc, #368]	; 43c02458 <getCommandNumByUart+0x358>
43c022e4:	ebfffe44 	bl	43c01bfc <StringCmp>
43c022e8:	e1a03000 	mov	r3, r0
43c022ec:	e3530000 	cmp	r3, #0
43c022f0:	1a000005 	bne	43c0230c <getCommandNumByUart+0x20c>
43c022f4:	e51b0008 	ldr	r0, [fp, #-8]
43c022f8:	e59f115c 	ldr	r1, [pc, #348]	; 43c0245c <getCommandNumByUart+0x35c>
43c022fc:	ebfffe3e 	bl	43c01bfc <StringCmp>
43c02300:	e1a03000 	mov	r3, r0
43c02304:	e3530000 	cmp	r3, #0
43c02308:	0a000002 	beq	43c02318 <getCommandNumByUart+0x218>
	{
		command_num = 8;
43c0230c:	e3a03008 	mov	r3, #8
43c02310:	e50b300c 	str	r3, [fp, #-12]
43c02314:	ea00003d 	b	43c02410 <getCommandNumByUart+0x310>
	}
	else if((StringCmp(CommandName,"CHANGEVOLTAGE LOWDOWN ")) || (StringCmp(CommandName,"changevoltage lowdown ")))
43c02318:	e51b0008 	ldr	r0, [fp, #-8]
43c0231c:	e59f113c 	ldr	r1, [pc, #316]	; 43c02460 <getCommandNumByUart+0x360>
43c02320:	ebfffe35 	bl	43c01bfc <StringCmp>
43c02324:	e1a03000 	mov	r3, r0
43c02328:	e3530000 	cmp	r3, #0
43c0232c:	1a000005 	bne	43c02348 <getCommandNumByUart+0x248>
43c02330:	e51b0008 	ldr	r0, [fp, #-8]
43c02334:	e59f1128 	ldr	r1, [pc, #296]	; 43c02464 <getCommandNumByUart+0x364>
43c02338:	ebfffe2f 	bl	43c01bfc <StringCmp>
43c0233c:	e1a03000 	mov	r3, r0
43c02340:	e3530000 	cmp	r3, #0
43c02344:	0a000002 	beq	43c02354 <getCommandNumByUart+0x254>
	{
		command_num = 9;
43c02348:	e3a03009 	mov	r3, #9
43c0234c:	e50b300c 	str	r3, [fp, #-12]
43c02350:	ea00002e 	b	43c02410 <getCommandNumByUart+0x310>
	}
	else if((StringCmp(CommandName,"CHANGEVOLTAGE LOWUP ")) || (StringCmp(CommandName,"changevoltage lowup ")))
43c02354:	e51b0008 	ldr	r0, [fp, #-8]
43c02358:	e59f1108 	ldr	r1, [pc, #264]	; 43c02468 <getCommandNumByUart+0x368>
43c0235c:	ebfffe26 	bl	43c01bfc <StringCmp>
43c02360:	e1a03000 	mov	r3, r0
43c02364:	e3530000 	cmp	r3, #0
43c02368:	1a000005 	bne	43c02384 <getCommandNumByUart+0x284>
43c0236c:	e51b0008 	ldr	r0, [fp, #-8]
43c02370:	e59f10f4 	ldr	r1, [pc, #244]	; 43c0246c <getCommandNumByUart+0x36c>
43c02374:	ebfffe20 	bl	43c01bfc <StringCmp>
43c02378:	e1a03000 	mov	r3, r0
43c0237c:	e3530000 	cmp	r3, #0
43c02380:	0a000002 	beq	43c02390 <getCommandNumByUart+0x290>
	{
		command_num = 10;
43c02384:	e3a0300a 	mov	r3, #10
43c02388:	e50b300c 	str	r3, [fp, #-12]
43c0238c:	ea00001f 	b	43c02410 <getCommandNumByUart+0x310>
	}
	else if((StringCmp(CommandName,"CHANGEVOLTAGE HIGHDOWN ")) || (StringCmp(CommandName,"changevoltage highdown ")))
43c02390:	e51b0008 	ldr	r0, [fp, #-8]
43c02394:	e59f10d4 	ldr	r1, [pc, #212]	; 43c02470 <getCommandNumByUart+0x370>
43c02398:	ebfffe17 	bl	43c01bfc <StringCmp>
43c0239c:	e1a03000 	mov	r3, r0
43c023a0:	e3530000 	cmp	r3, #0
43c023a4:	1a000005 	bne	43c023c0 <getCommandNumByUart+0x2c0>
43c023a8:	e51b0008 	ldr	r0, [fp, #-8]
43c023ac:	e59f10c0 	ldr	r1, [pc, #192]	; 43c02474 <getCommandNumByUart+0x374>
43c023b0:	ebfffe11 	bl	43c01bfc <StringCmp>
43c023b4:	e1a03000 	mov	r3, r0
43c023b8:	e3530000 	cmp	r3, #0
43c023bc:	0a000002 	beq	43c023cc <getCommandNumByUart+0x2cc>
	{
		command_num = 11;
43c023c0:	e3a0300b 	mov	r3, #11
43c023c4:	e50b300c 	str	r3, [fp, #-12]
43c023c8:	ea000010 	b	43c02410 <getCommandNumByUart+0x310>
	}
	else if((StringCmp(CommandName,"CHANGEVOLTAGE HIGHUP ")) || (StringCmp(CommandName,"changevoltage highup ")))
43c023cc:	e51b0008 	ldr	r0, [fp, #-8]
43c023d0:	e59f10a0 	ldr	r1, [pc, #160]	; 43c02478 <getCommandNumByUart+0x378>
43c023d4:	ebfffe08 	bl	43c01bfc <StringCmp>
43c023d8:	e1a03000 	mov	r3, r0
43c023dc:	e3530000 	cmp	r3, #0
43c023e0:	1a000005 	bne	43c023fc <getCommandNumByUart+0x2fc>
43c023e4:	e51b0008 	ldr	r0, [fp, #-8]
43c023e8:	e59f108c 	ldr	r1, [pc, #140]	; 43c0247c <getCommandNumByUart+0x37c>
43c023ec:	ebfffe02 	bl	43c01bfc <StringCmp>
43c023f0:	e1a03000 	mov	r3, r0
43c023f4:	e3530000 	cmp	r3, #0
43c023f8:	0a000002 	beq	43c02408 <getCommandNumByUart+0x308>
	{
		command_num = 12;
43c023fc:	e3a0300c 	mov	r3, #12
43c02400:	e50b300c 	str	r3, [fp, #-12]
43c02404:	ea000001 	b	43c02410 <getCommandNumByUart+0x310>
	}
	else//命令错误
	{
		command_num = 13;
43c02408:	e3a0300d 	mov	r3, #13
43c0240c:	e50b300c 	str	r3, [fp, #-12]
	}

	return command_num;
43c02410:	e51b300c 	ldr	r3, [fp, #-12]

}
43c02414:	e1a00003 	mov	r0, r3
43c02418:	e24bd004 	sub	sp, fp, #4
43c0241c:	e8bd8800 	pop	{fp, pc}
43c02420:	43c03a24 	bicmi	r3, r0, #36, 20	; 0x24000
43c02424:	43c03a2c 	bicmi	r3, r0, #44, 20	; 0x2c000
43c02428:	43c03a34 	bicmi	r3, r0, #52, 20	; 0x34000
43c0242c:	43c03a3c 	bicmi	r3, r0, #60, 20	; 0x3c000
43c02430:	43c03a44 	bicmi	r3, r0, #68, 20	; 0x44000
43c02434:	43c03a4c 	bicmi	r3, r0, #76, 20	; 0x4c000
43c02438:	43c03a54 	bicmi	r3, r0, #84, 20	; 0x54000
43c0243c:	43c03a60 	bicmi	r3, r0, #96, 20	; 0x60000
43c02440:	43c03a6c 	bicmi	r3, r0, #108, 20	; 0x6c000
43c02444:	43c03a74 	bicmi	r3, r0, #116, 20	; 0x74000
43c02448:	43c03a7c 	bicmi	r3, r0, #124, 20	; 0x7c000
43c0244c:	43c03a84 	bicmi	r3, r0, #132, 20	; 0x84000
43c02450:	43c03a8c 	bicmi	r3, r0, #140, 20	; 0x8c000
43c02454:	43c03a94 	bicmi	r3, r0, #148, 20	; 0x94000
43c02458:	43c03a9c 	bicmi	r3, r0, #156, 20	; 0x9c000
43c0245c:	43c03aa4 	bicmi	r3, r0, #164, 20	; 0xa4000
43c02460:	43c03aac 	bicmi	r3, r0, #172, 20	; 0xac000
43c02464:	43c03ac4 	bicmi	r3, r0, #196, 20	; 0xc4000
43c02468:	43c03adc 	bicmi	r3, r0, #220, 20	; 0xdc000
43c0246c:	43c03af4 	bicmi	r3, r0, #244, 20	; 0xf4000
43c02470:	43c03b0c 	bicmi	r3, r0, #12, 22	; 0x3000
43c02474:	43c03b24 	bicmi	r3, r0, #36, 22	; 0x9000
43c02478:	43c03b3c 	bicmi	r3, r0, #60, 22	; 0xf000
43c0247c:	43c03b54 	bicmi	r3, r0, #84, 22	; 0x15000

43c02480 <mystrcpy>:


char* mystrcpy(char* strDest,const char* strSrc)
{
43c02480:	e52db004 	push	{fp}		; (str fp, [sp, #-4]!)
43c02484:	e28db000 	add	fp, sp, #0
43c02488:	e24dd00c 	sub	sp, sp, #12
43c0248c:	e50b0008 	str	r0, [fp, #-8]
43c02490:	e50b100c 	str	r1, [fp, #-12]
	char* address = strDest;
43c02494:	e51b3008 	ldr	r3, [fp, #-8]
43c02498:	e50b3004 	str	r3, [fp, #-4]
	while((*strDest++ = *strSrc++)!='\0');
43c0249c:	e1a00000 	nop			; (mov r0, r0)
43c024a0:	e51b300c 	ldr	r3, [fp, #-12]
43c024a4:	e5d32000 	ldrb	r2, [r3]
43c024a8:	e51b3008 	ldr	r3, [fp, #-8]
43c024ac:	e5c32000 	strb	r2, [r3]
43c024b0:	e51b3008 	ldr	r3, [fp, #-8]
43c024b4:	e5d33000 	ldrb	r3, [r3]
43c024b8:	e3530000 	cmp	r3, #0
43c024bc:	03a03000 	moveq	r3, #0
43c024c0:	13a03001 	movne	r3, #1
43c024c4:	e20330ff 	and	r3, r3, #255	; 0xff
43c024c8:	e51b2008 	ldr	r2, [fp, #-8]
43c024cc:	e2822001 	add	r2, r2, #1
43c024d0:	e50b2008 	str	r2, [fp, #-8]
43c024d4:	e51b200c 	ldr	r2, [fp, #-12]
43c024d8:	e2822001 	add	r2, r2, #1
43c024dc:	e50b200c 	str	r2, [fp, #-12]
43c024e0:	e3530000 	cmp	r3, #0
43c024e4:	1affffed 	bne	43c024a0 <mystrcpy+0x20>
	return address;
43c024e8:	e51b3004 	ldr	r3, [fp, #-4]
}
43c024ec:	e1a00003 	mov	r0, r3
43c024f0:	e28bd000 	add	sp, fp, #0
43c024f4:	e49db004 	pop	{fp}		; (ldr fp, [sp], #4)
43c024f8:	e12fff1e 	bx	lr

43c024fc <do_irq>:
// irq类型中断处理程序的入口
#include "s5p6818.h"
#include "delay.h"
#include "adc.h"
void do_irq(void) 
{
43c024fc:	e92d4800 	push	{fp, lr}
43c02500:	e28db004 	add	fp, sp, #4
43c02504:	e24dd004 	sub	sp, sp, #4
	int irq_num;
	// 获取中断号 GICC_IAR[9:0]
	irq_num = GICC_IAR & 0x3FF;	
43c02508:	e59f3288 	ldr	r3, [pc, #648]	; 43c02798 <do_irq+0x29c>
43c0250c:	e5933000 	ldr	r3, [r3]
43c02510:	e1a03b03 	lsl	r3, r3, #22
43c02514:	e1a03b23 	lsr	r3, r3, #22
43c02518:	e50b3008 	str	r3, [fp, #-8]
	switch(irq_num) 
43c0251c:	e51b3008 	ldr	r3, [fp, #-8]
43c02520:	e243303b 	sub	r3, r3, #59	; 0x3b
43c02524:	e353001c 	cmp	r3, #28
43c02528:	979ff103 	ldrls	pc, [pc, r3, lsl #2]
43c0252c:	ea00008f 	b	43c02770 <do_irq+0x274>
43c02530:	43c025a4 	bicmi	r2, r0, #164, 10	; 0x29000000
43c02534:	43c025d8 	bicmi	r2, r0, #216, 10	; 0x36000000
43c02538:	43c0260c 	bicmi	r2, r0, #12, 12	; 0xc00000
43c0253c:	43c02770 	bicmi	r2, r0, #112, 14	; 0x1c00000
43c02540:	43c02770 	bicmi	r2, r0, #112, 14	; 0x1c00000
43c02544:	43c02770 	bicmi	r2, r0, #112, 14	; 0x1c00000
43c02548:	43c02770 	bicmi	r2, r0, #112, 14	; 0x1c00000
43c0254c:	43c02770 	bicmi	r2, r0, #112, 14	; 0x1c00000
43c02550:	43c02770 	bicmi	r2, r0, #112, 14	; 0x1c00000
43c02554:	43c02770 	bicmi	r2, r0, #112, 14	; 0x1c00000
43c02558:	43c02770 	bicmi	r2, r0, #112, 14	; 0x1c00000
43c0255c:	43c02770 	bicmi	r2, r0, #112, 14	; 0x1c00000
43c02560:	43c02770 	bicmi	r2, r0, #112, 14	; 0x1c00000
43c02564:	43c02770 	bicmi	r2, r0, #112, 14	; 0x1c00000
43c02568:	43c02644 	bicmi	r2, r0, #68, 12	; 0x4400000
43c0256c:	43c02770 	bicmi	r2, r0, #112, 14	; 0x1c00000
43c02570:	43c02770 	bicmi	r2, r0, #112, 14	; 0x1c00000
43c02574:	43c02770 	bicmi	r2, r0, #112, 14	; 0x1c00000
43c02578:	43c02770 	bicmi	r2, r0, #112, 14	; 0x1c00000
43c0257c:	43c02770 	bicmi	r2, r0, #112, 14	; 0x1c00000
43c02580:	43c02770 	bicmi	r2, r0, #112, 14	; 0x1c00000
43c02584:	43c02770 	bicmi	r2, r0, #112, 14	; 0x1c00000
43c02588:	43c02770 	bicmi	r2, r0, #112, 14	; 0x1c00000
43c0258c:	43c02770 	bicmi	r2, r0, #112, 14	; 0x1c00000
43c02590:	43c02770 	bicmi	r2, r0, #112, 14	; 0x1c00000
43c02594:	43c02770 	bicmi	r2, r0, #112, 14	; 0x1c00000
43c02598:	43c02770 	bicmi	r2, r0, #112, 14	; 0x1c00000
43c0259c:	43c02678 	bicmi	r2, r0, #120, 12	; 0x7800000
43c025a0:	43c02770 	bicmi	r2, r0, #112, 14	; 0x1c00000
	{
		case 59:
			printf("1s PWM Timer Interrupt!\n");
43c025a4:	e59f01f0 	ldr	r0, [pc, #496]	; 43c0279c <do_irq+0x2a0>
43c025a8:	ebfffbd0 	bl	43c014f0 <printf>
			PWM.TINT_CSTAT |= (1 << 5);
43c025ac:	e59f31ec 	ldr	r3, [pc, #492]	; 43c027a0 <do_irq+0x2a4>
43c025b0:	e59f21e8 	ldr	r2, [pc, #488]	; 43c027a0 <do_irq+0x2a4>
43c025b4:	e5922044 	ldr	r2, [r2, #68]	; 0x44
43c025b8:	e3822020 	orr	r2, r2, #32
43c025bc:	e5832044 	str	r2, [r3, #68]	; 0x44
			GICD_ICPENDER.ICPENDER1 |= (0x1 << 27);
43c025c0:	e59f31dc 	ldr	r3, [pc, #476]	; 43c027a4 <do_irq+0x2a8>
43c025c4:	e59f21d8 	ldr	r2, [pc, #472]	; 43c027a4 <do_irq+0x2a8>
43c025c8:	e5922004 	ldr	r2, [r2, #4]
43c025cc:	e3822302 	orr	r2, r2, #134217728	; 0x8000000
43c025d0:	e5832004 	str	r2, [r3, #4]
			break;
43c025d4:	ea000065 	b	43c02770 <do_irq+0x274>
		case 60://PWM1中断源
			printf("2s PWM Timer Interrupt!\n");
43c025d8:	e59f01c8 	ldr	r0, [pc, #456]	; 43c027a8 <do_irq+0x2ac>
43c025dc:	ebfffbc3 	bl	43c014f0 <printf>
			//清除PWM1层中断挂起标志位  PWM.TINT_CSTAT[6] = 1
			PWM.TINT_CSTAT |= (0x1 << 6);   
43c025e0:	e59f31b8 	ldr	r3, [pc, #440]	; 43c027a0 <do_irq+0x2a4>
43c025e4:	e59f21b4 	ldr	r2, [pc, #436]	; 43c027a0 <do_irq+0x2a4>
43c025e8:	e5922044 	ldr	r2, [r2, #68]	; 0x44
43c025ec:	e3822040 	orr	r2, r2, #64	; 0x40
43c025f0:	e5832044 	str	r2, [r3, #68]	; 0x44
			// 清除GICD层中断挂起标志位 GICD_ICPENDER1[28]
			GICD_ICPENDER.ICPENDER1 |= (0x1 << 28);
43c025f4:	e59f31a8 	ldr	r3, [pc, #424]	; 43c027a4 <do_irq+0x2a8>
43c025f8:	e59f21a4 	ldr	r2, [pc, #420]	; 43c027a4 <do_irq+0x2a8>
43c025fc:	e5922004 	ldr	r2, [r2, #4]
43c02600:	e3822201 	orr	r2, r2, #268435456	; 0x10000000
43c02604:	e5832004 	str	r2, [r3, #4]
			break;
43c02608:	ea000058 	b	43c02770 <do_irq+0x274>
		case 61://PWM2中断源
			printf("KEY Interrupt Number = %d\n",irq_num);
43c0260c:	e59f0198 	ldr	r0, [pc, #408]	; 43c027ac <do_irq+0x2b0>
43c02610:	e51b1008 	ldr	r1, [fp, #-8]
43c02614:	ebfffbb5 	bl	43c014f0 <printf>
			//清除PWM2层中断挂起标志位  PWM.TINT_CSTAT[7] = 1
			PWM.TINT_CSTAT |= (0x1 << 7);   
43c02618:	e59f3180 	ldr	r3, [pc, #384]	; 43c027a0 <do_irq+0x2a4>
43c0261c:	e59f217c 	ldr	r2, [pc, #380]	; 43c027a0 <do_irq+0x2a4>
43c02620:	e5922044 	ldr	r2, [r2, #68]	; 0x44
43c02624:	e3822080 	orr	r2, r2, #128	; 0x80
43c02628:	e5832044 	str	r2, [r3, #68]	; 0x44
			// 清除GICD层中断挂起标志位 GICD_ICPENDER1[28]
			GICD_ICPENDER.ICPENDER1 |= (0x1 << 29);
43c0262c:	e59f3170 	ldr	r3, [pc, #368]	; 43c027a4 <do_irq+0x2a8>
43c02630:	e59f216c 	ldr	r2, [pc, #364]	; 43c027a4 <do_irq+0x2a8>
43c02634:	e5922004 	ldr	r2, [r2, #4]
43c02638:	e3822202 	orr	r2, r2, #536870912	; 0x20000000
43c0263c:	e5832004 	str	r2, [r3, #4]
			break;
43c02640:	ea00004a 	b	43c02770 <do_irq+0x274>
		case 73://ADC中断源
			printf("KEY Interrupt Number = %d\n",irq_num);
43c02644:	e59f0160 	ldr	r0, [pc, #352]	; 43c027ac <do_irq+0x2b0>
43c02648:	e51b1008 	ldr	r1, [fp, #-8]
43c0264c:	ebfffba7 	bl	43c014f0 <printf>
			get_adc_value();//进行ADC转换
43c02650:	eb000389 	bl	43c0347c <get_adc_value>
			//清除ADC层中断挂起标志位  ADCINTCLR[0]
			ADCINTCLR = 0x1;
43c02654:	e59f3154 	ldr	r3, [pc, #340]	; 43c027b0 <do_irq+0x2b4>
43c02658:	e3a02001 	mov	r2, #1
43c0265c:	e5832000 	str	r2, [r3]
			// 清除GICD层中断挂起标志位 GICD_ICPENDER2[9]
			GICD_ICPENDER.ICPENDER2 |= (0x1 << 9);
43c02660:	e59f313c 	ldr	r3, [pc, #316]	; 43c027a4 <do_irq+0x2a8>
43c02664:	e59f2138 	ldr	r2, [pc, #312]	; 43c027a4 <do_irq+0x2a8>
43c02668:	e5922008 	ldr	r2, [r2, #8]
43c0266c:	e3822c02 	orr	r2, r2, #512	; 0x200
43c02670:	e5832008 	str	r2, [r3, #8]
			break;
43c02674:	ea00003d 	b	43c02770 <do_irq+0x274>
		case 86:
			//86号中断处理程序
			//获取终端之后的行为
			printf("KEY Interrupt Number = %d\n",irq_num);
43c02678:	e59f012c 	ldr	r0, [pc, #300]	; 43c027ac <do_irq+0x2b0>
43c0267c:	e51b1008 	ldr	r1, [fp, #-8]
43c02680:	ebfffb9a 	bl	43c014f0 <printf>

			if (GPIOB.DET & (0x1 << 8)) //如果是key -按键
43c02684:	e59f3128 	ldr	r3, [pc, #296]	; 43c027b4 <do_irq+0x2b8>
43c02688:	e5933014 	ldr	r3, [r3, #20]
43c0268c:	e2033c01 	and	r3, r3, #256	; 0x100
43c02690:	e3530000 	cmp	r3, #0
43c02694:	0a000015 	beq	43c026f0 <do_irq+0x1f4>
			{
				//去除按键的抖动
				while(!(GPIOB.PAD & (1 << 8))) 
43c02698:	ea000009 	b	43c026c4 <do_irq+0x1c8>
				{
					delay_ms(10);  // 去抖动
43c0269c:	e3a0000a 	mov	r0, #10
43c026a0:	eb00023e 	bl	43c02fa0 <delay_ms>
					// 松手检测  
					while(!(GPIOB.PAD & (1 << 8))); //按键没有松开之前一直循环  按下的时候产生下降沿 
43c026a4:	e1a00000 	nop			; (mov r0, r0)
43c026a8:	e59f3104 	ldr	r3, [pc, #260]	; 43c027b4 <do_irq+0x2b8>
43c026ac:	e5933018 	ldr	r3, [r3, #24]
43c026b0:	e2033c01 	and	r3, r3, #256	; 0x100
43c026b4:	e3530000 	cmp	r3, #0
43c026b8:	0afffffa 	beq	43c026a8 <do_irq+0x1ac>
					printf("KEY VOL-\n");
43c026bc:	e59f00f4 	ldr	r0, [pc, #244]	; 43c027b8 <do_irq+0x2bc>
43c026c0:	ebfffb8a 	bl	43c014f0 <printf>
			printf("KEY Interrupt Number = %d\n",irq_num);

			if (GPIOB.DET & (0x1 << 8)) //如果是key -按键
			{
				//去除按键的抖动
				while(!(GPIOB.PAD & (1 << 8))) 
43c026c4:	e59f30e8 	ldr	r3, [pc, #232]	; 43c027b4 <do_irq+0x2b8>
43c026c8:	e5933018 	ldr	r3, [r3, #24]
43c026cc:	e2033c01 	and	r3, r3, #256	; 0x100
43c026d0:	e3530000 	cmp	r3, #0
43c026d4:	0afffff0 	beq	43c0269c <do_irq+0x1a0>
					while(!(GPIOB.PAD & (1 << 8))); //按键没有松开之前一直循环  按下的时候产生下降沿 
					printf("KEY VOL-\n");
				}

				// 清除GPIO层中断挂起标志位 GPIOBDET
				GPIOB.DET |= (0x1 << 8);
43c026d8:	e59f30d4 	ldr	r3, [pc, #212]	; 43c027b4 <do_irq+0x2b8>
43c026dc:	e59f20d0 	ldr	r2, [pc, #208]	; 43c027b4 <do_irq+0x2b8>
43c026e0:	e5922014 	ldr	r2, [r2, #20]
43c026e4:	e3822c01 	orr	r2, r2, #256	; 0x100
43c026e8:	e5832014 	str	r2, [r3, #20]
43c026ec:	ea000019 	b	43c02758 <do_irq+0x25c>

			} 
			else if (GPIOB.DET & (0x1 << 16)) //如果是key +按键
43c026f0:	e59f30bc 	ldr	r3, [pc, #188]	; 43c027b4 <do_irq+0x2b8>
43c026f4:	e5933014 	ldr	r3, [r3, #20]
43c026f8:	e2033801 	and	r3, r3, #65536	; 0x10000
43c026fc:	e3530000 	cmp	r3, #0
43c02700:	0a000014 	beq	43c02758 <do_irq+0x25c>
			{
				//去除按键的抖动
				while(!(GPIOB.PAD & (1 << 16))) 
43c02704:	ea000009 	b	43c02730 <do_irq+0x234>
				{
					delay_ms(10);
43c02708:	e3a0000a 	mov	r0, #10
43c0270c:	eb000223 	bl	43c02fa0 <delay_ms>
					while(!(GPIOB.PAD & (1 << 16)));//按键没有松开之前一直循环  按下的时候产生下降沿 
43c02710:	e1a00000 	nop			; (mov r0, r0)
43c02714:	e59f3098 	ldr	r3, [pc, #152]	; 43c027b4 <do_irq+0x2b8>
43c02718:	e5933018 	ldr	r3, [r3, #24]
43c0271c:	e2033801 	and	r3, r3, #65536	; 0x10000
43c02720:	e3530000 	cmp	r3, #0
43c02724:	0afffffa 	beq	43c02714 <do_irq+0x218>
					printf("KEY VOL+\n");
43c02728:	e59f008c 	ldr	r0, [pc, #140]	; 43c027bc <do_irq+0x2c0>
43c0272c:	ebfffb6f 	bl	43c014f0 <printf>

			} 
			else if (GPIOB.DET & (0x1 << 16)) //如果是key +按键
			{
				//去除按键的抖动
				while(!(GPIOB.PAD & (1 << 16))) 
43c02730:	e59f307c 	ldr	r3, [pc, #124]	; 43c027b4 <do_irq+0x2b8>
43c02734:	e5933018 	ldr	r3, [r3, #24]
43c02738:	e2033801 	and	r3, r3, #65536	; 0x10000
43c0273c:	e3530000 	cmp	r3, #0
43c02740:	0afffff0 	beq	43c02708 <do_irq+0x20c>
					delay_ms(10);
					while(!(GPIOB.PAD & (1 << 16)));//按键没有松开之前一直循环  按下的时候产生下降沿 
					printf("KEY VOL+\n");
				}
				// 清除GPIO层中断挂起标志位 GPIOBDET
				GPIOB.DET |= (0x1 << 16);
43c02744:	e59f3068 	ldr	r3, [pc, #104]	; 43c027b4 <do_irq+0x2b8>
43c02748:	e59f2064 	ldr	r2, [pc, #100]	; 43c027b4 <do_irq+0x2b8>
43c0274c:	e5922014 	ldr	r2, [r2, #20]
43c02750:	e3822801 	orr	r2, r2, #65536	; 0x10000
43c02754:	e5832014 	str	r2, [r3, #20]
			}
			// 清除GICD层中断挂起标志位 GICD_ICPENDER2[22]
			GICD_ICPENDER.ICPENDER2 |= (0x1 << 22);
43c02758:	e59f3044 	ldr	r3, [pc, #68]	; 43c027a4 <do_irq+0x2a8>
43c0275c:	e59f2040 	ldr	r2, [pc, #64]	; 43c027a4 <do_irq+0x2a8>
43c02760:	e5922008 	ldr	r2, [r2, #8]
43c02764:	e3822501 	orr	r2, r2, #4194304	; 0x400000
43c02768:	e5832008 	str	r2, [r3, #8]
			break;
43c0276c:	e1a00000 	nop			; (mov r0, r0)
			//87号中断处理程序
			break;
			// ....
	}
	// 清除GICC层中断号  GICC_EOIR[9:0]
	GICC_EOIR = (GICC_EOIR & (~0x3FF)) | irq_num;
43c02770:	e59f2048 	ldr	r2, [pc, #72]	; 43c027c0 <do_irq+0x2c4>
43c02774:	e59f3044 	ldr	r3, [pc, #68]	; 43c027c0 <do_irq+0x2c4>
43c02778:	e5933000 	ldr	r3, [r3]
43c0277c:	e3c33fff 	bic	r3, r3, #1020	; 0x3fc
43c02780:	e3c33003 	bic	r3, r3, #3
43c02784:	e51b1008 	ldr	r1, [fp, #-8]
43c02788:	e1833001 	orr	r3, r3, r1
43c0278c:	e5823000 	str	r3, [r2]
}
43c02790:	e24bd004 	sub	sp, fp, #4
43c02794:	e8bd8800 	pop	{fp, pc}
43c02798:	c000a00c 	andgt	sl, r0, ip
43c0279c:	43c03b6c 	bicmi	r3, r0, #108, 22	; 0x1b000
43c027a0:	c0018000 	andgt	r8, r1, r0
43c027a4:	c0009280 	andgt	r9, r0, r0, lsl #5
43c027a8:	43c03b88 	bicmi	r3, r0, #136, 22	; 0x22000
43c027ac:	43c03ba4 	bicmi	r3, r0, #164, 22	; 0x29000
43c027b0:	c005300c 	andgt	r3, r5, ip
43c027b4:	c001b000 	andgt	fp, r1, r0
43c027b8:	43c03bc0 	bicmi	r3, r0, #192, 22	; 0x30000
43c027bc:	43c03bcc 	bicmi	r3, r0, #204, 22	; 0x33000
43c027c0:	c000a010 	andgt	sl, r0, r0, lsl r0

43c027c4 <hal_pwm0_on>:
#include "pwm_on.h"

void hal_pwm0_on(unsigned int prescaler, unsigned int tnctb2)//PWM0用作定时器
{
43c027c4:	e92d4800 	push	{fp, lr}
43c027c8:	e28db004 	add	fp, sp, #4
43c027cc:	e24dd008 	sub	sp, sp, #8
43c027d0:	e50b0008 	str	r0, [fp, #-8]
43c027d4:	e50b100c 	str	r1, [fp, #-12]
	//将GPIOD1 FUNCTION1 PWM0[3:2] 01
	GPIOD.ALTFN0 &= ~(0x1 << 3);
43c027d8:	e59f312c 	ldr	r3, [pc, #300]	; 43c0290c <hal_pwm0_on+0x148>
43c027dc:	e59f2128 	ldr	r2, [pc, #296]	; 43c0290c <hal_pwm0_on+0x148>
43c027e0:	e5922020 	ldr	r2, [r2, #32]
43c027e4:	e3c22008 	bic	r2, r2, #8
43c027e8:	e5832020 	str	r2, [r3, #32]
	GPIOD.ALTFN0 |=  (0x1 <<2);
43c027ec:	e59f3118 	ldr	r3, [pc, #280]	; 43c0290c <hal_pwm0_on+0x148>
43c027f0:	e59f2114 	ldr	r2, [pc, #276]	; 43c0290c <hal_pwm0_on+0x148>
43c027f4:	e5922020 	ldr	r2, [r2, #32]
43c027f8:	e3822004 	orr	r2, r2, #4
43c027fc:	e5832020 	str	r2, [r3, #32]
	
	// 使用PWM0定时器实现1S定时的功能
	// 1.设置对PCLK时钟的一级分频值,进行250分频  TCFG0[7:0] = 249
	// 150000000 / (249 + 1) = 600000 
	PWM.TCFG0 &= ~(0xFF << 0);
43c02800:	e59f3108 	ldr	r3, [pc, #264]	; 43c02910 <hal_pwm0_on+0x14c>
43c02804:	e59f2104 	ldr	r2, [pc, #260]	; 43c02910 <hal_pwm0_on+0x14c>
43c02808:	e5922000 	ldr	r2, [r2]
43c0280c:	e3c220ff 	bic	r2, r2, #255	; 0xff
43c02810:	e5832000 	str	r2, [r3]
	PWM.TCFG0 |= (prescaler << 0);
43c02814:	e59f30f4 	ldr	r3, [pc, #244]	; 43c02910 <hal_pwm0_on+0x14c>
43c02818:	e59f20f0 	ldr	r2, [pc, #240]	; 43c02910 <hal_pwm0_on+0x14c>
43c0281c:	e5921000 	ldr	r1, [r2]
43c02820:	e51b2008 	ldr	r2, [fp, #-8]
43c02824:	e1812002 	orr	r2, r1, r2
43c02828:	e5832000 	str	r2, [r3]
	// 2.设置对PCLK时钟的二级分频值，进行2分频  TCFG1[3:0] = 0b0001
	// 600000 / 2 = 300000
	PWM.TCFG1 &= ~(0xF << 0);
43c0282c:	e59f30dc 	ldr	r3, [pc, #220]	; 43c02910 <hal_pwm0_on+0x14c>
43c02830:	e59f20d8 	ldr	r2, [pc, #216]	; 43c02910 <hal_pwm0_on+0x14c>
43c02834:	e5922004 	ldr	r2, [r2, #4]
43c02838:	e3c2200f 	bic	r2, r2, #15
43c0283c:	e5832004 	str	r2, [r3, #4]
	PWM.TCFG1 |= (1 << 0);
43c02840:	e59f30c8 	ldr	r3, [pc, #200]	; 43c02910 <hal_pwm0_on+0x14c>
43c02844:	e59f20c4 	ldr	r2, [pc, #196]	; 43c02910 <hal_pwm0_on+0x14c>
43c02848:	e5922004 	ldr	r2, [r2, #4]
43c0284c:	e3822001 	orr	r2, r2, #1
43c02850:	e5832004 	str	r2, [r3, #4]
	//3.设置TCNTB0的初始值，确定PWM定时器的最终周期
	//设置置TCNTB0 = 300000 - 1   PWM定时器的频率为1Hz
	PWM.TCNTB0 =  tnctb2;
43c02854:	e59f30b4 	ldr	r3, [pc, #180]	; 43c02910 <hal_pwm0_on+0x14c>
43c02858:	e51b200c 	ldr	r2, [fp, #-12]
43c0285c:	e583200c 	str	r2, [r3, #12]
	printf("aaaaa:%d\n",PWM.TCNTB0);
43c02860:	e59f30a8 	ldr	r3, [pc, #168]	; 43c02910 <hal_pwm0_on+0x14c>
43c02864:	e593300c 	ldr	r3, [r3, #12]
43c02868:	e59f00a4 	ldr	r0, [pc, #164]	; 43c02914 <hal_pwm0_on+0x150>
43c0286c:	e1a01003 	mov	r1, r3
43c02870:	ebfffb1e 	bl	43c014f0 <printf>
	//4.第一个周期是开启手动加载TCNTB0和TCMPB0到递减计数器中
	//TCON[1] = 0b1 
	PWM.TCON |= (1 << 1);
43c02874:	e59f3094 	ldr	r3, [pc, #148]	; 43c02910 <hal_pwm0_on+0x14c>
43c02878:	e59f2090 	ldr	r2, [pc, #144]	; 43c02910 <hal_pwm0_on+0x14c>
43c0287c:	e5922008 	ldr	r2, [r2, #8]
43c02880:	e3822002 	orr	r2, r2, #2
43c02884:	e5832008 	str	r2, [r3, #8]
	//5.开启自动加载  TCON[3] = 0b1  产生连续波形
	PWM.TCON |= (1 << 3);
43c02888:	e59f3080 	ldr	r3, [pc, #128]	; 43c02910 <hal_pwm0_on+0x14c>
43c0288c:	e59f207c 	ldr	r2, [pc, #124]	; 43c02910 <hal_pwm0_on+0x14c>
43c02890:	e5922008 	ldr	r2, [r2, #8]
43c02894:	e3822008 	orr	r2, r2, #8
43c02898:	e5832008 	str	r2, [r3, #8]
	//6.关闭手动加载   TCON[1] = 0b0
	PWM.TCON &= ~(1 << 1);
43c0289c:	e59f306c 	ldr	r3, [pc, #108]	; 43c02910 <hal_pwm0_on+0x14c>
43c028a0:	e59f2068 	ldr	r2, [pc, #104]	; 43c02910 <hal_pwm0_on+0x14c>
43c028a4:	e5922008 	ldr	r2, [r2, #8]
43c028a8:	e3c22002 	bic	r2, r2, #2
43c028ac:	e5832008 	str	r2, [r3, #8]
	//根据需求选择正向/反向输出 - TCON  TCON[2]=0
	PWM.TCON &= ~(0x1 << 2);
43c028b0:	e59f3058 	ldr	r3, [pc, #88]	; 43c02910 <hal_pwm0_on+0x14c>
43c028b4:	e59f2054 	ldr	r2, [pc, #84]	; 43c02910 <hal_pwm0_on+0x14c>
43c028b8:	e5922008 	ldr	r2, [r2, #8]
43c028bc:	e3c22004 	bic	r2, r2, #4
43c028c0:	e5832008 	str	r2, [r3, #8]
	//7.使能PWM定时器0  TCON[0] = 0b1 
	PWM.TCON |= (1 << 0);
43c028c4:	e59f3044 	ldr	r3, [pc, #68]	; 43c02910 <hal_pwm0_on+0x14c>
43c028c8:	e59f2040 	ldr	r2, [pc, #64]	; 43c02910 <hal_pwm0_on+0x14c>
43c028cc:	e5922008 	ldr	r2, [r2, #8]
43c028d0:	e3822001 	orr	r2, r2, #1
43c028d4:	e5832008 	str	r2, [r3, #8]
	//8. 使能PWM定时器中断
	PWM.TINT_CSTAT |= (0x1);
43c028d8:	e59f3030 	ldr	r3, [pc, #48]	; 43c02910 <hal_pwm0_on+0x14c>
43c028dc:	e59f202c 	ldr	r2, [pc, #44]	; 43c02910 <hal_pwm0_on+0x14c>
43c028e0:	e5922044 	ldr	r2, [r2, #68]	; 0x44
43c028e4:	e3822001 	orr	r2, r2, #1
43c028e8:	e5832044 	str	r2, [r3, #68]	; 0x44
	
	 if(PWM.TCNTB0 == 0)
43c028ec:	e59f301c 	ldr	r3, [pc, #28]	; 43c02910 <hal_pwm0_on+0x14c>
43c028f0:	e593300c 	ldr	r3, [r3, #12]
43c028f4:	e3530000 	cmp	r3, #0
43c028f8:	1a000001 	bne	43c02904 <hal_pwm0_on+0x140>
		 printf("TCNTB等于0,PWM0会产生中断???\n");
43c028fc:	e59f0014 	ldr	r0, [pc, #20]	; 43c02918 <hal_pwm0_on+0x154>
43c02900:	ebfffafa 	bl	43c014f0 <printf>
}
43c02904:	e24bd004 	sub	sp, fp, #4
43c02908:	e8bd8800 	pop	{fp, pc}
43c0290c:	c001d000 	andgt	sp, r1, r0
43c02910:	c0018000 	andgt	r8, r1, r0
43c02914:	43c03bd8 	bicmi	r3, r0, #216, 22	; 0x36000
43c02918:	43c03be4 	bicmi	r3, r0, #228, 22	; 0x39000

43c0291c <hal_pwm1_on>:


void hal_pwm1_on(unsigned int prescaler, unsigned int tnctb2)//用作定时器
 {
43c0291c:	e92d4800 	push	{fp, lr}
43c02920:	e28db004 	add	fp, sp, #4
43c02924:	e24dd008 	sub	sp, sp, #8
43c02928:	e50b0008 	str	r0, [fp, #-8]
43c0292c:	e50b100c 	str	r1, [fp, #-12]
     /*1.将GPIOC13设置成PWM1(Func2)  [27::26] 10功能 - GPIOCALTFN0*/
     GPIOC.ALTFN0 |= (0x1 << 27);
43c02930:	e59f3128 	ldr	r3, [pc, #296]	; 43c02a60 <hal_pwm1_on+0x144>
43c02934:	e59f2124 	ldr	r2, [pc, #292]	; 43c02a60 <hal_pwm1_on+0x144>
43c02938:	e5922020 	ldr	r2, [r2, #32]
43c0293c:	e3822302 	orr	r2, r2, #134217728	; 0x8000000
43c02940:	e5832020 	str	r2, [r3, #32]
     GPIOC.ALTFN0 &= ~(0x1 << 26);
43c02944:	e59f3114 	ldr	r3, [pc, #276]	; 43c02a60 <hal_pwm1_on+0x144>
43c02948:	e59f2110 	ldr	r2, [pc, #272]	; 43c02a60 <hal_pwm1_on+0x144>
43c0294c:	e5922020 	ldr	r2, [r2, #32]
43c02950:	e3c22301 	bic	r2, r2, #67108864	; 0x4000000
43c02954:	e5832020 	str	r2, [r3, #32]
 
     /*2.设置PWM1的一级分频 - TCFG0[7:0] = 249 =0xF9 = 1111 1010*/
	 if(prescaler >=255)
43c02958:	e51b3008 	ldr	r3, [fp, #-8]
43c0295c:	e35300fe 	cmp	r3, #254	; 0xfe
43c02960:	9a000003 	bls	43c02974 <hal_pwm1_on+0x58>
		PWM.TCFG0 = 254;//最大254
43c02964:	e59f30f8 	ldr	r3, [pc, #248]	; 43c02a64 <hal_pwm1_on+0x148>
43c02968:	e3a020fe 	mov	r2, #254	; 0xfe
43c0296c:	e5832000 	str	r2, [r3]
43c02970:	ea000002 	b	43c02980 <hal_pwm1_on+0x64>
	 else
		 PWM.TCFG0 = prescaler;
43c02974:	e59f30e8 	ldr	r3, [pc, #232]	; 43c02a64 <hal_pwm1_on+0x148>
43c02978:	e51b2008 	ldr	r2, [fp, #-8]
43c0297c:	e5832000 	str	r2, [r3]
 
     /*3.设置PWM1的二级分频 - TCFG1 TCFG1[7:4] = 1/2 =0001 地址=0xC0018004*/
     PWM.TCFG1 &= ~(0xF << 4); 
43c02980:	e59f30dc 	ldr	r3, [pc, #220]	; 43c02a64 <hal_pwm1_on+0x148>
43c02984:	e59f20d8 	ldr	r2, [pc, #216]	; 43c02a64 <hal_pwm1_on+0x148>
43c02988:	e5922004 	ldr	r2, [r2, #4]
43c0298c:	e3c220f0 	bic	r2, r2, #240	; 0xf0
43c02990:	e5832004 	str	r2, [r3, #4]
     PWM.TCFG1 |=  (0x1 << 4);
43c02994:	e59f30c8 	ldr	r3, [pc, #200]	; 43c02a64 <hal_pwm1_on+0x148>
43c02998:	e59f20c4 	ldr	r2, [pc, #196]	; 43c02a64 <hal_pwm1_on+0x148>
43c0299c:	e5922004 	ldr	r2, [r2, #4]
43c029a0:	e3822010 	orr	r2, r2, #16
43c029a4:	e5832004 	str	r2, [r3, #4]

     /*4.设置PWM1的周期值 - TCNTB1 TCNTB1[31:0] = 299 =0x12B 地址=0xC0018024  1000HZ  T=1ms*/
     PWM.TCNTB1 = tnctb2;
43c029a8:	e59f30b4 	ldr	r3, [pc, #180]	; 43c02a64 <hal_pwm1_on+0x148>
43c029ac:	e51b200c 	ldr	r2, [fp, #-12]
43c029b0:	e5832018 	str	r2, [r3, #24]
	 printf("PWM1___TCNTB1:%d\n",PWM.TCNTB1);
43c029b4:	e59f30a8 	ldr	r3, [pc, #168]	; 43c02a64 <hal_pwm1_on+0x148>
43c029b8:	e5933018 	ldr	r3, [r3, #24]
43c029bc:	e59f00a4 	ldr	r0, [pc, #164]	; 43c02a68 <hal_pwm1_on+0x14c>
43c029c0:	e1a01003 	mov	r1, r3
43c029c4:	ebfffac9 	bl	43c014f0 <printf>
  
     /*5.设置高电平的时间 - TCMPB1  占空比50% TCMPB1[31:0] = 149 =0x95 地址=0xC0018028*/
     //PWM.TCMPB1 = tnctb2/2;
     /*6.打开手动装载将TCNTB1中的值加载到TCNTO1递减计数器 - TCON TCON[9]=1  地址=0xC0018008*/
     PWM.TCON |= (0x1 << 9);
43c029c8:	e59f3094 	ldr	r3, [pc, #148]	; 43c02a64 <hal_pwm1_on+0x148>
43c029cc:	e59f2090 	ldr	r2, [pc, #144]	; 43c02a64 <hal_pwm1_on+0x148>
43c029d0:	e5922008 	ldr	r2, [r2, #8]
43c029d4:	e3822c02 	orr	r2, r2, #512	; 0x200
43c029d8:	e5832008 	str	r2, [r3, #8]
     /*7.关闭手动装载后续的周期使用自动装载 - TCON TCON[9]=0  地址=0xC0018008*/
     PWM.TCON &= ~(0x1 << 9);
43c029dc:	e59f3080 	ldr	r3, [pc, #128]	; 43c02a64 <hal_pwm1_on+0x148>
43c029e0:	e59f207c 	ldr	r2, [pc, #124]	; 43c02a64 <hal_pwm1_on+0x148>
43c029e4:	e5922008 	ldr	r2, [r2, #8]
43c029e8:	e3c22c02 	bic	r2, r2, #512	; 0x200
43c029ec:	e5832008 	str	r2, [r3, #8]
     /*8.打开自动装载，使后续产生连续的波形 - TCON TCON[11]=1  地址=0xC0018008*/
     PWM.TCON |= (0x1 << 11);
43c029f0:	e59f306c 	ldr	r3, [pc, #108]	; 43c02a64 <hal_pwm1_on+0x148>
43c029f4:	e59f2068 	ldr	r2, [pc, #104]	; 43c02a64 <hal_pwm1_on+0x148>
43c029f8:	e5922008 	ldr	r2, [r2, #8]
43c029fc:	e3822b02 	orr	r2, r2, #2048	; 0x800
43c02a00:	e5832008 	str	r2, [r3, #8]
     /*9.根据需求选择正向/反向输出 - TCON  TCON[10]=1  地址=0xC0018008*/
     PWM.TCON &= ~(0x1 << 10);
43c02a04:	e59f3058 	ldr	r3, [pc, #88]	; 43c02a64 <hal_pwm1_on+0x148>
43c02a08:	e59f2054 	ldr	r2, [pc, #84]	; 43c02a64 <hal_pwm1_on+0x148>
43c02a0c:	e5922008 	ldr	r2, [r2, #8]
43c02a10:	e3c22b01 	bic	r2, r2, #1024	; 0x400
43c02a14:	e5832008 	str	r2, [r3, #8]
     /*10.开启递减计数器 - TCON TCON[8]=1  地址=0xC0018008*/
     PWM.TCON |= (0x1 << 8);
43c02a18:	e59f3044 	ldr	r3, [pc, #68]	; 43c02a64 <hal_pwm1_on+0x148>
43c02a1c:	e59f2040 	ldr	r2, [pc, #64]	; 43c02a64 <hal_pwm1_on+0x148>
43c02a20:	e5922008 	ldr	r2, [r2, #8]
43c02a24:	e3822c01 	orr	r2, r2, #256	; 0x100
43c02a28:	e5832008 	str	r2, [r3, #8]

	 //开启中断  PWM1 TINT_CSTAT[1] = 1
	 PWM.TINT_CSTAT |= (0x1 << 1);
43c02a2c:	e59f3030 	ldr	r3, [pc, #48]	; 43c02a64 <hal_pwm1_on+0x148>
43c02a30:	e59f202c 	ldr	r2, [pc, #44]	; 43c02a64 <hal_pwm1_on+0x148>
43c02a34:	e5922044 	ldr	r2, [r2, #68]	; 0x44
43c02a38:	e3822002 	orr	r2, r2, #2
43c02a3c:	e5832044 	str	r2, [r3, #68]	; 0x44

	 if(PWM.TCNTB1 == 0)
43c02a40:	e59f301c 	ldr	r3, [pc, #28]	; 43c02a64 <hal_pwm1_on+0x148>
43c02a44:	e5933018 	ldr	r3, [r3, #24]
43c02a48:	e3530000 	cmp	r3, #0
43c02a4c:	1a000001 	bne	43c02a58 <hal_pwm1_on+0x13c>
		 printf("TCNTB等于0,PWM1会产生中断?????\n");
43c02a50:	e59f0014 	ldr	r0, [pc, #20]	; 43c02a6c <hal_pwm1_on+0x150>
43c02a54:	ebfffaa5 	bl	43c014f0 <printf>
 }
43c02a58:	e24bd004 	sub	sp, fp, #4
43c02a5c:	e8bd8800 	pop	{fp, pc}
43c02a60:	c001c000 	andgt	ip, r1, r0
43c02a64:	c0018000 	andgt	r8, r1, r0
43c02a68:	43c03c0c 	bicmi	r3, r0, #12, 24	; 0xc00
43c02a6c:	43c03c20 	bicmi	r3, r0, #32, 24	; 0x2000

43c02a70 <hal_pwm2_on>:

void hal_pwm2_on(unsigned int prescaler, unsigned int tnctb2)
 {
43c02a70:	e92d4800 	push	{fp, lr}
43c02a74:	e28db004 	add	fp, sp, #4
43c02a78:	e24dd008 	sub	sp, sp, #8
43c02a7c:	e50b0008 	str	r0, [fp, #-8]
43c02a80:	e50b100c 	str	r1, [fp, #-12]
     /*1.将GPIOC14设置成PWM2(Func2)  [29::28] 10功能 - GPIOCALTFN0*/
     GPIOC.ALTFN0 |= (0x1 << 29);
43c02a84:	e59f3128 	ldr	r3, [pc, #296]	; 43c02bb4 <hal_pwm2_on+0x144>
43c02a88:	e59f2124 	ldr	r2, [pc, #292]	; 43c02bb4 <hal_pwm2_on+0x144>
43c02a8c:	e5922020 	ldr	r2, [r2, #32]
43c02a90:	e3822202 	orr	r2, r2, #536870912	; 0x20000000
43c02a94:	e5832020 	str	r2, [r3, #32]
     GPIOC.ALTFN0 &= ~(0x1 << 28);
43c02a98:	e59f3114 	ldr	r3, [pc, #276]	; 43c02bb4 <hal_pwm2_on+0x144>
43c02a9c:	e59f2110 	ldr	r2, [pc, #272]	; 43c02bb4 <hal_pwm2_on+0x144>
43c02aa0:	e5922020 	ldr	r2, [r2, #32]
43c02aa4:	e3c22201 	bic	r2, r2, #268435456	; 0x10000000
43c02aa8:	e5832020 	str	r2, [r3, #32]
 
     /*2.设置PWM2的一级分频 - TCFG0[15:8] = 249 =0xF9 = 1111 1010*/
     PWM.TCFG0 |= (prescaler << 8);
43c02aac:	e59f3104 	ldr	r3, [pc, #260]	; 43c02bb8 <hal_pwm2_on+0x148>
43c02ab0:	e59f2100 	ldr	r2, [pc, #256]	; 43c02bb8 <hal_pwm2_on+0x148>
43c02ab4:	e5921000 	ldr	r1, [r2]
43c02ab8:	e51b2008 	ldr	r2, [fp, #-8]
43c02abc:	e1a02402 	lsl	r2, r2, #8
43c02ac0:	e1812002 	orr	r2, r1, r2
43c02ac4:	e5832000 	str	r2, [r3]
 
     /*3.设置PWM2的二级分频 - TCFG1 TCFG1[11:8] = 1/2 =0001 地址=0xC0018004*/
     PWM.TCFG1 &= ~(0x1 << 11);
43c02ac8:	e59f30e8 	ldr	r3, [pc, #232]	; 43c02bb8 <hal_pwm2_on+0x148>
43c02acc:	e59f20e4 	ldr	r2, [pc, #228]	; 43c02bb8 <hal_pwm2_on+0x148>
43c02ad0:	e5922004 	ldr	r2, [r2, #4]
43c02ad4:	e3c22b02 	bic	r2, r2, #2048	; 0x800
43c02ad8:	e5832004 	str	r2, [r3, #4]
     PWM.TCFG1 &= ~(0x1 << 10);
43c02adc:	e59f30d4 	ldr	r3, [pc, #212]	; 43c02bb8 <hal_pwm2_on+0x148>
43c02ae0:	e59f20d0 	ldr	r2, [pc, #208]	; 43c02bb8 <hal_pwm2_on+0x148>
43c02ae4:	e5922004 	ldr	r2, [r2, #4]
43c02ae8:	e3c22b01 	bic	r2, r2, #1024	; 0x400
43c02aec:	e5832004 	str	r2, [r3, #4]
     PWM.TCFG1 &= ~(0x1 << 9);
43c02af0:	e59f30c0 	ldr	r3, [pc, #192]	; 43c02bb8 <hal_pwm2_on+0x148>
43c02af4:	e59f20bc 	ldr	r2, [pc, #188]	; 43c02bb8 <hal_pwm2_on+0x148>
43c02af8:	e5922004 	ldr	r2, [r2, #4]
43c02afc:	e3c22c02 	bic	r2, r2, #512	; 0x200
43c02b00:	e5832004 	str	r2, [r3, #4]
     PWM.TCFG1 |=  (0x1 << 8);
43c02b04:	e59f30ac 	ldr	r3, [pc, #172]	; 43c02bb8 <hal_pwm2_on+0x148>
43c02b08:	e59f20a8 	ldr	r2, [pc, #168]	; 43c02bb8 <hal_pwm2_on+0x148>
43c02b0c:	e5922004 	ldr	r2, [r2, #4]
43c02b10:	e3822c01 	orr	r2, r2, #256	; 0x100
43c02b14:	e5832004 	str	r2, [r3, #4]
     PWM.TCFG1 &= ~(0x1 << 9);
     PWM.TCFG1 &= ~(0x1 << 8);
	*/

     /*4.设置PWM2的周期值 - TCNTB2 TCNTB2[31:0] = 299 =0x12B 地址=0xC0018024  1000HZ  T=1ms*/
     PWM.TCNTB2 = tnctb2;
43c02b18:	e59f3098 	ldr	r3, [pc, #152]	; 43c02bb8 <hal_pwm2_on+0x148>
43c02b1c:	e51b200c 	ldr	r2, [fp, #-12]
43c02b20:	e5832024 	str	r2, [r3, #36]	; 0x24
	 printf("TCNTB2 = %d\n",PWM.TCNTB2);
43c02b24:	e59f308c 	ldr	r3, [pc, #140]	; 43c02bb8 <hal_pwm2_on+0x148>
43c02b28:	e5933024 	ldr	r3, [r3, #36]	; 0x24
43c02b2c:	e59f0088 	ldr	r0, [pc, #136]	; 43c02bbc <hal_pwm2_on+0x14c>
43c02b30:	e1a01003 	mov	r1, r3
43c02b34:	ebfffa6d 	bl	43c014f0 <printf>
     /*5.设置高电平的时间 - TCMPB2  占空比50% TCMPB2[31:0] = 149 =0x95 地址=0xC0018028*/
     PWM.TCMPB2 = tnctb2 / 2;
43c02b38:	e59f3078 	ldr	r3, [pc, #120]	; 43c02bb8 <hal_pwm2_on+0x148>
43c02b3c:	e51b200c 	ldr	r2, [fp, #-12]
43c02b40:	e1a020a2 	lsr	r2, r2, #1
43c02b44:	e5832028 	str	r2, [r3, #40]	; 0x28
     /*6.打开手动装载将TCNTB2中的值加载到TCNTO2递减计数器 - TCON TCON[13]=1  地址=0xC0018008*/
     PWM.TCON |= (0x1 << 13);
43c02b48:	e59f3068 	ldr	r3, [pc, #104]	; 43c02bb8 <hal_pwm2_on+0x148>
43c02b4c:	e59f2064 	ldr	r2, [pc, #100]	; 43c02bb8 <hal_pwm2_on+0x148>
43c02b50:	e5922008 	ldr	r2, [r2, #8]
43c02b54:	e3822a02 	orr	r2, r2, #8192	; 0x2000
43c02b58:	e5832008 	str	r2, [r3, #8]
     /*7.关闭手动装载后续的周期使用自动装载 - TCON TCON[13]=0  地址=0xC0018008*/
     PWM.TCON &= ~(0x1 << 13);
43c02b5c:	e59f3054 	ldr	r3, [pc, #84]	; 43c02bb8 <hal_pwm2_on+0x148>
43c02b60:	e59f2050 	ldr	r2, [pc, #80]	; 43c02bb8 <hal_pwm2_on+0x148>
43c02b64:	e5922008 	ldr	r2, [r2, #8]
43c02b68:	e3c22a02 	bic	r2, r2, #8192	; 0x2000
43c02b6c:	e5832008 	str	r2, [r3, #8]
     /*8.打开自动装载，使后续产生连续的波形 - TCON TCON[15]=1  地址=0xC0018008*/
     PWM.TCON |= (0x1 << 15);
43c02b70:	e59f3040 	ldr	r3, [pc, #64]	; 43c02bb8 <hal_pwm2_on+0x148>
43c02b74:	e59f203c 	ldr	r2, [pc, #60]	; 43c02bb8 <hal_pwm2_on+0x148>
43c02b78:	e5922008 	ldr	r2, [r2, #8]
43c02b7c:	e3822902 	orr	r2, r2, #32768	; 0x8000
43c02b80:	e5832008 	str	r2, [r3, #8]
     /*9.根据需求选择正向/反向输出 - TCON  TCON[14]=0  地址=0xC0018008*/
     PWM.TCON &= ~(0x1 << 14);
43c02b84:	e59f302c 	ldr	r3, [pc, #44]	; 43c02bb8 <hal_pwm2_on+0x148>
43c02b88:	e59f2028 	ldr	r2, [pc, #40]	; 43c02bb8 <hal_pwm2_on+0x148>
43c02b8c:	e5922008 	ldr	r2, [r2, #8]
43c02b90:	e3c22901 	bic	r2, r2, #16384	; 0x4000
43c02b94:	e5832008 	str	r2, [r3, #8]
     /*10.开启递减计数器 - TCON TCON[12]=1  地址=0xC0018008*/
     PWM.TCON |= (0x1 << 12);
43c02b98:	e59f3018 	ldr	r3, [pc, #24]	; 43c02bb8 <hal_pwm2_on+0x148>
43c02b9c:	e59f2014 	ldr	r2, [pc, #20]	; 43c02bb8 <hal_pwm2_on+0x148>
43c02ba0:	e5922008 	ldr	r2, [r2, #8]
43c02ba4:	e3822a01 	orr	r2, r2, #4096	; 0x1000
43c02ba8:	e5832008 	str	r2, [r3, #8]

	 //开启中断  PWM2 TINT_CSTAT[2] = 1
	 //PWM.TINT_CSTAT |= (0x1 << 2);

 }
43c02bac:	e24bd004 	sub	sp, fp, #4
43c02bb0:	e8bd8800 	pop	{fp, pc}
43c02bb4:	c001c000 	andgt	ip, r1, r0
43c02bb8:	c0018000 	andgt	r8, r1, r0
43c02bbc:	43c03c48 	bicmi	r3, r0, #72, 24	; 0x4800

43c02bc0 <hal_pwm_off>:
void hal_pwm_off()
{
43c02bc0:	e52db004 	push	{fp}		; (str fp, [sp, #-4]!)
43c02bc4:	e28db000 	add	fp, sp, #0
    /*1.将GPIOC14设置成00  关闭蜂鸣器*/       
    GPIOC.ALTFN0 &= ~(0x1 << 29);                                          
43c02bc8:	e59f302c 	ldr	r3, [pc, #44]	; 43c02bfc <hal_pwm_off+0x3c>
43c02bcc:	e59f2028 	ldr	r2, [pc, #40]	; 43c02bfc <hal_pwm_off+0x3c>
43c02bd0:	e5922020 	ldr	r2, [r2, #32]
43c02bd4:	e3c22202 	bic	r2, r2, #536870912	; 0x20000000
43c02bd8:	e5832020 	str	r2, [r3, #32]
    GPIOC.ALTFN0 &= ~(0x1 << 28);                                         
43c02bdc:	e59f3018 	ldr	r3, [pc, #24]	; 43c02bfc <hal_pwm_off+0x3c>
43c02be0:	e59f2014 	ldr	r2, [pc, #20]	; 43c02bfc <hal_pwm_off+0x3c>
43c02be4:	e5922020 	ldr	r2, [r2, #32]
43c02be8:	e3c22201 	bic	r2, r2, #268435456	; 0x10000000
43c02bec:	e5832020 	str	r2, [r3, #32]
}
43c02bf0:	e28bd000 	add	sp, fp, #0
43c02bf4:	e49db004 	pop	{fp}		; (ldr fp, [sp], #4)
43c02bf8:	e12fff1e 	bx	lr
43c02bfc:	c001c000 	andgt	ip, r1, r0

43c02c00 <hal_gpio_interrupt_init>:
#include "key.h"
void hal_gpio_interrupt_init(void)
{
43c02c00:	e52db004 	push	{fp}		; (str fp, [sp, #-4]!)
43c02c04:	e28db000 	add	fp, sp, #0
	/*-----key +*/
	// 1. 设置GPIOB8引脚为GPIO功能 GPIOBALTFN0
	GPIOB.ALTFN0 &= (~(0x3 << 16));
43c02c08:	e59f3130 	ldr	r3, [pc, #304]	; 43c02d40 <hal_gpio_interrupt_init+0x140>
43c02c0c:	e59f212c 	ldr	r2, [pc, #300]	; 43c02d40 <hal_gpio_interrupt_init+0x140>
43c02c10:	e5922020 	ldr	r2, [r2, #32]
43c02c14:	e3c22803 	bic	r2, r2, #196608	; 0x30000
43c02c18:	e5832020 	str	r2, [r3, #32]
	// 2. 设置GPIOB8引脚为输入功能 GPIOBOUTENB
	GPIOB.OUTENB &= (~(0x1 << 8));
43c02c1c:	e59f311c 	ldr	r3, [pc, #284]	; 43c02d40 <hal_gpio_interrupt_init+0x140>
43c02c20:	e59f2118 	ldr	r2, [pc, #280]	; 43c02d40 <hal_gpio_interrupt_init+0x140>
43c02c24:	e5922004 	ldr	r2, [r2, #4]
43c02c28:	e3c22c01 	bic	r2, r2, #256	; 0x100
43c02c2c:	e5832004 	str	r2, [r3, #4]
	// 3. 设置GPIOB8引脚的中断触发方式：下降沿触发
	// 		GPIOBDETMODE0  GPIOBDETMODEEX
	GPIOB.DETMODE0 &= (~(0x3 << 16));
43c02c30:	e59f3108 	ldr	r3, [pc, #264]	; 43c02d40 <hal_gpio_interrupt_init+0x140>
43c02c34:	e59f2104 	ldr	r2, [pc, #260]	; 43c02d40 <hal_gpio_interrupt_init+0x140>
43c02c38:	e5922008 	ldr	r2, [r2, #8]
43c02c3c:	e3c22803 	bic	r2, r2, #196608	; 0x30000
43c02c40:	e5832008 	str	r2, [r3, #8]
	GPIOB.DETMODE0 |= (0x2 << 16);
43c02c44:	e59f30f4 	ldr	r3, [pc, #244]	; 43c02d40 <hal_gpio_interrupt_init+0x140>
43c02c48:	e59f20f0 	ldr	r2, [pc, #240]	; 43c02d40 <hal_gpio_interrupt_init+0x140>
43c02c4c:	e5922008 	ldr	r2, [r2, #8]
43c02c50:	e3822802 	orr	r2, r2, #131072	; 0x20000
43c02c54:	e5832008 	str	r2, [r3, #8]
	GPIOB.DETMODEEX &= (~(0x1 << 8));
43c02c58:	e59f30e0 	ldr	r3, [pc, #224]	; 43c02d40 <hal_gpio_interrupt_init+0x140>
43c02c5c:	e59f20dc 	ldr	r2, [pc, #220]	; 43c02d40 <hal_gpio_interrupt_init+0x140>
43c02c60:	e5922028 	ldr	r2, [r2, #40]	; 0x28
43c02c64:	e3c22c01 	bic	r2, r2, #256	; 0x100
43c02c68:	e5832028 	str	r2, [r3, #40]	; 0x28
	// 4. 设置GPIOB8引脚中断使能寄存器  GPIOBINTENB 
	GPIOB.INTENB |= (0x1 << 8);
43c02c6c:	e59f30cc 	ldr	r3, [pc, #204]	; 43c02d40 <hal_gpio_interrupt_init+0x140>
43c02c70:	e59f20c8 	ldr	r2, [pc, #200]	; 43c02d40 <hal_gpio_interrupt_init+0x140>
43c02c74:	e5922010 	ldr	r2, [r2, #16]
43c02c78:	e3822c01 	orr	r2, r2, #256	; 0x100
43c02c7c:	e5832010 	str	r2, [r3, #16]
	// 5. 设置GPIOB8引脚的检测使能寄存器  GPIOBDETENB
	GPIOB.DETENB |= (0x1 << 8);
43c02c80:	e59f30b8 	ldr	r3, [pc, #184]	; 43c02d40 <hal_gpio_interrupt_init+0x140>
43c02c84:	e59f20b4 	ldr	r2, [pc, #180]	; 43c02d40 <hal_gpio_interrupt_init+0x140>
43c02c88:	e592203c 	ldr	r2, [r2, #60]	; 0x3c
43c02c8c:	e3822c01 	orr	r2, r2, #256	; 0x100
43c02c90:	e583203c 	str	r2, [r3, #60]	; 0x3c

	/*-----key -*/
	// 1. 设置GPIOB16引脚为GPIO功能 GPIOBALTFN1
	GPIOB.ALTFN1 &= (~(0x3 << 0));
43c02c94:	e59f30a4 	ldr	r3, [pc, #164]	; 43c02d40 <hal_gpio_interrupt_init+0x140>
43c02c98:	e59f20a0 	ldr	r2, [pc, #160]	; 43c02d40 <hal_gpio_interrupt_init+0x140>
43c02c9c:	e5922024 	ldr	r2, [r2, #36]	; 0x24
43c02ca0:	e3c22003 	bic	r2, r2, #3
43c02ca4:	e5832024 	str	r2, [r3, #36]	; 0x24
	GPIOB.ALTFN1 |= (0x2 << 0);
43c02ca8:	e59f3090 	ldr	r3, [pc, #144]	; 43c02d40 <hal_gpio_interrupt_init+0x140>
43c02cac:	e59f208c 	ldr	r2, [pc, #140]	; 43c02d40 <hal_gpio_interrupt_init+0x140>
43c02cb0:	e5922024 	ldr	r2, [r2, #36]	; 0x24
43c02cb4:	e3822002 	orr	r2, r2, #2
43c02cb8:	e5832024 	str	r2, [r3, #36]	; 0x24
	// 2. 设置GPIOB16引脚为输入功能 GPIOBOUTENB
	GPIOB.OUTENB &= (~(0x1 << 16));
43c02cbc:	e59f307c 	ldr	r3, [pc, #124]	; 43c02d40 <hal_gpio_interrupt_init+0x140>
43c02cc0:	e59f2078 	ldr	r2, [pc, #120]	; 43c02d40 <hal_gpio_interrupt_init+0x140>
43c02cc4:	e5922004 	ldr	r2, [r2, #4]
43c02cc8:	e3c22801 	bic	r2, r2, #65536	; 0x10000
43c02ccc:	e5832004 	str	r2, [r3, #4]
	// 3. 设置GPIOB16引脚的中断触发方式：下降沿触发
	// 		GPIOBDETMODE1  GPIOBDETMODEEX
	GPIOB.DETMODE1 &= (~(0x3 << 0));
43c02cd0:	e59f3068 	ldr	r3, [pc, #104]	; 43c02d40 <hal_gpio_interrupt_init+0x140>
43c02cd4:	e59f2064 	ldr	r2, [pc, #100]	; 43c02d40 <hal_gpio_interrupt_init+0x140>
43c02cd8:	e592200c 	ldr	r2, [r2, #12]
43c02cdc:	e3c22003 	bic	r2, r2, #3
43c02ce0:	e583200c 	str	r2, [r3, #12]
	GPIOB.DETMODE1 |= (0x2 << 0);
43c02ce4:	e59f3054 	ldr	r3, [pc, #84]	; 43c02d40 <hal_gpio_interrupt_init+0x140>
43c02ce8:	e59f2050 	ldr	r2, [pc, #80]	; 43c02d40 <hal_gpio_interrupt_init+0x140>
43c02cec:	e592200c 	ldr	r2, [r2, #12]
43c02cf0:	e3822002 	orr	r2, r2, #2
43c02cf4:	e583200c 	str	r2, [r3, #12]
	GPIOB.DETMODEEX &= (~(0x1 << 16));
43c02cf8:	e59f3040 	ldr	r3, [pc, #64]	; 43c02d40 <hal_gpio_interrupt_init+0x140>
43c02cfc:	e59f203c 	ldr	r2, [pc, #60]	; 43c02d40 <hal_gpio_interrupt_init+0x140>
43c02d00:	e5922028 	ldr	r2, [r2, #40]	; 0x28
43c02d04:	e3c22801 	bic	r2, r2, #65536	; 0x10000
43c02d08:	e5832028 	str	r2, [r3, #40]	; 0x28
	// 4. 设置GPIOB16引脚中断使能寄存器  GPIOBINTENB 
	GPIOB.INTENB |= (0x1 << 16);
43c02d0c:	e59f302c 	ldr	r3, [pc, #44]	; 43c02d40 <hal_gpio_interrupt_init+0x140>
43c02d10:	e59f2028 	ldr	r2, [pc, #40]	; 43c02d40 <hal_gpio_interrupt_init+0x140>
43c02d14:	e5922010 	ldr	r2, [r2, #16]
43c02d18:	e3822801 	orr	r2, r2, #65536	; 0x10000
43c02d1c:	e5832010 	str	r2, [r3, #16]
	// 5. 设置GPIOB16引脚的检测使能寄存器  GPIOBDETENB
	GPIOB.DETENB |= (0x1 << 16);
43c02d20:	e59f3018 	ldr	r3, [pc, #24]	; 43c02d40 <hal_gpio_interrupt_init+0x140>
43c02d24:	e59f2014 	ldr	r2, [pc, #20]	; 43c02d40 <hal_gpio_interrupt_init+0x140>
43c02d28:	e592203c 	ldr	r2, [r2, #60]	; 0x3c
43c02d2c:	e3822801 	orr	r2, r2, #65536	; 0x10000
43c02d30:	e583203c 	str	r2, [r3, #60]	; 0x3c
}
43c02d34:	e28bd000 	add	sp, fp, #0
43c02d38:	e49db004 	pop	{fp}		; (ldr fp, [sp], #4)
43c02d3c:	e12fff1e 	bx	lr
43c02d40:	c001b000 	andgt	fp, r1, r0

43c02d44 <hal_gic_init>:

void hal_gic_init(void)
{
43c02d44:	e52db004 	push	{fp}		; (str fp, [sp, #-4]!)
43c02d48:	e28db000 	add	fp, sp, #0
	// GPIOB中断源
	// 1. 设置GICD层86号对应的中断使能寄存器 GICD_ISENABLER2[22]
	GICD_ISENABLER.ISENABLER2 |= (0x1 << 22);
43c02d4c:	e59f3234 	ldr	r3, [pc, #564]	; 43c02f88 <hal_gic_init+0x244>
43c02d50:	e59f2230 	ldr	r2, [pc, #560]	; 43c02f88 <hal_gic_init+0x244>
43c02d54:	e5922008 	ldr	r2, [r2, #8]
43c02d58:	e3822501 	orr	r2, r2, #4194304	; 0x400000
43c02d5c:	e5832008 	str	r2, [r3, #8]
	// 2. 设置中断优先级寄存器 GICD_IPRIORITYR21[23:16]
	GICD_IPRIORITYR.IPRIORITYR21 &= (~(0xFF << 16));
43c02d60:	e59f3224 	ldr	r3, [pc, #548]	; 43c02f8c <hal_gic_init+0x248>
43c02d64:	e59f2220 	ldr	r2, [pc, #544]	; 43c02f8c <hal_gic_init+0x248>
43c02d68:	e5922054 	ldr	r2, [r2, #84]	; 0x54
43c02d6c:	e3c228ff 	bic	r2, r2, #16711680	; 0xff0000
43c02d70:	e5832054 	str	r2, [r3, #84]	; 0x54
	GICD_IPRIORITYR.IPRIORITYR21 |= (86 << 16);
43c02d74:	e59f3210 	ldr	r3, [pc, #528]	; 43c02f8c <hal_gic_init+0x248>
43c02d78:	e59f220c 	ldr	r2, [pc, #524]	; 43c02f8c <hal_gic_init+0x248>
43c02d7c:	e5922054 	ldr	r2, [r2, #84]	; 0x54
43c02d80:	e3822856 	orr	r2, r2, #5636096	; 0x560000
43c02d84:	e5832054 	str	r2, [r3, #84]	; 0x54
	// 3. 设置中断目标分配寄存器 GICD_ITARGETSR21[23:16]
	GICD_ITARGETSR.ITARGETSR21 &= (~(0xFF << 16));
43c02d88:	e59f3200 	ldr	r3, [pc, #512]	; 43c02f90 <hal_gic_init+0x24c>
43c02d8c:	e59f21fc 	ldr	r2, [pc, #508]	; 43c02f90 <hal_gic_init+0x24c>
43c02d90:	e5922054 	ldr	r2, [r2, #84]	; 0x54
43c02d94:	e3c228ff 	bic	r2, r2, #16711680	; 0xff0000
43c02d98:	e5832054 	str	r2, [r3, #84]	; 0x54
	GICD_ITARGETSR.ITARGETSR21 |= (0x1 << 16);
43c02d9c:	e59f31ec 	ldr	r3, [pc, #492]	; 43c02f90 <hal_gic_init+0x24c>
43c02da0:	e59f21e8 	ldr	r2, [pc, #488]	; 43c02f90 <hal_gic_init+0x24c>
43c02da4:	e5922054 	ldr	r2, [r2, #84]	; 0x54
43c02da8:	e3822801 	orr	r2, r2, #65536	; 0x10000
43c02dac:	e5832054 	str	r2, [r3, #84]	; 0x54

	//ADC中断源 中断号:73
	GICD_ISENABLER.ISENABLER2	 |= (0x1 << 9);//中断使能寄存器  GICD_ISENABLER2[9]
43c02db0:	e59f31d0 	ldr	r3, [pc, #464]	; 43c02f88 <hal_gic_init+0x244>
43c02db4:	e59f21cc 	ldr	r2, [pc, #460]	; 43c02f88 <hal_gic_init+0x244>
43c02db8:	e5922008 	ldr	r2, [r2, #8]
43c02dbc:	e3822c02 	orr	r2, r2, #512	; 0x200
43c02dc0:	e5832008 	str	r2, [r3, #8]
	GICD_IPRIORITYR.IPRIORITYR18 &= (~(0xFF << 8));//中断优先级寄存器GICD_IPRIORITYR18[15:8]
43c02dc4:	e59f31c0 	ldr	r3, [pc, #448]	; 43c02f8c <hal_gic_init+0x248>
43c02dc8:	e59f21bc 	ldr	r2, [pc, #444]	; 43c02f8c <hal_gic_init+0x248>
43c02dcc:	e5922048 	ldr	r2, [r2, #72]	; 0x48
43c02dd0:	e3c22cff 	bic	r2, r2, #65280	; 0xff00
43c02dd4:	e5832048 	str	r2, [r3, #72]	; 0x48
	GICD_IPRIORITYR.IPRIORITYR18 |= (73 << 8);
43c02dd8:	e59f31ac 	ldr	r3, [pc, #428]	; 43c02f8c <hal_gic_init+0x248>
43c02ddc:	e59f21a8 	ldr	r2, [pc, #424]	; 43c02f8c <hal_gic_init+0x248>
43c02de0:	e5922048 	ldr	r2, [r2, #72]	; 0x48
43c02de4:	e3822c49 	orr	r2, r2, #18688	; 0x4900
43c02de8:	e5832048 	str	r2, [r3, #72]	; 0x48
	GICD_ITARGETSR.ITARGETSR18   &= (~(0xFF << 8));//设置中断目标分配寄存器 GICD_ITARGETSR18[15:8]
43c02dec:	e59f319c 	ldr	r3, [pc, #412]	; 43c02f90 <hal_gic_init+0x24c>
43c02df0:	e59f2198 	ldr	r2, [pc, #408]	; 43c02f90 <hal_gic_init+0x24c>
43c02df4:	e5922048 	ldr	r2, [r2, #72]	; 0x48
43c02df8:	e3c22cff 	bic	r2, r2, #65280	; 0xff00
43c02dfc:	e5832048 	str	r2, [r3, #72]	; 0x48
	GICD_ITARGETSR.ITARGETSR18   |= (0x1 << 8);//cpu interface 0
43c02e00:	e59f3188 	ldr	r3, [pc, #392]	; 43c02f90 <hal_gic_init+0x24c>
43c02e04:	e59f2184 	ldr	r2, [pc, #388]	; 43c02f90 <hal_gic_init+0x24c>
43c02e08:	e5922048 	ldr	r2, [r2, #72]	; 0x48
43c02e0c:	e3822c01 	orr	r2, r2, #256	; 0x100
43c02e10:	e5832048 	str	r2, [r3, #72]	; 0x48

	//PWM2  中断号:61
	// 1. 设置GICD层61号对应的中断使能寄存器 GICD_ISENABLER1[29]
	GICD_ISENABLER.ISENABLER1 |= (0x1 << 29);
43c02e14:	e59f316c 	ldr	r3, [pc, #364]	; 43c02f88 <hal_gic_init+0x244>
43c02e18:	e59f2168 	ldr	r2, [pc, #360]	; 43c02f88 <hal_gic_init+0x244>
43c02e1c:	e5922004 	ldr	r2, [r2, #4]
43c02e20:	e3822202 	orr	r2, r2, #536870912	; 0x20000000
43c02e24:	e5832004 	str	r2, [r3, #4]
	// 2. 设置中断优先级寄存器 GICD_IPRIORITYR14[15:8]
	GICD_IPRIORITYR.IPRIORITYR14 &= (~(0xFF << 8));
43c02e28:	e59f315c 	ldr	r3, [pc, #348]	; 43c02f8c <hal_gic_init+0x248>
43c02e2c:	e59f2158 	ldr	r2, [pc, #344]	; 43c02f8c <hal_gic_init+0x248>
43c02e30:	e5922038 	ldr	r2, [r2, #56]	; 0x38
43c02e34:	e3c22cff 	bic	r2, r2, #65280	; 0xff00
43c02e38:	e5832038 	str	r2, [r3, #56]	; 0x38
	GICD_IPRIORITYR.IPRIORITYR14 |= (61 << 8);
43c02e3c:	e59f3148 	ldr	r3, [pc, #328]	; 43c02f8c <hal_gic_init+0x248>
43c02e40:	e59f2144 	ldr	r2, [pc, #324]	; 43c02f8c <hal_gic_init+0x248>
43c02e44:	e5922038 	ldr	r2, [r2, #56]	; 0x38
43c02e48:	e3822c3d 	orr	r2, r2, #15616	; 0x3d00
43c02e4c:	e5832038 	str	r2, [r3, #56]	; 0x38
	// 3. 设置中断目标分配寄存器 GICD_ITARGETSR14[15:8]
	GICD_ITARGETSR.ITARGETSR14 &= (~(0xFF << 8));
43c02e50:	e59f3138 	ldr	r3, [pc, #312]	; 43c02f90 <hal_gic_init+0x24c>
43c02e54:	e59f2134 	ldr	r2, [pc, #308]	; 43c02f90 <hal_gic_init+0x24c>
43c02e58:	e5922038 	ldr	r2, [r2, #56]	; 0x38
43c02e5c:	e3c22cff 	bic	r2, r2, #65280	; 0xff00
43c02e60:	e5832038 	str	r2, [r3, #56]	; 0x38
	GICD_ITARGETSR.ITARGETSR14 |= (0x1 << 8);
43c02e64:	e59f3124 	ldr	r3, [pc, #292]	; 43c02f90 <hal_gic_init+0x24c>
43c02e68:	e59f2120 	ldr	r2, [pc, #288]	; 43c02f90 <hal_gic_init+0x24c>
43c02e6c:	e5922038 	ldr	r2, [r2, #56]	; 0x38
43c02e70:	e3822c01 	orr	r2, r2, #256	; 0x100
43c02e74:	e5832038 	str	r2, [r3, #56]	; 0x38


	//PWM1 中断源 中断号:60
	GICD_ISENABLER.ISENABLER1    |= (0x1 << 28);//中断使能寄存器  GICD_ISENABLER1[28]
43c02e78:	e59f3108 	ldr	r3, [pc, #264]	; 43c02f88 <hal_gic_init+0x244>
43c02e7c:	e59f2104 	ldr	r2, [pc, #260]	; 43c02f88 <hal_gic_init+0x244>
43c02e80:	e5922004 	ldr	r2, [r2, #4]
43c02e84:	e3822201 	orr	r2, r2, #268435456	; 0x10000000
43c02e88:	e5832004 	str	r2, [r3, #4]
    GICD_IPRIORITYR.IPRIORITYR15 &= (~(0xFF <<0));//中断优先级寄存器GICD_IPRIORITYR15[7:0]
43c02e8c:	e59f30f8 	ldr	r3, [pc, #248]	; 43c02f8c <hal_gic_init+0x248>
43c02e90:	e59f20f4 	ldr	r2, [pc, #244]	; 43c02f8c <hal_gic_init+0x248>
43c02e94:	e592203c 	ldr	r2, [r2, #60]	; 0x3c
43c02e98:	e3c220ff 	bic	r2, r2, #255	; 0xff
43c02e9c:	e583203c 	str	r2, [r3, #60]	; 0x3c
    GICD_IPRIORITYR.IPRIORITYR15 |= (60 << 0);
43c02ea0:	e59f30e4 	ldr	r3, [pc, #228]	; 43c02f8c <hal_gic_init+0x248>
43c02ea4:	e59f20e0 	ldr	r2, [pc, #224]	; 43c02f8c <hal_gic_init+0x248>
43c02ea8:	e592203c 	ldr	r2, [r2, #60]	; 0x3c
43c02eac:	e382203c 	orr	r2, r2, #60	; 0x3c
43c02eb0:	e583203c 	str	r2, [r3, #60]	; 0x3c
	GICD_ITARGETSR.ITARGETSR15   &= (~(0xFF <<0));//设置中断目标分配寄存器 GICD_ITARGETSR15[7:0]
43c02eb4:	e59f30d4 	ldr	r3, [pc, #212]	; 43c02f90 <hal_gic_init+0x24c>
43c02eb8:	e59f20d0 	ldr	r2, [pc, #208]	; 43c02f90 <hal_gic_init+0x24c>
43c02ebc:	e592203c 	ldr	r2, [r2, #60]	; 0x3c
43c02ec0:	e3c220ff 	bic	r2, r2, #255	; 0xff
43c02ec4:	e583203c 	str	r2, [r3, #60]	; 0x3c
	GICD_ITARGETSR.ITARGETSR15   |= (0x1 << 0);
43c02ec8:	e59f30c0 	ldr	r3, [pc, #192]	; 43c02f90 <hal_gic_init+0x24c>
43c02ecc:	e59f20bc 	ldr	r2, [pc, #188]	; 43c02f90 <hal_gic_init+0x24c>
43c02ed0:	e592203c 	ldr	r2, [r2, #60]	; 0x3c
43c02ed4:	e3822001 	orr	r2, r2, #1
43c02ed8:	e583203c 	str	r2, [r3, #60]	; 0x3c
	
	//PWM0  中断号:59
	// 1. 设置GICD层59号对应的中断使能寄存器 GICD_ISENABLER1[27]
	GICD_ISENABLER.ISENABLER1 |= (0x1 << 27);
43c02edc:	e59f30a4 	ldr	r3, [pc, #164]	; 43c02f88 <hal_gic_init+0x244>
43c02ee0:	e59f20a0 	ldr	r2, [pc, #160]	; 43c02f88 <hal_gic_init+0x244>
43c02ee4:	e5922004 	ldr	r2, [r2, #4]
43c02ee8:	e3822302 	orr	r2, r2, #134217728	; 0x8000000
43c02eec:	e5832004 	str	r2, [r3, #4]
	// 2. 设置中断优先级寄存器 GICD_IPRIORITYR14[31:24]
	GICD_IPRIORITYR.IPRIORITYR14 &= (~(0xFF << 24));
43c02ef0:	e59f3094 	ldr	r3, [pc, #148]	; 43c02f8c <hal_gic_init+0x248>
43c02ef4:	e59f2090 	ldr	r2, [pc, #144]	; 43c02f8c <hal_gic_init+0x248>
43c02ef8:	e5922038 	ldr	r2, [r2, #56]	; 0x38
43c02efc:	e3c224ff 	bic	r2, r2, #-16777216	; 0xff000000
43c02f00:	e5832038 	str	r2, [r3, #56]	; 0x38
	GICD_IPRIORITYR.IPRIORITYR14 |= (59 << 24);
43c02f04:	e59f3080 	ldr	r3, [pc, #128]	; 43c02f8c <hal_gic_init+0x248>
43c02f08:	e59f207c 	ldr	r2, [pc, #124]	; 43c02f8c <hal_gic_init+0x248>
43c02f0c:	e5922038 	ldr	r2, [r2, #56]	; 0x38
43c02f10:	e382243b 	orr	r2, r2, #989855744	; 0x3b000000
43c02f14:	e5832038 	str	r2, [r3, #56]	; 0x38
	// 3. 设置中断目标分配寄存器 GICD_ITARGETSR14[31:24]
	GICD_ITARGETSR.ITARGETSR14 &= (~(0xFF << 24));
43c02f18:	e59f3070 	ldr	r3, [pc, #112]	; 43c02f90 <hal_gic_init+0x24c>
43c02f1c:	e59f206c 	ldr	r2, [pc, #108]	; 43c02f90 <hal_gic_init+0x24c>
43c02f20:	e5922038 	ldr	r2, [r2, #56]	; 0x38
43c02f24:	e3c224ff 	bic	r2, r2, #-16777216	; 0xff000000
43c02f28:	e5832038 	str	r2, [r3, #56]	; 0x38
	GICD_ITARGETSR.ITARGETSR14 |= (0x1 << 24);
43c02f2c:	e59f305c 	ldr	r3, [pc, #92]	; 43c02f90 <hal_gic_init+0x24c>
43c02f30:	e59f2058 	ldr	r2, [pc, #88]	; 43c02f90 <hal_gic_init+0x24c>
43c02f34:	e5922038 	ldr	r2, [r2, #56]	; 0x38
43c02f38:	e3822401 	orr	r2, r2, #16777216	; 0x1000000
43c02f3c:	e5832038 	str	r2, [r3, #56]	; 0x38
	
	// 4. 设置GICD层全局中断使能寄存器 GICD_CTRL[0]
	GICD_CTRL |= (0x1);
43c02f40:	e59f304c 	ldr	r3, [pc, #76]	; 43c02f94 <hal_gic_init+0x250>
43c02f44:	e59f2048 	ldr	r2, [pc, #72]	; 43c02f94 <hal_gic_init+0x250>
43c02f48:	e5922000 	ldr	r2, [r2]
43c02f4c:	e3822001 	orr	r2, r2, #1
43c02f50:	e5832000 	str	r2, [r3]

	// GICC
	// 5. 设置GICC层中断全局使能寄存器 GICC_CTRL[0]
	GICC_CTRL |= (0x1);
43c02f54:	e59f303c 	ldr	r3, [pc, #60]	; 43c02f98 <hal_gic_init+0x254>
43c02f58:	e59f2038 	ldr	r2, [pc, #56]	; 43c02f98 <hal_gic_init+0x254>
43c02f5c:	e5922000 	ldr	r2, [r2]
43c02f60:	e3822001 	orr	r2, r2, #1
43c02f64:	e5832000 	str	r2, [r3]
	// 6. 设置GICC层中断屏蔽寄存器  GICC_PMR[7:0]
	GICC_PMR |= (0xFF);//不屏蔽 优先级最低
43c02f68:	e59f302c 	ldr	r3, [pc, #44]	; 43c02f9c <hal_gic_init+0x258>
43c02f6c:	e59f2028 	ldr	r2, [pc, #40]	; 43c02f9c <hal_gic_init+0x258>
43c02f70:	e5922000 	ldr	r2, [r2]
43c02f74:	e38220ff 	orr	r2, r2, #255	; 0xff
43c02f78:	e5832000 	str	r2, [r3]
}
43c02f7c:	e28bd000 	add	sp, fp, #0
43c02f80:	e49db004 	pop	{fp}		; (ldr fp, [sp], #4)
43c02f84:	e12fff1e 	bx	lr
43c02f88:	c0009100 	andgt	r9, r0, r0, lsl #2
43c02f8c:	c0009400 	andgt	r9, r0, r0, lsl #8
43c02f90:	c0009800 	andgt	r9, r0, r0, lsl #16
43c02f94:	c0009000 	andgt	r9, r0, r0
43c02f98:	c000a000 	andgt	sl, r0, r0
43c02f9c:	c000a004 	andgt	sl, r0, r4

43c02fa0 <delay_ms>:
#include "delay.h"

 /*set delay time with for cycle*/
 void delay_ms(unsigned int ms)
 {
43c02fa0:	e52db004 	push	{fp}		; (str fp, [sp, #-4]!)
43c02fa4:	e28db000 	add	fp, sp, #0
43c02fa8:	e24dd00c 	sub	sp, sp, #12
43c02fac:	e50b000c 	str	r0, [fp, #-12]
     unsigned int i,j;
     //delay time = ms*1800
     for(i = 0; i < ms; i++)
43c02fb0:	e3a03000 	mov	r3, #0
43c02fb4:	e50b3004 	str	r3, [fp, #-4]
43c02fb8:	ea00000c 	b	43c02ff0 <delay_ms+0x50>
         for(j = 0; j < 1800; j++);
43c02fbc:	e3a03000 	mov	r3, #0
43c02fc0:	e50b3008 	str	r3, [fp, #-8]
43c02fc4:	ea000002 	b	43c02fd4 <delay_ms+0x34>
43c02fc8:	e51b3008 	ldr	r3, [fp, #-8]
43c02fcc:	e2833001 	add	r3, r3, #1
43c02fd0:	e50b3008 	str	r3, [fp, #-8]
43c02fd4:	e51b2008 	ldr	r2, [fp, #-8]
43c02fd8:	e59f302c 	ldr	r3, [pc, #44]	; 43c0300c <delay_ms+0x6c>
43c02fdc:	e1520003 	cmp	r2, r3
43c02fe0:	9afffff8 	bls	43c02fc8 <delay_ms+0x28>
 /*set delay time with for cycle*/
 void delay_ms(unsigned int ms)
 {
     unsigned int i,j;
     //delay time = ms*1800
     for(i = 0; i < ms; i++)
43c02fe4:	e51b3004 	ldr	r3, [fp, #-4]
43c02fe8:	e2833001 	add	r3, r3, #1
43c02fec:	e50b3004 	str	r3, [fp, #-4]
43c02ff0:	e51b2004 	ldr	r2, [fp, #-4]
43c02ff4:	e51b300c 	ldr	r3, [fp, #-12]
43c02ff8:	e1520003 	cmp	r2, r3
43c02ffc:	3affffee 	bcc	43c02fbc <delay_ms+0x1c>
         for(j = 0; j < 1800; j++);
 }
43c03000:	e28bd000 	add	sp, fp, #0
43c03004:	e49db004 	pop	{fp}		; (ldr fp, [sp], #4)
43c03008:	e12fff1e 	bx	lr
43c0300c:	00000707 	andeq	r0, r0, r7, lsl #14

43c03010 <hal_led_init>:
#include "led_on.h"

/*gpio */
void hal_led_init(void)
{
43c03010:	e52db004 	push	{fp}		; (str fp, [sp, #-4]!)
43c03014:	e28db000 	add	fp, sp, #0
	// GPIO引脚为GPIO功能
	//for red led A28 -------------Register ALTFN1[25:24] :: 00
	GPIOA.ALTFN1 &= ~(0x3 << 24);
43c03018:	e59f30cc 	ldr	r3, [pc, #204]	; 43c030ec <hal_led_init+0xdc>
43c0301c:	e59f20c8 	ldr	r2, [pc, #200]	; 43c030ec <hal_led_init+0xdc>
43c03020:	e5922024 	ldr	r2, [r2, #36]	; 0x24
43c03024:	e3c22403 	bic	r2, r2, #50331648	; 0x3000000
43c03028:	e5832024 	str	r2, [r3, #36]	; 0x24
	//for green len E13----------Register AlTFN0[27:26] :: 00
	GPIOE.ALTFN0 &= ~(0x3 << 26);
43c0302c:	e59f30bc 	ldr	r3, [pc, #188]	; 43c030f0 <hal_led_init+0xe0>
43c03030:	e59f20b8 	ldr	r2, [pc, #184]	; 43c030f0 <hal_led_init+0xe0>
43c03034:	e5922020 	ldr	r2, [r2, #32]
43c03038:	e3c22303 	bic	r2, r2, #201326592	; 0xc000000
43c0303c:	e5832020 	str	r2, [r3, #32]
	//for blue led B12------------Register AlTFN0[25:24] :: 10
	GPIOB.ALTFN0 |= (0x1 << 25);
43c03040:	e59f30ac 	ldr	r3, [pc, #172]	; 43c030f4 <hal_led_init+0xe4>
43c03044:	e59f20a8 	ldr	r2, [pc, #168]	; 43c030f4 <hal_led_init+0xe4>
43c03048:	e5922020 	ldr	r2, [r2, #32]
43c0304c:	e3822402 	orr	r2, r2, #33554432	; 0x2000000
43c03050:	e5832020 	str	r2, [r3, #32]
	GPIOB.ALTFN0 &= ~(0x1 << 24);
43c03054:	e59f3098 	ldr	r3, [pc, #152]	; 43c030f4 <hal_led_init+0xe4>
43c03058:	e59f2094 	ldr	r2, [pc, #148]	; 43c030f4 <hal_led_init+0xe4>
43c0305c:	e5922020 	ldr	r2, [r2, #32]
43c03060:	e3c22401 	bic	r2, r2, #16777216	; 0x1000000
43c03064:	e5832020 	str	r2, [r3, #32]
	// GPIO引脚为输出功能
	//for red led A28 Register OUTENB[28]:1
	GPIOA.OUTENB |= (0X1 << 28);
43c03068:	e59f307c 	ldr	r3, [pc, #124]	; 43c030ec <hal_led_init+0xdc>
43c0306c:	e59f2078 	ldr	r2, [pc, #120]	; 43c030ec <hal_led_init+0xdc>
43c03070:	e5922004 	ldr	r2, [r2, #4]
43c03074:	e3822201 	orr	r2, r2, #268435456	; 0x10000000
43c03078:	e5832004 	str	r2, [r3, #4]
	//for green led E13 Register OUTENB[13]:1
	GPIOE.OUTENB |= (0x1 << 13);
43c0307c:	e59f306c 	ldr	r3, [pc, #108]	; 43c030f0 <hal_led_init+0xe0>
43c03080:	e59f2068 	ldr	r2, [pc, #104]	; 43c030f0 <hal_led_init+0xe0>
43c03084:	e5922004 	ldr	r2, [r2, #4]
43c03088:	e3822a02 	orr	r2, r2, #8192	; 0x2000
43c0308c:	e5832004 	str	r2, [r3, #4]
	//for blue led B12 Register OUTENB[13]:1
	GPIOB.OUTENB |= (0x1 << 12);
43c03090:	e59f305c 	ldr	r3, [pc, #92]	; 43c030f4 <hal_led_init+0xe4>
43c03094:	e59f2058 	ldr	r2, [pc, #88]	; 43c030f4 <hal_led_init+0xe4>
43c03098:	e5922004 	ldr	r2, [r2, #4]
43c0309c:	e3822a01 	orr	r2, r2, #4096	; 0x1000
43c030a0:	e5832004 	str	r2, [r3, #4]
	//设置灯为熄灭状态
	GPIOA.OUT &= ~(0x1 << 28);
43c030a4:	e59f3040 	ldr	r3, [pc, #64]	; 43c030ec <hal_led_init+0xdc>
43c030a8:	e59f203c 	ldr	r2, [pc, #60]	; 43c030ec <hal_led_init+0xdc>
43c030ac:	e5922000 	ldr	r2, [r2]
43c030b0:	e3c22201 	bic	r2, r2, #268435456	; 0x10000000
43c030b4:	e5832000 	str	r2, [r3]
	GPIOE.OUT &= ~(0x1 << 13);
43c030b8:	e59f3030 	ldr	r3, [pc, #48]	; 43c030f0 <hal_led_init+0xe0>
43c030bc:	e59f202c 	ldr	r2, [pc, #44]	; 43c030f0 <hal_led_init+0xe0>
43c030c0:	e5922000 	ldr	r2, [r2]
43c030c4:	e3c22a02 	bic	r2, r2, #8192	; 0x2000
43c030c8:	e5832000 	str	r2, [r3]
	GPIOB.OUT &= ~(0x1 << 12);
43c030cc:	e59f3020 	ldr	r3, [pc, #32]	; 43c030f4 <hal_led_init+0xe4>
43c030d0:	e59f201c 	ldr	r2, [pc, #28]	; 43c030f4 <hal_led_init+0xe4>
43c030d4:	e5922000 	ldr	r2, [r2]
43c030d8:	e3c22a01 	bic	r2, r2, #4096	; 0x1000
43c030dc:	e5832000 	str	r2, [r3]
}
43c030e0:	e28bd000 	add	sp, fp, #0
43c030e4:	e49db004 	pop	{fp}		; (ldr fp, [sp], #4)
43c030e8:	e12fff1e 	bx	lr
43c030ec:	c001a000 	andgt	sl, r1, r0
43c030f0:	c001e000 	andgt	lr, r1, r0
43c030f4:	c001b000 	andgt	fp, r1, r0

43c030f8 <hal_red_led_stutes>:

void hal_red_led_stutes(stu_t stu)
{
43c030f8:	e52db004 	push	{fp}		; (str fp, [sp, #-4]!)
43c030fc:	e28db000 	add	fp, sp, #0
43c03100:	e24dd004 	sub	sp, sp, #4
43c03104:	e50b0004 	str	r0, [fp, #-4]
	if (stu == LED_ON){
43c03108:	e51b3004 	ldr	r3, [fp, #-4]
43c0310c:	e3530001 	cmp	r3, #1
43c03110:	1a000005 	bne	43c0312c <hal_red_led_stutes+0x34>
		//点亮  A28 Register OUT[28]:1
		GPIOA.OUT |= (0x1 << 28);
43c03114:	e59f3030 	ldr	r3, [pc, #48]	; 43c0314c <hal_red_led_stutes+0x54>
43c03118:	e59f202c 	ldr	r2, [pc, #44]	; 43c0314c <hal_red_led_stutes+0x54>
43c0311c:	e5922000 	ldr	r2, [r2]
43c03120:	e3822201 	orr	r2, r2, #268435456	; 0x10000000
43c03124:	e5832000 	str	r2, [r3]
43c03128:	ea000004 	b	43c03140 <hal_red_led_stutes+0x48>
	}
	else {
		// 熄灭  A28 Register OUT[28]:1
		GPIOA.OUT &= ~(0x1 << 28);
43c0312c:	e59f3018 	ldr	r3, [pc, #24]	; 43c0314c <hal_red_led_stutes+0x54>
43c03130:	e59f2014 	ldr	r2, [pc, #20]	; 43c0314c <hal_red_led_stutes+0x54>
43c03134:	e5922000 	ldr	r2, [r2]
43c03138:	e3c22201 	bic	r2, r2, #268435456	; 0x10000000
43c0313c:	e5832000 	str	r2, [r3]
	}
}
43c03140:	e28bd000 	add	sp, fp, #0
43c03144:	e49db004 	pop	{fp}		; (ldr fp, [sp], #4)
43c03148:	e12fff1e 	bx	lr
43c0314c:	c001a000 	andgt	sl, r1, r0

43c03150 <hal_green_led_stutes>:
void hal_green_led_stutes(stu_t stu)
{
43c03150:	e52db004 	push	{fp}		; (str fp, [sp, #-4]!)
43c03154:	e28db000 	add	fp, sp, #0
43c03158:	e24dd004 	sub	sp, sp, #4
43c0315c:	e50b0004 	str	r0, [fp, #-4]
	if (stu == LED_ON){
43c03160:	e51b3004 	ldr	r3, [fp, #-4]
43c03164:	e3530001 	cmp	r3, #1
43c03168:	1a000005 	bne	43c03184 <hal_green_led_stutes+0x34>
		//点亮  E13 Register OUT[13]:1
		GPIOE.OUT |= (0x1 << 13);
43c0316c:	e59f3030 	ldr	r3, [pc, #48]	; 43c031a4 <hal_green_led_stutes+0x54>
43c03170:	e59f202c 	ldr	r2, [pc, #44]	; 43c031a4 <hal_green_led_stutes+0x54>
43c03174:	e5922000 	ldr	r2, [r2]
43c03178:	e3822a02 	orr	r2, r2, #8192	; 0x2000
43c0317c:	e5832000 	str	r2, [r3]
43c03180:	ea000004 	b	43c03198 <hal_green_led_stutes+0x48>
	}
	else {
		// 熄灭  E13 Register OUT[13]:1
		GPIOE.OUT &= ~(0x1 << 13);
43c03184:	e59f3018 	ldr	r3, [pc, #24]	; 43c031a4 <hal_green_led_stutes+0x54>
43c03188:	e59f2014 	ldr	r2, [pc, #20]	; 43c031a4 <hal_green_led_stutes+0x54>
43c0318c:	e5922000 	ldr	r2, [r2]
43c03190:	e3c22a02 	bic	r2, r2, #8192	; 0x2000
43c03194:	e5832000 	str	r2, [r3]
	}
}
43c03198:	e28bd000 	add	sp, fp, #0
43c0319c:	e49db004 	pop	{fp}		; (ldr fp, [sp], #4)
43c031a0:	e12fff1e 	bx	lr
43c031a4:	c001e000 	andgt	lr, r1, r0

43c031a8 <hal_blue_led_stutes>:
void hal_blue_led_stutes(stu_t stu)
{
43c031a8:	e52db004 	push	{fp}		; (str fp, [sp, #-4]!)
43c031ac:	e28db000 	add	fp, sp, #0
43c031b0:	e24dd004 	sub	sp, sp, #4
43c031b4:	e50b0004 	str	r0, [fp, #-4]
	if (stu == LED_ON){
43c031b8:	e51b3004 	ldr	r3, [fp, #-4]
43c031bc:	e3530001 	cmp	r3, #1
43c031c0:	1a000005 	bne	43c031dc <hal_blue_led_stutes+0x34>
		//点亮  B12 Register OUT[12]:1
		GPIOB.OUT |= (0x1 << 12);
43c031c4:	e59f3030 	ldr	r3, [pc, #48]	; 43c031fc <hal_blue_led_stutes+0x54>
43c031c8:	e59f202c 	ldr	r2, [pc, #44]	; 43c031fc <hal_blue_led_stutes+0x54>
43c031cc:	e5922000 	ldr	r2, [r2]
43c031d0:	e3822a01 	orr	r2, r2, #4096	; 0x1000
43c031d4:	e5832000 	str	r2, [r3]
43c031d8:	ea000004 	b	43c031f0 <hal_blue_led_stutes+0x48>
	}
	else {
		// 熄灭  B12 Register OUT[12]:1
		GPIOB.OUT &= ~(0x1 << 12);
43c031dc:	e59f3018 	ldr	r3, [pc, #24]	; 43c031fc <hal_blue_led_stutes+0x54>
43c031e0:	e59f2014 	ldr	r2, [pc, #20]	; 43c031fc <hal_blue_led_stutes+0x54>
43c031e4:	e5922000 	ldr	r2, [r2]
43c031e8:	e3c22a01 	bic	r2, r2, #4096	; 0x1000
43c031ec:	e5832000 	str	r2, [r3]
	}
}
43c031f0:	e28bd000 	add	sp, fp, #0
43c031f4:	e49db004 	pop	{fp}		; (ldr fp, [sp], #4)
43c031f8:	e12fff1e 	bx	lr
43c031fc:	c001b000 	andgt	fp, r1, r0

43c03200 <red_led_on>:

void red_led_on(void)//红灯闪烁
{
43c03200:	e92d4800 	push	{fp, lr}
43c03204:	e28db004 	add	fp, sp, #4
	hal_red_led_stutes(1);
43c03208:	e3a00001 	mov	r0, #1
43c0320c:	ebffffb9 	bl	43c030f8 <hal_red_led_stutes>
	delay_ms(300);
43c03210:	e3a00f4b 	mov	r0, #300	; 0x12c
43c03214:	ebffff61 	bl	43c02fa0 <delay_ms>
	hal_red_led_stutes(0);
43c03218:	e3a00000 	mov	r0, #0
43c0321c:	ebffffb5 	bl	43c030f8 <hal_red_led_stutes>
	delay_ms(300);
43c03220:	e3a00f4b 	mov	r0, #300	; 0x12c
43c03224:	ebffff5d 	bl	43c02fa0 <delay_ms>

}
43c03228:	e8bd8800 	pop	{fp, pc}

43c0322c <green_led_on>:

void green_led_on(void)//绿灯闪烁
{
43c0322c:	e92d4800 	push	{fp, lr}
43c03230:	e28db004 	add	fp, sp, #4
	hal_green_led_stutes(1);
43c03234:	e3a00001 	mov	r0, #1
43c03238:	ebffffc4 	bl	43c03150 <hal_green_led_stutes>
	delay_ms(300);
43c0323c:	e3a00f4b 	mov	r0, #300	; 0x12c
43c03240:	ebffff56 	bl	43c02fa0 <delay_ms>
	hal_green_led_stutes(0);
43c03244:	e3a00000 	mov	r0, #0
43c03248:	ebffffc0 	bl	43c03150 <hal_green_led_stutes>
	delay_ms(300);
43c0324c:	e3a00f4b 	mov	r0, #300	; 0x12c
43c03250:	ebffff52 	bl	43c02fa0 <delay_ms>

}
43c03254:	e8bd8800 	pop	{fp, pc}

43c03258 <blue_led_on>:
void blue_led_on(void)//蓝灯闪烁
{
43c03258:	e92d4800 	push	{fp, lr}
43c0325c:	e28db004 	add	fp, sp, #4
	hal_blue_led_stutes(1);
43c03260:	e3a00001 	mov	r0, #1
43c03264:	ebffffcf 	bl	43c031a8 <hal_blue_led_stutes>
	delay_ms(300);
43c03268:	e3a00f4b 	mov	r0, #300	; 0x12c
43c0326c:	ebffff4b 	bl	43c02fa0 <delay_ms>
	hal_blue_led_stutes(0);
43c03270:	e3a00000 	mov	r0, #0
43c03274:	ebffffcb 	bl	43c031a8 <hal_blue_led_stutes>
	delay_ms(300);
43c03278:	e3a00f4b 	mov	r0, #300	; 0x12c
43c0327c:	ebffff47 	bl	43c02fa0 <delay_ms>

}
43c03280:	e8bd8800 	pop	{fp, pc}

43c03284 <led_change>:
void led_change(void)
{
43c03284:	e92d4800 	push	{fp, lr}
43c03288:	e28db004 	add	fp, sp, #4
	// 三色LED灯交替闪烁
	hal_red_led_stutes(1);
43c0328c:	e3a00001 	mov	r0, #1
43c03290:	ebffff98 	bl	43c030f8 <hal_red_led_stutes>
	delay_ms(300);
43c03294:	e3a00f4b 	mov	r0, #300	; 0x12c
43c03298:	ebffff40 	bl	43c02fa0 <delay_ms>
	hal_red_led_stutes(0);
43c0329c:	e3a00000 	mov	r0, #0
43c032a0:	ebffff94 	bl	43c030f8 <hal_red_led_stutes>
	hal_green_led_stutes(1);
43c032a4:	e3a00001 	mov	r0, #1
43c032a8:	ebffffa8 	bl	43c03150 <hal_green_led_stutes>
	delay_ms(300);
43c032ac:	e3a00f4b 	mov	r0, #300	; 0x12c
43c032b0:	ebffff3a 	bl	43c02fa0 <delay_ms>
	hal_green_led_stutes(0);
43c032b4:	e3a00000 	mov	r0, #0
43c032b8:	ebffffa4 	bl	43c03150 <hal_green_led_stutes>
	hal_blue_led_stutes(1);
43c032bc:	e3a00001 	mov	r0, #1
43c032c0:	ebffffb8 	bl	43c031a8 <hal_blue_led_stutes>
	delay_ms(300);
43c032c4:	e3a00f4b 	mov	r0, #300	; 0x12c
43c032c8:	ebffff34 	bl	43c02fa0 <delay_ms>
	hal_blue_led_stutes(0);
43c032cc:	e3a00000 	mov	r0, #0
43c032d0:	ebffffb4 	bl	43c031a8 <hal_blue_led_stutes>

}
43c032d4:	e8bd8800 	pop	{fp, pc}

43c032d8 <white_led_on>:

void white_led_on(void)//白灯闪烁   
{
43c032d8:	e92d4800 	push	{fp, lr}
43c032dc:	e28db004 	add	fp, sp, #4
	hal_red_led_stutes(1);
43c032e0:	e3a00001 	mov	r0, #1
43c032e4:	ebffff83 	bl	43c030f8 <hal_red_led_stutes>
	hal_green_led_stutes(1);
43c032e8:	e3a00001 	mov	r0, #1
43c032ec:	ebffff97 	bl	43c03150 <hal_green_led_stutes>
	hal_blue_led_stutes(1);
43c032f0:	e3a00001 	mov	r0, #1
43c032f4:	ebffffab 	bl	43c031a8 <hal_blue_led_stutes>
	delay_ms(300);
43c032f8:	e3a00f4b 	mov	r0, #300	; 0x12c
43c032fc:	ebffff27 	bl	43c02fa0 <delay_ms>
	hal_red_led_stutes(0);
43c03300:	e3a00000 	mov	r0, #0
43c03304:	ebffff7b 	bl	43c030f8 <hal_red_led_stutes>
	hal_green_led_stutes(0);
43c03308:	e3a00000 	mov	r0, #0
43c0330c:	ebffff8f 	bl	43c03150 <hal_green_led_stutes>
	hal_blue_led_stutes(0);
43c03310:	e3a00000 	mov	r0, #0
43c03314:	ebffffa3 	bl	43c031a8 <hal_blue_led_stutes>
	delay_ms(300);
43c03318:	e3a00f4b 	mov	r0, #300	; 0x12c
43c0331c:	ebffff1f 	bl	43c02fa0 <delay_ms>

}
43c03320:	e8bd8800 	pop	{fp, pc}

43c03324 <hal_adc_init>:
#include "adc.h"
#include "led_on.h"
#include "pwm_on.h"

void hal_adc_init(void)
{
43c03324:	e52db004 	push	{fp}		; (str fp, [sp, #-4]!)
43c03328:	e28db000 	add	fp, sp, #0
43c0332c:	e24dd004 	sub	sp, sp, #4
	// IP_RESET_REGISTER1 复位ADC控制器
	unsigned int *ip_reset1 = (unsigned int *)0xC0012004;
43c03330:	e59f30ec 	ldr	r3, [pc, #236]	; 43c03424 <hal_adc_init+0x100>
43c03334:	e50b3004 	str	r3, [fp, #-4]
	*ip_reset1 = *ip_reset1 & (~(0x1 <<28));
43c03338:	e51b3004 	ldr	r3, [fp, #-4]
43c0333c:	e5933000 	ldr	r3, [r3]
43c03340:	e3c32201 	bic	r2, r3, #268435456	; 0x10000000
43c03344:	e51b3004 	ldr	r3, [fp, #-4]
43c03348:	e5832000 	str	r2, [r3]
	*ip_reset1 = *ip_reset1 | (0x1 << 28);
43c0334c:	e51b3004 	ldr	r3, [fp, #-4]
43c03350:	e5933000 	ldr	r3, [r3]
43c03354:	e3832201 	orr	r2, r3, #268435456	; 0x10000000
43c03358:	e51b3004 	ldr	r3, [fp, #-4]
43c0335c:	e5832000 	str	r2, [r3]

	// 设置ADCDAT读取数据的延时时间  ADCCON[13:10]
	ADCCON &= ~(0xF << 10);
43c03360:	e59f30c0 	ldr	r3, [pc, #192]	; 43c03428 <hal_adc_init+0x104>
43c03364:	e59f20bc 	ldr	r2, [pc, #188]	; 43c03428 <hal_adc_init+0x104>
43c03368:	e5922000 	ldr	r2, [r2]
43c0336c:	e3c22b0f 	bic	r2, r2, #15360	; 0x3c00
43c03370:	e5832000 	str	r2, [r3]
	ADCCON |= (ADC_DATA_SEL << 10);//延时周期为5
43c03374:	e59f30ac 	ldr	r3, [pc, #172]	; 43c03428 <hal_adc_init+0x104>
43c03378:	e59f20a8 	ldr	r2, [pc, #168]	; 43c03428 <hal_adc_init+0x104>
43c0337c:	e5922000 	ldr	r2, [r2]
43c03380:	e5832000 	str	r2, [r3]
	// 设置ADC上电延时多少时钟才能开启ADC转换 ADCCON[9:6]
	ADCCON &= ~(0xF << 6);
43c03384:	e59f309c 	ldr	r3, [pc, #156]	; 43c03428 <hal_adc_init+0x104>
43c03388:	e59f2098 	ldr	r2, [pc, #152]	; 43c03428 <hal_adc_init+0x104>
43c0338c:	e5922000 	ldr	r2, [r2]
43c03390:	e3c22d0f 	bic	r2, r2, #960	; 0x3c0
43c03394:	e5832000 	str	r2, [r3]
	ADCCON |= (TOT_ADC_CLK_Cnt << 6);
43c03398:	e59f3088 	ldr	r3, [pc, #136]	; 43c03428 <hal_adc_init+0x104>
43c0339c:	e59f2084 	ldr	r2, [pc, #132]	; 43c03428 <hal_adc_init+0x104>
43c033a0:	e5922000 	ldr	r2, [r2]
43c033a4:	e3822d06 	orr	r2, r2, #384	; 0x180
43c033a8:	e5832000 	str	r2, [r3]
	// ADC模拟输入通道的选择 ADCCON[5:3]
	ADCCON &= ~(0x7 <<3);
43c033ac:	e59f3074 	ldr	r3, [pc, #116]	; 43c03428 <hal_adc_init+0x104>
43c033b0:	e59f2070 	ldr	r2, [pc, #112]	; 43c03428 <hal_adc_init+0x104>
43c033b4:	e5922000 	ldr	r2, [r2]
43c033b8:	e3c22038 	bic	r2, r2, #56	; 0x38
43c033bc:	e5832000 	str	r2, [r3]
	ADCCON |= (ASEL << 3);
43c033c0:	e59f3060 	ldr	r3, [pc, #96]	; 43c03428 <hal_adc_init+0x104>
43c033c4:	e59f205c 	ldr	r2, [pc, #92]	; 43c03428 <hal_adc_init+0x104>
43c033c8:	e5922000 	ldr	r2, [r2]
43c033cc:	e5832000 	str	r2, [r3]
	// 设置ADC分频器的分频值   PRESCALERCON[9:0]
	PRESCALERCON |= _PRESCALERCON;
43c033d0:	e59f3054 	ldr	r3, [pc, #84]	; 43c0342c <hal_adc_init+0x108>
43c033d4:	e59f2050 	ldr	r2, [pc, #80]	; 43c0342c <hal_adc_init+0x108>
43c033d8:	e5922000 	ldr	r2, [r2]
43c033dc:	e38220c7 	orr	r2, r2, #199	; 0xc7
43c033e0:	e5832000 	str	r2, [r3]
	// 设置ADC分频器的使能位  PRESCALERCON[15]
	PRESCALERCON |= (0x1 << 15);
43c033e4:	e59f3040 	ldr	r3, [pc, #64]	; 43c0342c <hal_adc_init+0x108>
43c033e8:	e59f203c 	ldr	r2, [pc, #60]	; 43c0342c <hal_adc_init+0x108>
43c033ec:	e5922000 	ldr	r2, [r2]
43c033f0:	e3822902 	orr	r2, r2, #32768	; 0x8000
43c033f4:	e5832000 	str	r2, [r3]
	// 开启ADC的电源  ADCCON[2]
	ADCCON &= ~(0x1 <<2);//0:power on
43c033f8:	e59f3028 	ldr	r3, [pc, #40]	; 43c03428 <hal_adc_init+0x104>
43c033fc:	e59f2024 	ldr	r2, [pc, #36]	; 43c03428 <hal_adc_init+0x104>
43c03400:	e5922000 	ldr	r2, [r2]
43c03404:	e3c22004 	bic	r2, r2, #4
43c03408:	e5832000 	str	r2, [r3]
	//中断使能 ADCINTENB[0]=1
	ADCINTENB = 0x1;
43c0340c:	e59f301c 	ldr	r3, [pc, #28]	; 43c03430 <hal_adc_init+0x10c>
43c03410:	e3a02001 	mov	r2, #1
43c03414:	e5832000 	str	r2, [r3]

//	printf("ADCCON =%ld \n",ADCCON);
//	printf("PRESCALERCON=%ld\n",PRESCALERCON);
}
43c03418:	e28bd000 	add	sp, fp, #0
43c0341c:	e49db004 	pop	{fp}		; (ldr fp, [sp], #4)
43c03420:	e12fff1e 	bx	lr
43c03424:	c0012004 	andgt	r2, r1, r4
43c03428:	c0053000 	andgt	r3, r5, r0
43c0342c:	c0053010 	andgt	r3, r5, r0, lsl r0
43c03430:	c0053008 	andgt	r3, r5, r8

43c03434 <get_adc_interrupt>:

//开启ADC转换  产生中断信号
void  get_adc_interrupt(void)
{
43c03434:	e52db004 	push	{fp}		; (str fp, [sp, #-4]!)
43c03438:	e28db000 	add	fp, sp, #0
	// 开启ADC转换  ADCCON[0]
	ADCCON |= 0x1;
43c0343c:	e59f3034 	ldr	r3, [pc, #52]	; 43c03478 <get_adc_interrupt+0x44>
43c03440:	e59f2030 	ldr	r2, [pc, #48]	; 43c03478 <get_adc_interrupt+0x44>
43c03444:	e5922000 	ldr	r2, [r2]
43c03448:	e3822001 	orr	r2, r2, #1
43c0344c:	e5832000 	str	r2, [r3]
	// 等待ADC转换结果  ADCCON[0]
	while((ADCCON & 0x1));//低电平的时候  发生中断信号 高电平的时候 等待转换完成
43c03450:	e1a00000 	nop			; (mov r0, r0)
43c03454:	e59f301c 	ldr	r3, [pc, #28]	; 43c03478 <get_adc_interrupt+0x44>
43c03458:	e5933000 	ldr	r3, [r3]
43c0345c:	e2033001 	and	r3, r3, #1
43c03460:	e20330ff 	and	r3, r3, #255	; 0xff
43c03464:	e3530000 	cmp	r3, #0
43c03468:	1afffff9 	bne	43c03454 <get_adc_interrupt+0x20>
}
43c0346c:	e28bd000 	add	sp, fp, #0
43c03470:	e49db004 	pop	{fp}		; (ldr fp, [sp], #4)
43c03474:	e12fff1e 	bx	lr
43c03478:	c0053000 	andgt	r3, r5, r0

43c0347c <get_adc_value>:

int  get_adc_value(void)
{
43c0347c:	e92d4800 	push	{fp, lr}
43c03480:	e28db004 	add	fp, sp, #4
43c03484:	e24dd004 	sub	sp, sp, #4
	// 开启ADC转换  ADCCON[0]
	ADCCON |= 0x1;
43c03488:	e59f3080 	ldr	r3, [pc, #128]	; 43c03510 <get_adc_value+0x94>
43c0348c:	e59f207c 	ldr	r2, [pc, #124]	; 43c03510 <get_adc_value+0x94>
43c03490:	e5922000 	ldr	r2, [r2]
43c03494:	e3822001 	orr	r2, r2, #1
43c03498:	e5832000 	str	r2, [r3]
	// 等待ADC转换结果  ADCCON[0]
	if(!(ADCCON & 0x1)) //低电平的时候  触发中断信号
43c0349c:	e59f306c 	ldr	r3, [pc, #108]	; 43c03510 <get_adc_value+0x94>
43c034a0:	e5933000 	ldr	r3, [r3]
43c034a4:	e2033001 	and	r3, r3, #1
43c034a8:	e3530000 	cmp	r3, #0
43c034ac:	1a000005 	bne	43c034c8 <get_adc_value+0x4c>
	{
		// 读取转换的数字量  ADCDAT[11:0]
		ADCDAT &= 0xFFF;
43c034b0:	e59f205c 	ldr	r2, [pc, #92]	; 43c03514 <get_adc_value+0x98>
43c034b4:	e59f3058 	ldr	r3, [pc, #88]	; 43c03514 <get_adc_value+0x98>
43c034b8:	e5933000 	ldr	r3, [r3]
43c034bc:	e1a03a03 	lsl	r3, r3, #20
43c034c0:	e1a03a23 	lsr	r3, r3, #20
43c034c4:	e5823000 	str	r3, [r2]

//	printf("ADCDAT =%d\n",ADCDAT);

	// 将数字量转换为模拟量进行输出

	int value = (int)(2 * ADCDAT * ((float)1800 / 4096));
43c034c8:	e59f3044 	ldr	r3, [pc, #68]	; 43c03514 <get_adc_value+0x98>
43c034cc:	e5933000 	ldr	r3, [r3]
43c034d0:	e1a03083 	lsl	r3, r3, #1
43c034d4:	ee073a90 	vmov	s15, r3
43c034d8:	eeb87a67 	vcvt.f32.u32	s14, s15
43c034dc:	eddf7a0a 	vldr	s15, [pc, #40]	; 43c0350c <get_adc_value+0x90>
43c034e0:	ee677a27 	vmul.f32	s15, s14, s15
43c034e4:	eefd7ae7 	vcvt.s32.f32	s15, s15
43c034e8:	ee173a90 	vmov	r3, s15
43c034ec:	e50b3008 	str	r3, [fp, #-8]
	// 直接使用printf函数打印模拟电压值到CRT工具中
	printf("转换后的ADC电压值 = %d\n",value);
43c034f0:	e59f0020 	ldr	r0, [pc, #32]	; 43c03518 <get_adc_value+0x9c>
43c034f4:	e51b1008 	ldr	r1, [fp, #-8]
43c034f8:	ebfff7fc 	bl	43c014f0 <printf>

	return value;
43c034fc:	e51b3008 	ldr	r3, [fp, #-8]
}
43c03500:	e1a00003 	mov	r0, r3
43c03504:	e24bd004 	sub	sp, fp, #4
43c03508:	e8bd8800 	pop	{fp, pc}
43c0350c:	3ee10000 	cdpcc	0, 14, cr0, cr1, cr0, {0}
43c03510:	c0053000 	andgt	r3, r5, r0
43c03514:	c0053004 	andgt	r3, r5, r4
43c03518:	43c03c58 	bicmi	r3, r0, #88, 24	; 0x5800

43c0351c <voltage_control_init>:

//初始化并得到相应的报警电压阀值
int voltage_control_init(voltageFlg_t voltageFlg)
{
43c0351c:	e52db004 	push	{fp}		; (str fp, [sp, #-4]!)
43c03520:	e28db000 	add	fp, sp, #0
43c03524:	e24dd008 	sub	sp, sp, #8
43c03528:	e50b0008 	str	r0, [fp, #-8]
	int vlotage_value = 0;
43c0352c:	e3a03000 	mov	r3, #0
43c03530:	e50b3004 	str	r3, [fp, #-4]
	switch(voltageFlg)
43c03534:	e51b3008 	ldr	r3, [fp, #-8]
43c03538:	e2433001 	sub	r3, r3, #1
43c0353c:	e3530004 	cmp	r3, #4
43c03540:	979ff103 	ldrls	pc, [pc, r3, lsl #2]
43c03544:	ea000013 	b	43c03598 <voltage_control_init+0x7c>
43c03548:	43c0355c 	bicmi	r3, r0, #92, 10	; 0x17000000
43c0354c:	43c03568 	bicmi	r3, r0, #104, 10	; 0x1a000000
43c03550:	43c03574 	bicmi	r3, r0, #116, 10	; 0x1d000000
43c03554:	43c03580 	bicmi	r3, r0, #128, 10	; 0x20000000
43c03558:	43c0358c 	bicmi	r3, r0, #140, 10	; 0x23000000
	{
		case LOWVOLTAGE_DOWN_FLG:
			vlotage_value = LOWVOLTAGE_DOWN_INIT;
43c0355c:	e3a03000 	mov	r3, #0
43c03560:	e50b3004 	str	r3, [fp, #-4]
			break;
43c03564:	ea00000c 	b	43c0359c <voltage_control_init+0x80>
		case LOWVOLTAGE_UP_FLG:
			vlotage_value = LOWVOLTAGE_UP_INIT;
43c03568:	e3a03ffa 	mov	r3, #1000	; 0x3e8
43c0356c:	e50b3004 	str	r3, [fp, #-4]
			break;
43c03570:	ea000009 	b	43c0359c <voltage_control_init+0x80>
		case MIDDLEVOLTAGE_FLG:
			vlotage_value = MIDDLEVOLTAGE_INIT;
43c03574:	e3a03e7d 	mov	r3, #2000	; 0x7d0
43c03578:	e50b3004 	str	r3, [fp, #-4]
			break;
43c0357c:	ea000006 	b	43c0359c <voltage_control_init+0x80>
		case HIGHVOLTAGE_DOWN_FLG:
			vlotage_value = HIGHVOLTAGE_DOWN_INIT;
43c03580:	e59f3028 	ldr	r3, [pc, #40]	; 43c035b0 <voltage_control_init+0x94>
43c03584:	e50b3004 	str	r3, [fp, #-4]
			break;
43c03588:	ea000003 	b	43c0359c <voltage_control_init+0x80>
		case HIGHVOLTAGE_UP_FLG:
			vlotage_value = HIGHVOLTAGE_UP_INIT;
43c0358c:	e59f3020 	ldr	r3, [pc, #32]	; 43c035b4 <voltage_control_init+0x98>
43c03590:	e50b3004 	str	r3, [fp, #-4]
			break;
43c03594:	ea000000 	b	43c0359c <voltage_control_init+0x80>
		default:
			break;
43c03598:	e1a00000 	nop			; (mov r0, r0)
	}
	return vlotage_value;
43c0359c:	e51b3004 	ldr	r3, [fp, #-4]
}
43c035a0:	e1a00003 	mov	r0, r3
43c035a4:	e28bd000 	add	sp, fp, #0
43c035a8:	e49db004 	pop	{fp}		; (ldr fp, [sp], #4)
43c035ac:	e12fff1e 	bx	lr
43c035b0:	00000bb8 			; <UNDEFINED> instruction: 0x00000bb8
43c035b4:	00000ce4 	andeq	r0, r0, r4, ror #25

43c035b8 <voltage_control>:
//电压检测函数
void voltage_control(int voltage_adc,int lowdown,int lowdup,int middle,int highdown,int highup)
{
43c035b8:	e92d4800 	push	{fp, lr}
43c035bc:	e28db004 	add	fp, sp, #4
43c035c0:	e24dd014 	sub	sp, sp, #20
43c035c4:	e50b0008 	str	r0, [fp, #-8]
43c035c8:	e50b100c 	str	r1, [fp, #-12]
43c035cc:	e50b2010 	str	r2, [fp, #-16]
43c035d0:	e50b3014 	str	r3, [fp, #-20]	; 0xffffffec
	printf("lowdown = %d  lowdup = %d  highdown = %d  highup = %d  \n",lowdown,lowdup,highdown,highup);
43c035d4:	e59b3008 	ldr	r3, [fp, #8]
43c035d8:	e58d3000 	str	r3, [sp]
43c035dc:	e59f0114 	ldr	r0, [pc, #276]	; 43c036f8 <voltage_control+0x140>
43c035e0:	e51b100c 	ldr	r1, [fp, #-12]
43c035e4:	e51b2010 	ldr	r2, [fp, #-16]
43c035e8:	e59b3004 	ldr	r3, [fp, #4]
43c035ec:	ebfff7bf 	bl	43c014f0 <printf>
	if((voltage_adc>=lowdown)&&(voltage_adc<=lowdup))
43c035f0:	e51b2008 	ldr	r2, [fp, #-8]
43c035f4:	e51b300c 	ldr	r3, [fp, #-12]
43c035f8:	e1520003 	cmp	r2, r3
43c035fc:	ba00000b 	blt	43c03630 <voltage_control+0x78>
43c03600:	e51b2008 	ldr	r2, [fp, #-8]
43c03604:	e51b3010 	ldr	r3, [fp, #-16]
43c03608:	e1520003 	cmp	r2, r3
43c0360c:	ca000007 	bgt	43c03630 <voltage_control+0x78>
	{   
		printf("红灯闪烁\n");
43c03610:	e59f00e4 	ldr	r0, [pc, #228]	; 43c036fc <voltage_control+0x144>
43c03614:	ebfff7b5 	bl	43c014f0 <printf>
		hal_led_init();//重新初始化
43c03618:	ebfffe7c 	bl	43c03010 <hal_led_init>
		red_led_on();//红灯闪烁
43c0361c:	ebfffef7 	bl	43c03200 <red_led_on>
		hal_pwm2_on(249,299);//打开蜂鸣器 1000HZ
43c03620:	e3a000f9 	mov	r0, #249	; 0xf9
43c03624:	e59f10d4 	ldr	r1, [pc, #212]	; 43c03700 <voltage_control+0x148>
43c03628:	ebfffd10 	bl	43c02a70 <hal_pwm2_on>
43c0362c:	ea00002f 	b	43c036f0 <voltage_control+0x138>
	}
	else if((voltage_adc>lowdup)&&(voltage_adc<=middle))
43c03630:	e51b2008 	ldr	r2, [fp, #-8]
43c03634:	e51b3010 	ldr	r3, [fp, #-16]
43c03638:	e1520003 	cmp	r2, r3
43c0363c:	da000009 	ble	43c03668 <voltage_control+0xb0>
43c03640:	e51b2008 	ldr	r2, [fp, #-8]
43c03644:	e51b3014 	ldr	r3, [fp, #-20]	; 0xffffffec
43c03648:	e1520003 	cmp	r2, r3
43c0364c:	ca000005 	bgt	43c03668 <voltage_control+0xb0>
	{   
		printf("绿灯闪烁\n");
43c03650:	e59f00ac 	ldr	r0, [pc, #172]	; 43c03704 <voltage_control+0x14c>
43c03654:	ebfff7a5 	bl	43c014f0 <printf>
		hal_led_init();//重新初始化
43c03658:	ebfffe6c 	bl	43c03010 <hal_led_init>
		green_led_on();
43c0365c:	ebfffef2 	bl	43c0322c <green_led_on>
		hal_pwm_off();//关掉蜂鸣器
43c03660:	ebfffd56 	bl	43c02bc0 <hal_pwm_off>
43c03664:	ea000021 	b	43c036f0 <voltage_control+0x138>
	}
	else if((voltage_adc>middle)&&(voltage_adc<=highdown))
43c03668:	e51b2008 	ldr	r2, [fp, #-8]
43c0366c:	e51b3014 	ldr	r3, [fp, #-20]	; 0xffffffec
43c03670:	e1520003 	cmp	r2, r3
43c03674:	da000009 	ble	43c036a0 <voltage_control+0xe8>
43c03678:	e51b2008 	ldr	r2, [fp, #-8]
43c0367c:	e59b3004 	ldr	r3, [fp, #4]
43c03680:	e1520003 	cmp	r2, r3
43c03684:	ca000005 	bgt	43c036a0 <voltage_control+0xe8>
	{   
		printf("蓝灯闪烁\n");
43c03688:	e59f0078 	ldr	r0, [pc, #120]	; 43c03708 <voltage_control+0x150>
43c0368c:	ebfff797 	bl	43c014f0 <printf>
		hal_led_init();//重新初始化
43c03690:	ebfffe5e 	bl	43c03010 <hal_led_init>
		blue_led_on();
43c03694:	ebfffeef 	bl	43c03258 <blue_led_on>
		hal_pwm_off();//关掉蜂鸣器
43c03698:	ebfffd48 	bl	43c02bc0 <hal_pwm_off>
43c0369c:	ea000013 	b	43c036f0 <voltage_control+0x138>
	}
	else if((voltage_adc>highdown)&&(voltage_adc<=highup))
43c036a0:	e51b2008 	ldr	r2, [fp, #-8]
43c036a4:	e59b3004 	ldr	r3, [fp, #4]
43c036a8:	e1520003 	cmp	r2, r3
43c036ac:	da00000b 	ble	43c036e0 <voltage_control+0x128>
43c036b0:	e51b2008 	ldr	r2, [fp, #-8]
43c036b4:	e59b3008 	ldr	r3, [fp, #8]
43c036b8:	e1520003 	cmp	r2, r3
43c036bc:	ca000007 	bgt	43c036e0 <voltage_control+0x128>
	{
		printf("白灯闪烁\n");                                               
43c036c0:	e59f0044 	ldr	r0, [pc, #68]	; 43c0370c <voltage_control+0x154>
43c036c4:	ebfff789 	bl	43c014f0 <printf>
		hal_led_init();//重新初始化
43c036c8:	ebfffe50 	bl	43c03010 <hal_led_init>
		white_led_on();
43c036cc:	ebffff01 	bl	43c032d8 <white_led_on>
		hal_pwm2_on(249,149);//打开蜂鸣器 2000HZ
43c036d0:	e3a000f9 	mov	r0, #249	; 0xf9
43c036d4:	e3a01095 	mov	r1, #149	; 0x95
43c036d8:	ebfffce4 	bl	43c02a70 <hal_pwm2_on>
43c036dc:	ea000003 	b	43c036f0 <voltage_control+0x138>
	}
	else
	{
		printf("电压过载或者过低,三色灯闪烁\n");
43c036e0:	e59f0028 	ldr	r0, [pc, #40]	; 43c03710 <voltage_control+0x158>
43c036e4:	ebfff781 	bl	43c014f0 <printf>
		led_change();
43c036e8:	ebfffee5 	bl	43c03284 <led_change>
		hal_pwm_off();//关掉蜂鸣器
43c036ec:	ebfffd33 	bl	43c02bc0 <hal_pwm_off>
	}

}
43c036f0:	e24bd004 	sub	sp, fp, #4
43c036f4:	e8bd8800 	pop	{fp, pc}
43c036f8:	43c03c78 	bicmi	r3, r0, #120, 24	; 0x7800
43c036fc:	43c03cb4 	bicmi	r3, r0, #180, 24	; 0xb400
43c03700:	0000012b 	andeq	r0, r0, fp, lsr #2
43c03704:	43c03cc4 	bicmi	r3, r0, #196, 24	; 0xc400
43c03708:	43c03cd4 	bicmi	r3, r0, #212, 24	; 0xd400
43c0370c:	43c03ce4 	bicmi	r3, r0, #228, 24	; 0xe400
43c03710:	43c03cf4 	bicmi	r3, r0, #244, 24	; 0xf400

43c03714 <voltage_changeByUart>:


int voltage_changeByUart(const char* CommandValue,int command_num,int voltage_Change_value)//将命令参数转换为整形ADC电压数值
{
43c03714:	e92d4800 	push	{fp, lr}
43c03718:	e28db004 	add	fp, sp, #4
43c0371c:	e24dd014 	sub	sp, sp, #20
43c03720:	e50b0010 	str	r0, [fp, #-16]
43c03724:	e50b1014 	str	r1, [fp, #-20]	; 0xffffffec
43c03728:	e50b2018 	str	r2, [fp, #-24]	; 0xffffffe8
	const char *ptr =CommandValue;
43c0372c:	e51b3010 	ldr	r3, [fp, #-16]
43c03730:	e50b3008 	str	r3, [fp, #-8]
	//printf("转换带参数的ADC数值:%c\n",*ptr);

    int  num = 0;
43c03734:	e3a03000 	mov	r3, #0
43c03738:	e50b300c 	str	r3, [fp, #-12]
    if((*ptr >= '0')&&(*ptr <= '9'))//如果是数字
43c0373c:	e51b3008 	ldr	r3, [fp, #-8]
43c03740:	e5d33000 	ldrb	r3, [r3]
43c03744:	e353002f 	cmp	r3, #47	; 0x2f
43c03748:	9a00001b 	bls	43c037bc <voltage_changeByUart+0xa8>
43c0374c:	e51b3008 	ldr	r3, [fp, #-8]
43c03750:	e5d33000 	ldrb	r3, [r3]
43c03754:	e3530039 	cmp	r3, #57	; 0x39
43c03758:	8a000017 	bhi	43c037bc <voltage_changeByUart+0xa8>
    {
        while(*ptr != '\0')
43c0375c:	ea00000d 	b	43c03798 <voltage_changeByUart+0x84>
        {
            num = num * 10 + ( *ptr - '0');
43c03760:	e51b200c 	ldr	r2, [fp, #-12]
43c03764:	e1a03002 	mov	r3, r2
43c03768:	e1a03103 	lsl	r3, r3, #2
43c0376c:	e0833002 	add	r3, r3, r2
43c03770:	e1a03083 	lsl	r3, r3, #1
43c03774:	e1a02003 	mov	r2, r3
43c03778:	e51b3008 	ldr	r3, [fp, #-8]
43c0377c:	e5d33000 	ldrb	r3, [r3]
43c03780:	e2433030 	sub	r3, r3, #48	; 0x30
43c03784:	e0823003 	add	r3, r2, r3
43c03788:	e50b300c 	str	r3, [fp, #-12]
            ptr++;
43c0378c:	e51b3008 	ldr	r3, [fp, #-8]
43c03790:	e2833001 	add	r3, r3, #1
43c03794:	e50b3008 	str	r3, [fp, #-8]
	//printf("转换带参数的ADC数值:%c\n",*ptr);

    int  num = 0;
    if((*ptr >= '0')&&(*ptr <= '9'))//如果是数字
    {
        while(*ptr != '\0')
43c03798:	e51b3008 	ldr	r3, [fp, #-8]
43c0379c:	e5d33000 	ldrb	r3, [r3]
43c037a0:	e3530000 	cmp	r3, #0
43c037a4:	1affffed 	bne	43c03760 <voltage_changeByUart+0x4c>
		printf("电压阀值参数是:%d\n",num);
		return num;
    }


    if(num>3300)//大于最高范围的电压阀值
43c037a8:	e51b200c 	ldr	r2, [fp, #-12]
43c037ac:	e59f3130 	ldr	r3, [pc, #304]	; 43c038e4 <voltage_changeByUart+0x1d0>
43c037b0:	e1520003 	cmp	r2, r3
43c037b4:	ca000009 	bgt	43c037e0 <voltage_changeByUart+0xcc>
43c037b8:	ea00000c 	b	43c037f0 <voltage_changeByUart+0xdc>
            ptr++;
        }
    }
    else
    {
        printf("改变的电压阀值不是数字,请重新输入命令\n");
43c037bc:	e59f0124 	ldr	r0, [pc, #292]	; 43c038e8 <voltage_changeByUart+0x1d4>
43c037c0:	ebfff74a 	bl	43c014f0 <printf>
		//voltage_error = VLOTAGE_ERRORVALUE;//非法的电压阀值
		num = VLOTAGE_ERRORVALUE;//非法的电压阀值
43c037c4:	e59f3120 	ldr	r3, [pc, #288]	; 43c038ec <voltage_changeByUart+0x1d8>
43c037c8:	e50b300c 	str	r3, [fp, #-12]
		printf("电压阀值参数是:%d\n",num);
43c037cc:	e59f011c 	ldr	r0, [pc, #284]	; 43c038f0 <voltage_changeByUart+0x1dc>
43c037d0:	e51b100c 	ldr	r1, [fp, #-12]
43c037d4:	ebfff745 	bl	43c014f0 <printf>
		return num;
43c037d8:	e51b300c 	ldr	r3, [fp, #-12]
43c037dc:	ea00003d 	b	43c038d8 <voltage_changeByUart+0x1c4>
    }


    if(num>3300)//大于最高范围的电压阀值
    {
        printf("改变的电压阀值不能超过3.3V,请重新输入命令\n");
43c037e0:	e59f010c 	ldr	r0, [pc, #268]	; 43c038f4 <voltage_changeByUart+0x1e0>
43c037e4:	ebfff741 	bl	43c014f0 <printf>
        num = VOLTAGE_OVERFLOW;                            
43c037e8:	e59f3108 	ldr	r3, [pc, #264]	; 43c038f8 <voltage_changeByUart+0x1e4>
43c037ec:	e50b300c 	str	r3, [fp, #-12]
    }

	if(command_num == COMMAND_CHANGE_LOWDOWN)//如果修改的是低电压报警下限阀值  则 修改的数值不能高于1000 不能低于0   0v~ 1v
43c037f0:	e51b3014 	ldr	r3, [fp, #-20]	; 0xffffffec
43c037f4:	e3530009 	cmp	r3, #9
43c037f8:	1a00000a 	bne	43c03828 <voltage_changeByUart+0x114>
	{
		if((num<0) || (num>=1000))
43c037fc:	e51b300c 	ldr	r3, [fp, #-12]
43c03800:	e3530000 	cmp	r3, #0
43c03804:	ba000003 	blt	43c03818 <voltage_changeByUart+0x104>
43c03808:	e51b200c 	ldr	r2, [fp, #-12]
43c0380c:	e59f30e8 	ldr	r3, [pc, #232]	; 43c038fc <voltage_changeByUart+0x1e8>
43c03810:	e1520003 	cmp	r2, r3
43c03814:	da000003 	ble	43c03828 <voltage_changeByUart+0x114>
		{
			printf("改变的低电压报警下限阀值错误，不能低于0 不能高于1000\n");
43c03818:	e59f00e0 	ldr	r0, [pc, #224]	; 43c03900 <voltage_changeByUart+0x1ec>
43c0381c:	ebfff733 	bl	43c014f0 <printf>
			num = VOLTAGE_CHANGELOWDOWN_ERROR;
43c03820:	e59f30dc 	ldr	r3, [pc, #220]	; 43c03904 <voltage_changeByUart+0x1f0>
43c03824:	e50b300c 	str	r3, [fp, #-12]
		}
	}

    if(command_num == COMMAND_CHANGE_LOWUP)//如果修改的是低电压报警上限阀值  则 修改的数值不能高于2000  不能低于1000   1v~2v
43c03828:	e51b3014 	ldr	r3, [fp, #-20]	; 0xffffffec
43c0382c:	e353000a 	cmp	r3, #10
43c03830:	1a00000a 	bne	43c03860 <voltage_changeByUart+0x14c>
    {
        if((num<=1000) || (num>=2000))
43c03834:	e51b300c 	ldr	r3, [fp, #-12]
43c03838:	e3530ffa 	cmp	r3, #1000	; 0x3e8
43c0383c:	da000003 	ble	43c03850 <voltage_changeByUart+0x13c>
43c03840:	e51b200c 	ldr	r2, [fp, #-12]
43c03844:	e59f30bc 	ldr	r3, [pc, #188]	; 43c03908 <voltage_changeByUart+0x1f4>
43c03848:	e1520003 	cmp	r2, r3
43c0384c:	da000003 	ble	43c03860 <voltage_changeByUart+0x14c>
        {
            printf("改变的低电压报警上限阀值错误，不能低于1000 不能高于2000\n");
43c03850:	e59f00b4 	ldr	r0, [pc, #180]	; 43c0390c <voltage_changeByUart+0x1f8>
43c03854:	ebfff725 	bl	43c014f0 <printf>
            num = VOLTAGE_CHANGELOWUP_ERROR;
43c03858:	e59f30b0 	ldr	r3, [pc, #176]	; 43c03910 <voltage_changeByUart+0x1fc>
43c0385c:	e50b300c 	str	r3, [fp, #-12]
        }
    }

    if(command_num == COMMAND_CHANGE_HIGHDOWN)//如果修改的是高电压报警下限阀值  则 修改的数值不能高于3000V  不能高于2000  2v~3v
43c03860:	e51b3014 	ldr	r3, [fp, #-20]	; 0xffffffec
43c03864:	e353000b 	cmp	r3, #11
43c03868:	1a00000a 	bne	43c03898 <voltage_changeByUart+0x184>
    {
        if((num<=2000) || (num>=3000))
43c0386c:	e51b300c 	ldr	r3, [fp, #-12]
43c03870:	e3530e7d 	cmp	r3, #2000	; 0x7d0
43c03874:	da000003 	ble	43c03888 <voltage_changeByUart+0x174>
43c03878:	e51b200c 	ldr	r2, [fp, #-12]
43c0387c:	e59f3090 	ldr	r3, [pc, #144]	; 43c03914 <voltage_changeByUart+0x200>
43c03880:	e1520003 	cmp	r2, r3
43c03884:	da000003 	ble	43c03898 <voltage_changeByUart+0x184>
        {
            printf("改变的高电压报警下限阀值错误，不能低于2000  不能高于3000\n");
43c03888:	e59f0088 	ldr	r0, [pc, #136]	; 43c03918 <voltage_changeByUart+0x204>
43c0388c:	ebfff717 	bl	43c014f0 <printf>
            num = VOLTAGE_CHANGEHIGHDOWN_ERROR;
43c03890:	e59f3084 	ldr	r3, [pc, #132]	; 43c0391c <voltage_changeByUart+0x208>
43c03894:	e50b300c 	str	r3, [fp, #-12]
        }
    }

    if(command_num == COMMAND_CHANGE_HIGHUP)//如果修改的是高电压报警上限阀值  则 修改的数值不能高于3300V  不能低于3000  3v~3.3v
43c03898:	e51b3014 	ldr	r3, [fp, #-20]	; 0xffffffec
43c0389c:	e353000c 	cmp	r3, #12
43c038a0:	1a00000b 	bne	43c038d4 <voltage_changeByUart+0x1c0>
    {
        if((num<=3000) || (num>=3300))
43c038a4:	e51b200c 	ldr	r2, [fp, #-12]
43c038a8:	e59f3070 	ldr	r3, [pc, #112]	; 43c03920 <voltage_changeByUart+0x20c>
43c038ac:	e1520003 	cmp	r2, r3
43c038b0:	da000003 	ble	43c038c4 <voltage_changeByUart+0x1b0>
43c038b4:	e51b200c 	ldr	r2, [fp, #-12]
43c038b8:	e59f3064 	ldr	r3, [pc, #100]	; 43c03924 <voltage_changeByUart+0x210>
43c038bc:	e1520003 	cmp	r2, r3
43c038c0:	da000003 	ble	43c038d4 <voltage_changeByUart+0x1c0>
        {
            printf("改变的高电压报警上限阀值错误，不能低于3000 不能高于3300\n");
43c038c4:	e59f005c 	ldr	r0, [pc, #92]	; 43c03928 <voltage_changeByUart+0x214>
43c038c8:	ebfff708 	bl	43c014f0 <printf>
            num = VOLTAGE_CHANGEHIGHUP_ERROR;
43c038cc:	e59f3058 	ldr	r3, [pc, #88]	; 43c0392c <voltage_changeByUart+0x218>
43c038d0:	e50b300c 	str	r3, [fp, #-12]
        }
    }

	//printf("电压阀值参数是:%d\n",num);
    return num;
43c038d4:	e51b300c 	ldr	r3, [fp, #-12]
}
43c038d8:	e1a00003 	mov	r0, r3
43c038dc:	e24bd004 	sub	sp, fp, #4
43c038e0:	e8bd8800 	pop	{fp, pc}
43c038e4:	00000ce4 	andeq	r0, r0, r4, ror #25
43c038e8:	43c03d20 	bicmi	r3, r0, #32, 26	; 0x800
43c038ec:	000022b8 			; <UNDEFINED> instruction: 0x000022b8
43c038f0:	43c03d5c 	bicmi	r3, r0, #92, 26	; 0x1700
43c038f4:	43c03d78 	bicmi	r3, r0, #120, 26	; 0x1e00
43c038f8:	0000270f 	andeq	r2, r0, pc, lsl #14
43c038fc:	000003e7 	andeq	r0, r0, r7, ror #7
43c03900:	43c03db8 	bicmi	r3, r0, #184, 26	; 0x2e00
43c03904:	00001e61 	andeq	r1, r0, r1, ror #28
43c03908:	000007cf 	andeq	r0, r0, pc, asr #15
43c0390c:	43c03e08 	bicmi	r3, r0, #8, 28	; 0x80
43c03910:	00001e60 	andeq	r1, r0, r0, ror #28
43c03914:	00000bb7 			; <UNDEFINED> instruction: 0x00000bb7
43c03918:	43c03e58 	bicmi	r3, r0, #88, 28	; 0x580
43c0391c:	00001e5f 	andeq	r1, r0, pc, asr lr
43c03920:	00000bb8 			; <UNDEFINED> instruction: 0x00000bb8
43c03924:	00000ce3 	andeq	r0, r0, r3, ror #25
43c03928:	43c03eac 	bicmi	r3, r0, #172, 28	; 0xac0
43c0392c:	00001e5e 	andeq	r1, r0, lr, asr lr

43c03930 <main>:
#include "watchdog.h"
#include "adc.h"
#include "key.h"

int main()
{
43c03930:	e92d4800 	push	{fp, lr}
43c03934:	e28db004 	add	fp, sp, #4
	hal_led_init();//led灯初始化
43c03938:	ebfffdb4 	bl	43c03010 <hal_led_init>
	int  command_num = 0;//初始化命令编号
	char command_Name[50] = {0};//初始化命令名字
	char command_Value[20] = {0};//初始化命令参数数值
	*/

	hal_uart_init(50,115200);//UART初始化 50MHZ 115200bps
43c0393c:	e3a00032 	mov	r0, #50	; 0x32
43c03940:	e59f1030 	ldr	r1, [pc, #48]	; 43c03978 <main+0x48>
43c03944:	ebfff7b0 	bl	43c0180c <hal_uart_init>

	//初始化看门狗
	//hal_watchdog_init();

	//初始化adc
	hal_adc_init();
43c03948:	ebfffe75 	bl	43c03324 <hal_adc_init>

	//调用中断程序
	hal_gpio_interrupt_init();//按键中断
43c0394c:	ebfffcab 	bl	43c02c00 <hal_gpio_interrupt_init>
	hal_gic_init();//设置中断源
43c03950:	ebfffcfb 	bl	43c02d44 <hal_gic_init>
	hal_pwm0_on(249,599999);//1sPWM中断一次
43c03954:	e3a000f9 	mov	r0, #249	; 0xf9
43c03958:	e59f101c 	ldr	r1, [pc, #28]	; 43c0397c <main+0x4c>
43c0395c:	ebfffb98 	bl	43c027c4 <hal_pwm0_on>
	hal_pwm1_on(249,299999);//2sPWM中断一次
43c03960:	e3a000f9 	mov	r0, #249	; 0xf9
43c03964:	e59f1014 	ldr	r1, [pc, #20]	; 43c03980 <main+0x50>
43c03968:	ebfffbeb 	bl	43c0291c <hal_pwm1_on>
	//int voltage_adc = get_adc_value();
	//调用电压检测函数
	//voltage_control(voltage_adc,voltage_low_down_adc,voltage_low_up_adc,voltage_middle_adc,voltage_high_down_adc,voltage_high_up_adc);
	*/
		//设置延迟时间
		delay_ms(300);
43c0396c:	e3a00f4b 	mov	r0, #300	; 0x12c
43c03970:	ebfffd8a 	bl	43c02fa0 <delay_ms>
	}
43c03974:	eafffffc 	b	43c0396c <main+0x3c>
43c03978:	0001c200 	andeq	ip, r1, r0, lsl #4
43c0397c:	000927bf 			; <UNDEFINED> instruction: 0x000927bf
43c03980:	000493df 	ldrdeq	r9, [r4], -pc	; <UNPREDICTABLE>

Disassembly of section .vfp11_veneer:

43c03984 <__vfp11_veneer_0>:
43c03984:	ee677a27 	vmul.f32	s15, s14, s15
43c03988:	eafff77b 	b	43c0177c <__vfp11_veneer_0_r>

Disassembly of section .rodata:

43c0398c <.rodata>:
43c0398c:	33323130 	teqcc	r2, #48, 2
43c03990:	37363534 			; <UNDEFINED> instruction: 0x37363534
43c03994:	62613938 	rsbvs	r3, r1, #56, 18	; 0xe0000
43c03998:	66656463 	strbtvs	r6, [r5], -r3, ror #8
43c0399c:	6a696867 	bvs	4565db40 <__bss_end__+0x1a59344>
43c039a0:	6e6d6c6b 	cdpvs	12, 6, cr6, cr13, cr11, {3}
43c039a4:	7271706f 	rsbsvc	r7, r1, #111	; 0x6f
43c039a8:	76757473 			; <UNDEFINED> instruction: 0x76757473
43c039ac:	7a797877 	bvc	45a61b90 <__bss_end__+0x1e5d394>
43c039b0:	00000000 	andeq	r0, r0, r0
43c039b4:	33323130 	teqcc	r2, #48, 2
43c039b8:	37363534 			; <UNDEFINED> instruction: 0x37363534
43c039bc:	42413938 	submi	r3, r1, #56, 18	; 0xe0000
43c039c0:	46454443 	strbmi	r4, [r5], -r3, asr #8
43c039c4:	4a494847 	bmi	44e55ae8 <__bss_end__+0x12512ec>
43c039c8:	4e4d4c4b 	cdpmi	12, 4, cr4, cr13, cr11, {2}
43c039cc:	5251504f 	subspl	r5, r1, #79	; 0x4f
43c039d0:	56555453 			; <UNDEFINED> instruction: 0x56555453
43c039d4:	5a595857 	bpl	45259b38 <__bss_end__+0x165533c>
43c039d8:	00000000 	andeq	r0, r0, r0
43c039dc:	4c554e3c 	mrrcmi	14, 3, r4, r5, cr12
43c039e0:	00003e4c 	andeq	r3, r0, ip, asr #28
43c039e4:	6d69745f 	cfstrdvs	mvd7, [r9, #-380]!	; 0xfffffe84
43c039e8:	203d2065 	eorscs	r2, sp, r5, rrx
43c039ec:	0a206425 	beq	4441ca88 <__bss_end__+0x81828c>
43c039f0:	00000000 	andeq	r0, r0, r0
43c039f4:	e89994e9 	ldm	r9, {r0, r3, r5, r6, r7, sl, ip, pc}
43c039f8:	9ae7afaf 	bls	435ef8bc <_start-0x610744>
43c039fc:	bd91e584 	cfldr32lt	mvfx14, [r1, #528]	; 0x210
43c03a00:	e5a4bbe4 	str	fp, [r4, #3044]!	; 0xbe4
43c03a04:	ade58d90 	stclge	13, cr8, [r5, #576]!	; 0x240
43c03a08:	00000a97 	muleq	r0, r7, sl
43c03a0c:	e89994e9 	ldm	r9, {r0, r3, r5, r6, r7, sl, ip, pc}
43c03a10:	9ae7afaf 	bls	435ef8d4 <_start-0x61072c>
43c03a14:	bd91e584 	cfldr32lt	mvfx14, [r1, #528]	; 0x210
43c03a18:	e5a4bbe4 	str	fp, [r4, #3044]!	; 0xbe4
43c03a1c:	95e6828f 	strbls	r8, [r6, #655]!	; 0x28f
43c03a20:	00000ab0 			; <UNDEFINED> instruction: 0x00000ab0
43c03a24:	4f444552 	svcmi	0x00444552
43c03a28:	0000004e 	andeq	r0, r0, lr, asr #32
43c03a2c:	6f646572 	svcvs	0x00646572
43c03a30:	0000006e 	andeq	r0, r0, lr, rrx
43c03a34:	4f444552 	svcmi	0x00444552
43c03a38:	00004646 	andeq	r4, r0, r6, asr #12
43c03a3c:	6f646572 	svcvs	0x00646572
43c03a40:	00006666 	andeq	r6, r0, r6, ror #12
43c03a44:	45455247 	strbmi	r5, [r5, #-583]	; 0xfffffdb9
43c03a48:	004e4f4e 	subeq	r4, lr, lr, asr #30
43c03a4c:	65657267 	strbvs	r7, [r5, #-615]!	; 0xfffffd99
43c03a50:	006e6f6e 	rsbeq	r6, lr, lr, ror #30
43c03a54:	45455247 	strbmi	r5, [r5, #-583]	; 0xfffffdb9
43c03a58:	46464f4e 	strbmi	r4, [r6], -lr, asr #30
43c03a5c:	00000000 	andeq	r0, r0, r0
43c03a60:	65657267 	strbvs	r7, [r5, #-615]!	; 0xfffffd99
43c03a64:	66666f6e 	strbtvs	r6, [r6], -lr, ror #30
43c03a68:	00000000 	andeq	r0, r0, r0
43c03a6c:	45554c42 	ldrbmi	r4, [r5, #-3138]	; 0xfffff3be
43c03a70:	00004e4f 	andeq	r4, r0, pc, asr #28
43c03a74:	65756c62 	ldrbvs	r6, [r5, #-3170]!	; 0xfffff39e
43c03a78:	00006e6f 	andeq	r6, r0, pc, ror #28
43c03a7c:	45554c42 	ldrbmi	r4, [r5, #-3138]	; 0xfffff3be
43c03a80:	0046464f 	subeq	r4, r6, pc, asr #12
43c03a84:	65756c62 	ldrbvs	r6, [r5, #-3170]!	; 0xfffff39e
43c03a88:	0066666f 	rsbeq	r6, r6, pc, ror #12
43c03a8c:	4f4d5750 	svcmi	0x004d5750
43c03a90:	0000004e 	andeq	r0, r0, lr, asr #32
43c03a94:	6f6d7770 	svcvs	0x006d7770
43c03a98:	0000006e 	andeq	r0, r0, lr, rrx
43c03a9c:	4f4d5750 	svcmi	0x004d5750
43c03aa0:	00004646 	andeq	r4, r0, r6, asr #12
43c03aa4:	6f6d7770 	svcvs	0x006d7770
43c03aa8:	00006666 	andeq	r6, r0, r6, ror #12
43c03aac:	4e414843 	cdpmi	8, 4, cr4, cr1, cr3, {2}
43c03ab0:	4f564547 	svcmi	0x00564547
43c03ab4:	4741544c 	strbmi	r5, [r1, -ip, asr #8]
43c03ab8:	4f4c2045 	svcmi	0x004c2045
43c03abc:	574f4457 	smlsldpl	r4, pc, r7, r4	; <UNPREDICTABLE>
43c03ac0:	0000204e 	andeq	r2, r0, lr, asr #32
43c03ac4:	6e616863 	cdpvs	8, 6, cr6, cr1, cr3, {3}
43c03ac8:	6f766567 	svcvs	0x00766567
43c03acc:	6761746c 	strbvs	r7, [r1, -ip, ror #8]!
43c03ad0:	6f6c2065 	svcvs	0x006c2065
43c03ad4:	776f6477 			; <UNDEFINED> instruction: 0x776f6477
43c03ad8:	0000206e 	andeq	r2, r0, lr, rrx
43c03adc:	4e414843 	cdpmi	8, 4, cr4, cr1, cr3, {2}
43c03ae0:	4f564547 	svcmi	0x00564547
43c03ae4:	4741544c 	strbmi	r5, [r1, -ip, asr #8]
43c03ae8:	4f4c2045 	svcmi	0x004c2045
43c03aec:	20505557 	subscs	r5, r0, r7, asr r5
43c03af0:	00000000 	andeq	r0, r0, r0
43c03af4:	6e616863 	cdpvs	8, 6, cr6, cr1, cr3, {3}
43c03af8:	6f766567 	svcvs	0x00766567
43c03afc:	6761746c 	strbvs	r7, [r1, -ip, ror #8]!
43c03b00:	6f6c2065 	svcvs	0x006c2065
43c03b04:	20707577 	rsbscs	r7, r0, r7, ror r5
43c03b08:	00000000 	andeq	r0, r0, r0
43c03b0c:	4e414843 	cdpmi	8, 4, cr4, cr1, cr3, {2}
43c03b10:	4f564547 	svcmi	0x00564547
43c03b14:	4741544c 	strbmi	r5, [r1, -ip, asr #8]
43c03b18:	49482045 	stmdbmi	r8, {r0, r2, r6, sp}^
43c03b1c:	4f444847 	svcmi	0x00444847
43c03b20:	00204e57 	eoreq	r4, r0, r7, asr lr
43c03b24:	6e616863 	cdpvs	8, 6, cr6, cr1, cr3, {3}
43c03b28:	6f766567 	svcvs	0x00766567
43c03b2c:	6761746c 	strbvs	r7, [r1, -ip, ror #8]!
43c03b30:	69682065 	stmdbvs	r8!, {r0, r2, r5, r6, sp}^
43c03b34:	6f646867 	svcvs	0x00646867
43c03b38:	00206e77 	eoreq	r6, r0, r7, ror lr
43c03b3c:	4e414843 	cdpmi	8, 4, cr4, cr1, cr3, {2}
43c03b40:	4f564547 	svcmi	0x00564547
43c03b44:	4741544c 	strbmi	r5, [r1, -ip, asr #8]
43c03b48:	49482045 	stmdbmi	r8, {r0, r2, r6, sp}^
43c03b4c:	50554847 	subspl	r4, r5, r7, asr #16
43c03b50:	00000020 	andeq	r0, r0, r0, lsr #32
43c03b54:	6e616863 	cdpvs	8, 6, cr6, cr1, cr3, {3}
43c03b58:	6f766567 	svcvs	0x00766567
43c03b5c:	6761746c 	strbvs	r7, [r1, -ip, ror #8]!
43c03b60:	69682065 	stmdbvs	r8!, {r0, r2, r5, r6, sp}^
43c03b64:	70756867 	rsbsvc	r6, r5, r7, ror #16
43c03b68:	00000020 	andeq	r0, r0, r0, lsr #32
43c03b6c:	50207331 	eorpl	r7, r0, r1, lsr r3
43c03b70:	54204d57 	strtpl	r4, [r0], #-3415	; 0xfffff2a9
43c03b74:	72656d69 	rsbvc	r6, r5, #6720	; 0x1a40
43c03b78:	746e4920 	strbtvc	r4, [lr], #-2336	; 0xfffff6e0
43c03b7c:	75727265 	ldrbvc	r7, [r2, #-613]!	; 0xfffffd9b
43c03b80:	0a217470 	beq	44460d48 <__bss_end__+0x85c54c>
43c03b84:	00000000 	andeq	r0, r0, r0
43c03b88:	50207332 	eorpl	r7, r0, r2, lsr r3
43c03b8c:	54204d57 	strtpl	r4, [r0], #-3415	; 0xfffff2a9
43c03b90:	72656d69 	rsbvc	r6, r5, #6720	; 0x1a40
43c03b94:	746e4920 	strbtvc	r4, [lr], #-2336	; 0xfffff6e0
43c03b98:	75727265 	ldrbvc	r7, [r2, #-613]!	; 0xfffffd9b
43c03b9c:	0a217470 	beq	44460d64 <__bss_end__+0x85c568>
43c03ba0:	00000000 	andeq	r0, r0, r0
43c03ba4:	2059454b 	subscs	r4, r9, fp, asr #10
43c03ba8:	65746e49 	ldrbvs	r6, [r4, #-3657]!	; 0xfffff1b7
43c03bac:	70757272 	rsbsvc	r7, r5, r2, ror r2
43c03bb0:	754e2074 	strbvc	r2, [lr, #-116]	; 0xffffff8c
43c03bb4:	7265626d 	rsbvc	r6, r5, #-805306362	; 0xd0000006
43c03bb8:	25203d20 	strcs	r3, [r0, #-3360]!	; 0xfffff2e0
43c03bbc:	00000a64 	andeq	r0, r0, r4, ror #20
43c03bc0:	2059454b 	subscs	r4, r9, fp, asr #10
43c03bc4:	2d4c4f56 	stclcs	15, cr4, [ip, #-344]	; 0xfffffea8
43c03bc8:	0000000a 	andeq	r0, r0, sl
43c03bcc:	2059454b 	subscs	r4, r9, fp, asr #10
43c03bd0:	2b4c4f56 	blcs	44f17930 <__bss_end__+0x1313134>
43c03bd4:	0000000a 	andeq	r0, r0, sl
43c03bd8:	61616161 	cmnvs	r1, r1, ror #2
43c03bdc:	64253a61 	strtvs	r3, [r5], #-2657	; 0xfffff59f
43c03be0:	0000000a 	andeq	r0, r0, sl
43c03be4:	544e4354 	strbpl	r4, [lr], #-852	; 0xfffffcac
43c03be8:	89ade742 	stmibhi	sp!, {r1, r6, r8, r9, sl, sp, lr, pc}
43c03bec:	308ebae4 	addcc	fp, lr, r4, ror #21
43c03bf0:	4d57502c 	ldclmi	0, cr5, [r7, #-176]	; 0xffffff50
43c03bf4:	9abce430 	bls	42b3ccbc <_start-0x10c3344>
43c03bf8:	e7a7bae4 	str	fp, [r7, r4, ror #21]!
43c03bfc:	b8e49f94 	stmialt	r4!, {r2, r4, r7, r8, r9, sl, fp, ip, pc}^
43c03c00:	ad96e6ad 	ldcge	6, cr14, [r6, #692]	; 0x2b4
43c03c04:	0a3f3f3f 	beq	44bd3908 <__bss_end__+0xfcf10c>
43c03c08:	00000000 	andeq	r0, r0, r0
43c03c0c:	314d5750 	cmpcc	sp, r0, asr r7
43c03c10:	545f5f5f 	ldrbpl	r5, [pc], #-3935	; 43c03c18 <__vfp11_veneer_0+0x294>
43c03c14:	42544e43 	subsmi	r4, r4, #1072	; 0x430
43c03c18:	64253a31 	strtvs	r3, [r5], #-2609	; 0xfffff5cf
43c03c1c:	0000000a 	andeq	r0, r0, sl
43c03c20:	544e4354 	strbpl	r4, [lr], #-852	; 0xfffffcac
43c03c24:	89ade742 	stmibhi	sp!, {r1, r6, r8, r9, sl, sp, lr, pc}
43c03c28:	308ebae4 	addcc	fp, lr, r4, ror #21
43c03c2c:	4d57502c 	ldclmi	0, cr5, [r7, #-176]	; 0xffffff50
43c03c30:	9abce431 	bls	42b3ccfc <_start-0x10c3304>
43c03c34:	e7a7bae4 	str	fp, [r7, r4, ror #21]!
43c03c38:	b8e49f94 	stmialt	r4!, {r2, r4, r7, r8, r9, sl, fp, ip, pc}^
43c03c3c:	ad96e6ad 	ldcge	6, cr14, [r6, #692]	; 0x2b4
43c03c40:	3f3f3f3f 	svccc	0x003f3f3f
43c03c44:	00000a3f 	andeq	r0, r0, pc, lsr sl
43c03c48:	544e4354 	strbpl	r4, [lr], #-852	; 0xfffffcac
43c03c4c:	3d203242 	sfmcc	f3, 4, [r0, #-264]!	; 0xfffffef8
43c03c50:	0a642520 	beq	4550d0d8 <__bss_end__+0x19088dc>
43c03c54:	00000000 	andeq	r0, r0, r0
43c03c58:	e6acbde8 	strt	fp, [ip], r8, ror #27
43c03c5c:	90e5a28d 	rscls	sl, r5, sp, lsl #5
43c03c60:	849ae78e 	ldrhi	lr, [sl], #1934	; 0x78e
43c03c64:	e7434441 	strb	r4, [r3, -r1, asr #8]
43c03c68:	8ee5b594 	mcrhi	5, 7, fp, cr5, cr4, {4}
43c03c6c:	bc80e58b 	cfstr32lt	mvfx14, [r0], {139}	; 0x8b
43c03c70:	25203d20 	strcs	r3, [r0, #-3360]!	; 0xfffff2e0
43c03c74:	00000a64 	andeq	r0, r0, r4, ror #20
43c03c78:	64776f6c 	ldrbtvs	r6, [r7], #-3948	; 0xfffff094
43c03c7c:	206e776f 	rsbcs	r7, lr, pc, ror #14
43c03c80:	6425203d 	strtvs	r2, [r5], #-61	; 0xffffffc3
43c03c84:	6f6c2020 	svcvs	0x006c2020
43c03c88:	70756477 	rsbsvc	r6, r5, r7, ror r4
43c03c8c:	25203d20 	strcs	r3, [r0, #-3360]!	; 0xfffff2e0
43c03c90:	68202064 	stmdavs	r0!, {r2, r5, r6, sp}
43c03c94:	64686769 	strbtvs	r6, [r8], #-1897	; 0xfffff897
43c03c98:	206e776f 	rsbcs	r7, lr, pc, ror #14
43c03c9c:	6425203d 	strtvs	r2, [r5], #-61	; 0xffffffc3
43c03ca0:	69682020 	stmdbvs	r8!, {r5, sp}^
43c03ca4:	70756867 	rsbsvc	r6, r5, r7, ror #16
43c03ca8:	25203d20 	strcs	r3, [r0, #-3360]!	; 0xfffff2e0
43c03cac:	0a202064 	beq	4440be44 <__bss_end__+0x807648>
43c03cb0:	00000000 	andeq	r0, r0, r0
43c03cb4:	e7a2bae7 	str	fp, [r2, r7, ror #21]!
43c03cb8:	97e9af81 	strbls	sl, [r9, r1, lsl #31]!
43c03cbc:	8183e7aa 	orrhi	lr, r3, sl, lsr #15
43c03cc0:	0000000a 	andeq	r0, r0, sl
43c03cc4:	e7bfbbe7 	ldr	fp, [pc, r7, ror #23]!
43c03cc8:	97e9af81 	strbls	sl, [r9, r1, lsl #31]!
43c03ccc:	8183e7aa 	orrhi	lr, r3, sl, lsr #15
43c03cd0:	0000000a 	andeq	r0, r0, sl
43c03cd4:	e79d93e8 	ldr	r9, [sp, r8, ror #7]
43c03cd8:	97e9af81 	strbls	sl, [r9, r1, lsl #31]!
43c03cdc:	8183e7aa 	orrhi	lr, r3, sl, lsr #15
43c03ce0:	0000000a 	andeq	r0, r0, sl
43c03ce4:	e7bd99e7 	ldr	r9, [sp, r7, ror #19]!
43c03ce8:	97e9af81 	strbls	sl, [r9, r1, lsl #31]!
43c03cec:	8183e7aa 	orrhi	lr, r3, sl, lsr #15
43c03cf0:	0000000a 	andeq	r0, r0, sl
43c03cf4:	e5b594e7 	ldr	r9, [r5, #1255]!	; 0x4e7
43c03cf8:	bfe88b8e 	svclt	0x00e88b8e
43c03cfc:	bdbde887 	ldclt	8, cr14, [sp, #540]!	; 0x21c
43c03d00:	e89688e6 	ldm	r6, {r1, r2, r5, r6, r7, fp, pc}
43c03d04:	bfe88580 	svclt	0x00e88580
43c03d08:	8ebde487 	cdphi	4, 11, cr14, cr13, cr7, {4}
43c03d0c:	89b8e42c 	ldmibhi	r8!, {r2, r3, r5, sl, sp, lr, pc}
43c03d10:	e7b289e8 	ldr	r8, [r2, r8, ror #19]!
43c03d14:	97e9af81 	strbls	sl, [r9, r1, lsl #31]!
43c03d18:	8183e7aa 	orrhi	lr, r3, sl, lsr #15
43c03d1c:	0000000a 	andeq	r0, r0, sl
43c03d20:	e5b994e6 	ldr	r9, [r9, #1254]!	; 0x4e6
43c03d24:	9ae7988f 	bls	435e9f68 <_start-0x616098>
43c03d28:	b594e784 	ldrlt	lr, [r4, #1924]	; 0x784
43c03d2c:	e98b8ee5 	stmib	fp, {r0, r2, r5, r6, r7, r9, sl, fp, pc}
43c03d30:	80e58098 	smlalhi	r8, r5, r8, r0
43c03d34:	8db8e4bc 	cfldrshi	mvf14, [r8, #752]!	; 0x2f0
43c03d38:	e6af98e6 	strt	r9, [pc], r6, ror #17
43c03d3c:	ade5b095 	stclge	0, cr11, [r5, #596]!	; 0x254
43c03d40:	afe82c97 	svcge	0x00e82c97
43c03d44:	8d87e9b7 	stchi	9, cr14, [r7, #732]	; 0x2dc
43c03d48:	e8b096e6 	ldm	r0!, {r1, r2, r5, r6, r7, r9, sl, ip, pc}
43c03d4c:	85e593be 	strbhi	r9, [r5, #958]!	; 0x3be
43c03d50:	bd91e5a5 	cfldr32lt	mvfx14, [r1, #660]	; 0x294
43c03d54:	0aa4bbe4 	beq	42532cec <_start-0x16cd314>
43c03d58:	00000000 	andeq	r0, r0, r0
43c03d5c:	e5b594e7 	ldr	r9, [r5, #1255]!	; 0x4e7
43c03d60:	98e98b8e 	stmials	r9!, {r1, r2, r3, r7, r8, r9, fp, pc}^
43c03d64:	bc80e580 	cfstr32lt	mvfx14, [r0], {128}	; 0x80
43c03d68:	e6828fe5 	str	r8, [r2], r5, ror #31
43c03d6c:	98e6b095 	stmials	r6!, {r0, r2, r4, r7, ip, sp, pc}^
43c03d70:	64253aaf 	strtvs	r3, [r5], #-2735	; 0xfffff551
43c03d74:	0000000a 	andeq	r0, r0, sl
43c03d78:	e5b994e6 	ldr	r9, [r9, #1254]!	; 0x4e6
43c03d7c:	9ae7988f 	bls	435e9fc0 <_start-0x616040>
43c03d80:	b594e784 	ldrlt	lr, [r4, #1924]	; 0x784
43c03d84:	e98b8ee5 	stmib	fp, {r0, r2, r5, r6, r7, r9, sl, fp, pc}
43c03d88:	80e58098 	smlalhi	r8, r5, r8, r0
43c03d8c:	8db8e4bc 	cfldrshi	mvf14, [r8, #752]!	; 0x2f0
43c03d90:	e8bd83e8 	pop	{r3, r5, r6, r7, r8, r9, pc}
43c03d94:	bfe885b6 	svclt	0x00e885b6
43c03d98:	332e3387 	teqcc	lr, #469762050	; 0x1c000002
43c03d9c:	afe82c56 	svcge	0x00e82c56
43c03da0:	8d87e9b7 	stchi	9, cr14, [r7, #732]	; 0x2dc
43c03da4:	e8b096e6 	ldm	r0!, {r1, r2, r5, r6, r7, r9, sl, ip, pc}
43c03da8:	85e593be 	strbhi	r9, [r5, #958]!	; 0x3be
43c03dac:	bd91e5a5 	cfldr32lt	mvfx14, [r1, #660]	; 0x294
43c03db0:	0aa4bbe4 	beq	42532d48 <_start-0x16cd2b8>
43c03db4:	00000000 	andeq	r0, r0, r0
43c03db8:	e5b994e6 	ldr	r9, [r9, #1254]!	; 0x4e6
43c03dbc:	9ae7988f 	bls	435ea000 <_start-0x616000>
43c03dc0:	8ebde484 	cdphi	4, 11, cr14, cr13, cr4, {4}
43c03dc4:	e5b594e7 	ldr	r9, [r5, #1255]!	; 0x4e7
43c03dc8:	8ae68b8e 	bhi	435a6c08 <_start-0x6593f8>
43c03dcc:	a6ade8a5 	strtge	lr, [sp], r5, lsr #17
43c03dd0:	e98bb8e4 	stmib	fp, {r2, r5, r6, r7, fp, ip, sp, pc}
43c03dd4:	98e99099 	stmials	r9!, {r0, r3, r4, r7, ip, pc}^
43c03dd8:	bc80e580 	cfstr32lt	mvfx14, [r0], {128}	; 0x80
43c03ddc:	e89994e9 	ldm	r9, {r0, r3, r5, r6, r7, sl, ip, pc}
43c03de0:	bcefafaf 	stcllt	15, cr10, [pc], #700	; 43c040a4 <stack+0x1a8>
43c03de4:	8db8e48c 	cfldrshi	mvf14, [r8, #560]!	; 0x230
43c03de8:	e4bd83e8 	ldrt	r8, [sp], #1000	; 0x3e8
43c03dec:	bae48ebd 	blt	435278e8 <_start-0x6d8718>
43c03df0:	e420308e 	strt	r3, [r0], #-142	; 0xffffff72
43c03df4:	83e88db8 	mvnhi	r8, #184, 26	; 0x2e00
43c03df8:	98abe9bd 	stmials	fp!, {r0, r2, r3, r4, r5, r7, r8, fp, sp, lr, pc}
43c03dfc:	318ebae4 	orrcc	fp, lr, r4, ror #21
43c03e00:	0a303030 	beq	4480fec8 <__bss_end__+0xc0b6cc>
43c03e04:	00000000 	andeq	r0, r0, r0
43c03e08:	e5b994e6 	ldr	r9, [r9, #1254]!	; 0x4e6
43c03e0c:	9ae7988f 	bls	435ea050 <_start-0x615fb0>
43c03e10:	8ebde484 	cdphi	4, 11, cr14, cr13, cr4, {4}
43c03e14:	e5b594e7 	ldr	r9, [r5, #1255]!	; 0x4e7
43c03e18:	8ae68b8e 	bhi	435a6c58 <_start-0x6593a8>
43c03e1c:	a6ade8a5 	strtge	lr, [sp], r5, lsr #17
43c03e20:	e98ab8e4 	stmib	sl, {r2, r5, r6, r7, fp, ip, sp, pc}
43c03e24:	98e99099 	stmials	r9!, {r0, r3, r4, r7, ip, pc}^
43c03e28:	bc80e580 	cfstr32lt	mvfx14, [r0], {128}	; 0x80
43c03e2c:	e89994e9 	ldm	r9, {r0, r3, r5, r6, r7, sl, ip, pc}
43c03e30:	bcefafaf 	stcllt	15, cr10, [pc], #700	; 43c040f4 <stack+0x1f8>
43c03e34:	8db8e48c 	cfldrshi	mvf14, [r8, #560]!	; 0x230
43c03e38:	e4bd83e8 	ldrt	r8, [sp], #1000	; 0x3e8
43c03e3c:	bae48ebd 	blt	43527938 <_start-0x6d86c8>
43c03e40:	3030318e 	eorscc	r3, r0, lr, lsl #3
43c03e44:	b8e42030 	stmialt	r4!, {r4, r5, sp}^
43c03e48:	bd83e88d 	stclt	8, cr14, [r3, #564]	; 0x234
43c03e4c:	e498abe9 	ldr	sl, [r8], #3049	; 0xbe9
43c03e50:	30328eba 	ldrhtcc	r8, [r2], -sl
43c03e54:	000a3030 	andeq	r3, sl, r0, lsr r0
43c03e58:	e5b994e6 	ldr	r9, [r9, #1254]!	; 0x4e6
43c03e5c:	9ae7988f 	bls	435ea0a0 <_start-0x615f60>
43c03e60:	98abe984 	stmials	fp!, {r2, r7, r8, fp, sp, lr, pc}
43c03e64:	e5b594e7 	ldr	r9, [r5, #1255]!	; 0x4e7
43c03e68:	8ae68b8e 	bhi	435a6ca8 <_start-0x659358>
43c03e6c:	a6ade8a5 	strtge	lr, [sp], r5, lsr #17
43c03e70:	e98bb8e4 	stmib	fp, {r2, r5, r6, r7, fp, ip, sp, pc}
43c03e74:	98e99099 	stmials	r9!, {r0, r3, r4, r7, ip, pc}^
43c03e78:	bc80e580 	cfstr32lt	mvfx14, [r0], {128}	; 0x80
43c03e7c:	e89994e9 	ldm	r9, {r0, r3, r5, r6, r7, sl, ip, pc}
43c03e80:	bcefafaf 	stcllt	15, cr10, [pc], #700	; 43c04144 <stack+0x248>
43c03e84:	8db8e48c 	cfldrshi	mvf14, [r8, #560]!	; 0x230
43c03e88:	e4bd83e8 	ldrt	r8, [sp], #1000	; 0x3e8
43c03e8c:	bae48ebd 	blt	43527988 <_start-0x6d8678>
43c03e90:	3030328e 	eorscc	r3, r0, lr, lsl #5
43c03e94:	e4202030 	strt	r2, [r0], #-48	; 0xffffffd0
43c03e98:	83e88db8 	mvnhi	r8, #184, 26	; 0x2e00
43c03e9c:	98abe9bd 	stmials	fp!, {r0, r2, r3, r4, r5, r7, r8, fp, sp, lr, pc}
43c03ea0:	338ebae4 	orrcc	fp, lr, #228, 20	; 0xe4000
43c03ea4:	0a303030 	beq	4480ff6c <__bss_end__+0xc0b770>
43c03ea8:	00000000 	andeq	r0, r0, r0
43c03eac:	e5b994e6 	ldr	r9, [r9, #1254]!	; 0x4e6
43c03eb0:	9ae7988f 	bls	435ea0f4 <_start-0x615f0c>
43c03eb4:	98abe984 	stmials	fp!, {r2, r7, r8, fp, sp, lr, pc}
43c03eb8:	e5b594e7 	ldr	r9, [r5, #1255]!	; 0x4e7
43c03ebc:	8ae68b8e 	bhi	435a6cfc <_start-0x659304>
43c03ec0:	a6ade8a5 	strtge	lr, [sp], r5, lsr #17
43c03ec4:	e98ab8e4 	stmib	sl, {r2, r5, r6, r7, fp, ip, sp, pc}
43c03ec8:	98e99099 	stmials	r9!, {r0, r3, r4, r7, ip, pc}^
43c03ecc:	bc80e580 	cfstr32lt	mvfx14, [r0], {128}	; 0x80
43c03ed0:	e89994e9 	ldm	r9, {r0, r3, r5, r6, r7, sl, ip, pc}
43c03ed4:	bcefafaf 	stcllt	15, cr10, [pc], #700	; 43c04198 <stack+0x29c>
43c03ed8:	8db8e48c 	cfldrshi	mvf14, [r8, #560]!	; 0x230
43c03edc:	e4bd83e8 	ldrt	r8, [sp], #1000	; 0x3e8
43c03ee0:	bae48ebd 	blt	435279dc <_start-0x6d8624>
43c03ee4:	3030338e 	eorscc	r3, r0, lr, lsl #7
43c03ee8:	b8e42030 	stmialt	r4!, {r4, r5, sp}^
43c03eec:	bd83e88d 	stclt	8, cr14, [r3, #564]	; 0x234
43c03ef0:	e498abe9 	ldr	sl, [r8], #3049	; 0xbe9
43c03ef4:	33338eba 	teqcc	r3, #2976	; 0xba0
43c03ef8:	000a3030 	andeq	r3, sl, r0, lsr r0

Disassembly of section .data:

43c03efc <stack>:
	...

43c046fc <_ctype>:
43c046fc:	08080808 	stmdaeq	r8, {r3, fp}
43c04700:	08080808 	stmdaeq	r8, {r3, fp}
43c04704:	28282808 	stmdacs	r8!, {r3, fp, sp}
43c04708:	08082828 	stmdaeq	r8, {r3, r5, fp, sp}
43c0470c:	08080808 	stmdaeq	r8, {r3, fp}
43c04710:	08080808 	stmdaeq	r8, {r3, fp}
43c04714:	08080808 	stmdaeq	r8, {r3, fp}
43c04718:	08080808 	stmdaeq	r8, {r3, fp}
43c0471c:	101010a0 	andsne	r1, r0, r0, lsr #1
43c04720:	10101010 	andsne	r1, r0, r0, lsl r0
43c04724:	10101010 	andsne	r1, r0, r0, lsl r0
43c04728:	10101010 	andsne	r1, r0, r0, lsl r0
43c0472c:	04040404 	streq	r0, [r4], #-1028	; 0xfffffbfc
43c04730:	04040404 	streq	r0, [r4], #-1028	; 0xfffffbfc
43c04734:	10100404 	andsne	r0, r0, r4, lsl #8
43c04738:	10101010 	andsne	r1, r0, r0, lsl r0
43c0473c:	41414110 	cmpmi	r1, r0, lsl r1
43c04740:	01414141 	mrseq	r4, SPSR
43c04744:	01010101 	tsteq	r1, r1, lsl #2
43c04748:	01010101 	tsteq	r1, r1, lsl #2
43c0474c:	01010101 	tsteq	r1, r1, lsl #2
43c04750:	01010101 	tsteq	r1, r1, lsl #2
43c04754:	10010101 	andne	r0, r1, r1, lsl #2
43c04758:	10101010 	andsne	r1, r0, r0, lsl r0
43c0475c:	42424210 	submi	r4, r2, #16, 4
43c04760:	02424242 	subeq	r4, r2, #536870916	; 0x20000004
43c04764:	02020202 	andeq	r0, r2, #536870912	; 0x20000000
43c04768:	02020202 	andeq	r0, r2, #536870912	; 0x20000000
43c0476c:	02020202 	andeq	r0, r2, #536870912	; 0x20000000
43c04770:	02020202 	andeq	r0, r2, #536870912	; 0x20000000
43c04774:	10020202 	andne	r0, r2, r2, lsl #4
43c04778:	08101010 	ldmdaeq	r0, {r4, ip}
	...
43c0479c:	101010a0 	andsne	r1, r0, r0, lsr #1
43c047a0:	10101010 	andsne	r1, r0, r0, lsl r0
43c047a4:	10101010 	andsne	r1, r0, r0, lsl r0
43c047a8:	10101010 	andsne	r1, r0, r0, lsl r0
43c047ac:	10101010 	andsne	r1, r0, r0, lsl r0
43c047b0:	10101010 	andsne	r1, r0, r0, lsl r0
43c047b4:	10101010 	andsne	r1, r0, r0, lsl r0
43c047b8:	10101010 	andsne	r1, r0, r0, lsl r0
43c047bc:	01010101 	tsteq	r1, r1, lsl #2
43c047c0:	01010101 	tsteq	r1, r1, lsl #2
43c047c4:	01010101 	tsteq	r1, r1, lsl #2
43c047c8:	01010101 	tsteq	r1, r1, lsl #2
43c047cc:	01010101 	tsteq	r1, r1, lsl #2
43c047d0:	10010101 	andne	r0, r1, r1, lsl #2
43c047d4:	01010101 	tsteq	r1, r1, lsl #2
43c047d8:	02010101 	andeq	r0, r1, #1073741824	; 0x40000000
43c047dc:	02020202 	andeq	r0, r2, #536870912	; 0x20000000
43c047e0:	02020202 	andeq	r0, r2, #536870912	; 0x20000000
43c047e4:	02020202 	andeq	r0, r2, #536870912	; 0x20000000
43c047e8:	02020202 	andeq	r0, r2, #536870912	; 0x20000000
43c047ec:	02020202 	andeq	r0, r2, #536870912	; 0x20000000
43c047f0:	10020202 	andne	r0, r2, r2, lsl #4
43c047f4:	02020202 	andeq	r0, r2, #536870912	; 0x20000000
43c047f8:	02020202 	andeq	r0, r2, #536870912	; 0x20000000

Disassembly of section .ARM.attributes:

00000000 <.ARM.attributes>:
   0:	00000f41 	andeq	r0, r0, r1, asr #30
   4:	61656100 	cmnvs	r5, r0, lsl #2
   8:	01006962 	tsteq	r0, r2, ror #18
   c:	00000005 	andeq	r0, r0, r5

Disassembly of section .comment:

00000000 <.comment>:
   0:	3a434347 	bcc	10d0d24 <_start-0x42b2f2dc>
   4:	6f532820 	svcvs	0x00532820
   8:	65637275 	strbvs	r7, [r3, #-629]!	; 0xfffffd8b
   c:	47207972 			; <UNDEFINED> instruction: 0x47207972
  10:	4c202b2b 	stcmi	11, cr2, [r0], #-172	; 0xffffff54
  14:	20657469 	rsbcs	r7, r5, r9, ror #8
  18:	30313032 	eorscc	r3, r1, r2, lsr r0
  1c:	2d39302e 	ldccs	0, cr3, [r9, #-184]!	; 0xffffff48
  20:	20293035 	eorcs	r3, r9, r5, lsr r0
  24:	2e352e34 	mrccs	14, 1, r2, cr5, cr4, {1}
  28:	Address 0x00000028 is out of bounds.


Disassembly of section .debug_line:

00000000 <.debug_line>:
   0:	00000089 	andeq	r0, r0, r9, lsl #1
   4:	00240002 	eoreq	r0, r4, r2
   8:	01020000 	tsteq	r2, r0
   c:	000d0efb 	strdeq	r0, [sp], -fp
  10:	01010101 	tsteq	r1, r1, lsl #2
  14:	01000000 	tsteq	r0, r0
  18:	73010000 	movwvc	r0, #4096	; 0x1000
  1c:	74726174 	ldrbtvc	r6, [r2], #-372	; 0xfffffe8c
  20:	74730000 	ldrbtvc	r0, [r3], #-0
  24:	2e747261 	cdpcs	2, 7, cr7, cr4, cr1, {3}
  28:	00010053 	andeq	r0, r1, r3, asr r0
  2c:	05000000 	streq	r0, [r0, #-0]
  30:	c0000002 	andgt	r0, r0, r2
  34:	011a0343 	tsteq	sl, r3, asr #6
  38:	2f2f2f2f 	svccs	0x002f2f2f
  3c:	032f2f2f 	teqeq	pc, #47, 30	; 0xbc
  40:	2f2ff214 	svccs	0x002ff214
  44:	2f312f2f 	svccs	0x00312f2f
  48:	2f312f2f 	svccs	0x00312f2f
  4c:	2f2f2f2f 	svccs	0x002f2f2f
  50:	2f2f312f 	svccs	0x002f312f
  54:	2f2f2f2f 	svccs	0x002f2f2f
  58:	2f2f312f 	svccs	0x002f312f
  5c:	2f2f2f31 	svccs	0x002f2f31
  60:	332f2f2f 	teqcc	pc, #47, 30	; 0xbc
  64:	2f302f31 	svccs	0x00302f31
  68:	2f2f302f 	svccs	0x002f302f
  6c:	302f2f30 	eorcc	r2, pc, r0, lsr pc	; <UNPREDICTABLE>
  70:	2f302f2f 	svccs	0x00302f2f
  74:	302f2f31 	eorcc	r2, pc, r1, lsr pc	; <UNPREDICTABLE>
  78:	312f2f2f 	teqcc	pc, pc, lsr #30
  7c:	f6f6f6de 			; <UNDEFINED> instruction: 0xf6f6f6de
  80:	302ff7f6 	strdcc	pc, [pc], -r6	; <UNPREDICTABLE>
  84:	312fa32f 	teqcc	pc, pc, lsr #6
  88:	01000a02 	tsteq	r0, r2, lsl #20
  8c:	00006c01 	andeq	r6, r0, r1, lsl #24
  90:	2c000200 	sfmcs	f0, 4, [r0], {-0}
  94:	02000000 	andeq	r0, r0, #0
  98:	0d0efb01 	vstreq	d15, [lr, #-4]
  9c:	01010100 	tsteq	r1, r0, lsl #2
  a0:	00000001 	andeq	r0, r0, r1
  a4:	01000001 	tsteq	r0, r1
  a8:	6d6d6f63 	stclvs	15, cr6, [sp, #-396]!	; 0xfffffe74
  ac:	732f6e6f 	teqvc	pc, #1776	; 0x6f0
  b0:	00006372 	andeq	r6, r0, r2, ror r3
  b4:	6f6d755f 	svcvs	0x006d755f
  b8:	33697364 	cmncc	r9, #100, 6	; 0x90000001
  bc:	0100532e 	tsteq	r0, lr, lsr #6
  c0:	00000000 	andeq	r0, r0, r0
  c4:	02200205 	eoreq	r0, r0, #1342177280	; 0x50000000
  c8:	120343c0 	andne	r4, r3, #192, 6
  cc:	2f2f2f01 	svccs	0x002f2f01
  d0:	2f2f342f 	svccs	0x002f342f
  d4:	2f322f2f 	svccs	0x00322f2f
  d8:	332f2f2f 	teqcc	pc, #47, 30	; 0xbc
  dc:	2f2f2f2f 	svccs	0x002f2f2f
  e0:	2f2f2f2f 	svccs	0x002f2f2f
  e4:	2f2f2f2f 	svccs	0x002f2f2f
  e8:	2f2f2f2f 	svccs	0x002f2f2f
  ec:	2f2f2f35 	svccs	0x002f2f35
  f0:	2f2f2f2f 	svccs	0x002f2f2f
  f4:	2f30302f 	svccs	0x0030302f
  f8:	01000202 	tsteq	r0, r2, lsl #4
  fc:	00006501 	andeq	r6, r0, r1, lsl #10
 100:	2c000200 	sfmcs	f0, 4, [r0], {-0}
 104:	02000000 	andeq	r0, r0, #0
 108:	0d0efb01 	vstreq	d15, [lr, #-4]
 10c:	01010100 	tsteq	r1, r0, lsl #2
 110:	00000001 	andeq	r0, r0, r1
 114:	01000001 	tsteq	r0, r1
 118:	6d6d6f63 	stclvs	15, cr6, [sp, #-396]!	; 0xfffffe74
 11c:	732f6e6f 	teqvc	pc, #1776	; 0x6f0
 120:	00006372 	andeq	r6, r0, r2, ror r3
 124:	6964755f 	stmdbvs	r4!, {r0, r1, r2, r3, r4, r6, r8, sl, ip, sp, lr}^
 128:	33697376 	cmncc	r9, #-671088639	; 0xd8000001
 12c:	0100532e 	tsteq	r0, lr, lsr #6
 130:	00000000 	andeq	r0, r0, r0
 134:	02d00205 	sbcseq	r0, r0, #1342177280	; 0x50000000
 138:	110343c0 	smlabtne	r3, r0, r3, r4
 13c:	2f2f2f01 	svccs	0x002f2f01
 140:	2f342f2f 	svccs	0x00342f2f
 144:	322f2f2f 	eorcc	r2, pc, #47, 30	; 0xbc
 148:	2f2f2f2f 	svccs	0x002f2f2f
 14c:	2f2f2f34 	svccs	0x002f2f34
 150:	2f2f2f2f 	svccs	0x002f2f2f
 154:	2f2f2f2f 	svccs	0x002f2f2f
 158:	2f2f2f2f 	svccs	0x002f2f2f
 15c:	30302f30 	eorscc	r2, r0, r0, lsr pc
 160:	0002022f 	andeq	r0, r2, pc, lsr #4
 164:	02530101 	subseq	r0, r3, #1073741824	; 0x40000000
 168:	00020000 	andeq	r0, r2, r0
 16c:	00000052 	andeq	r0, r0, r2, asr r0
 170:	0efb0102 	cdpeq	1, 15, cr0, cr11, cr2, {0}
 174:	0101000d 	tsteq	r1, sp
 178:	00000101 	andeq	r0, r0, r1, lsl #2
 17c:	00000100 	andeq	r0, r0, r0, lsl #2
 180:	632f2e01 	teqvs	pc, #1, 28
 184:	6f6d6d6f 	svcvs	0x006d6d6f
 188:	6e692f6e 	cdpvs	15, 6, cr2, cr9, cr14, {3}
 18c:	64756c63 	ldrbtvs	r6, [r5], #-3171	; 0xfffff39d
 190:	6f630065 	svcvs	0x00630065
 194:	6e6f6d6d 	cdpvs	13, 6, cr6, cr15, cr13, {3}
 198:	6372732f 	cmnvs	r2, #-1140850688	; 0xbc000000
 19c:	74630000 	strbtvc	r0, [r3], #-0
 1a0:	2e657079 	mcrcs	0, 3, r7, cr5, cr9, {3}
 1a4:	00010068 	andeq	r0, r1, r8, rrx
 1a8:	69727000 	ldmdbvs	r2!, {ip, sp, lr}^
 1ac:	2e66746e 	cdpcs	4, 6, cr7, cr6, cr14, {3}
 1b0:	00020063 	andeq	r0, r2, r3, rrx
 1b4:	64747300 	ldrbtvs	r7, [r4], #-768	; 0xfffffd00
 1b8:	2e677261 	cdpcs	2, 6, cr7, cr7, cr1, {3}
 1bc:	00010068 	andeq	r0, r1, r8, rrx
 1c0:	05000000 	streq	r0, [r0, #-0]
 1c4:	c0036402 	andgt	r6, r3, r2, lsl #8
 1c8:	00c40343 	sbceq	r0, r4, r3, asr #6
 1cc:	67bb9f01 	ldrvs	r9, [fp, r1, lsl #30]!
 1d0:	0302042f 	movweq	r0, #9263	; 0x242f
 1d4:	bb9e7fbf 	bllt	fe7a00d8 <__bss_end__+0xbab9b8dc>
 1d8:	0067834c 	rsbeq	r8, r7, ip, asr #6
 1dc:	06010402 	streq	r0, [r1], -r2, lsl #8
 1e0:	4bf30682 	blmi	ffcc1bf0 <__bss_end__+0xbc0bd3f4>
 1e4:	674d6768 	strbvs	r6, [sp, -r8, ror #14]
 1e8:	7fbb304c 	svcvc	0x00bb304c
 1ec:	01040200 	tsteq	r4, r0, lsl #4
 1f0:	02002e06 	andeq	r2, r0, #6, 28	; 0x60
 1f4:	00d60204 	sbcseq	r0, r6, r4, lsl #4
 1f8:	d6010402 	strle	r0, [r1], -r2, lsl #8
 1fc:	02040200 	andeq	r0, r4, #0, 4
 200:	00d70682 	sbcseq	r0, r7, r2, lsl #13
 204:	06030402 	streq	r0, [r3], -r2, lsl #8
 208:	040200d6 	streq	r0, [r2], #-214	; 0xffffff2a
 20c:	a3650605 	cmnge	r5, #5242880	; 0x500000
 210:	852f6767 	strhi	r6, [pc, #-1895]!	; fffffab1 <__bss_end__+0xbc3fb2b5>
 214:	210883bb 			; <UNDEFINED> instruction: 0x210883bb
 218:	6624039f 			; <UNDEFINED> instruction: 0x6624039f
 21c:	002f4c83 	eoreq	r4, pc, r3, lsl #25
 220:	08010402 	stmdaeq	r1, {r1, sl}
 224:	040200c7 	streq	r0, [r2], #-199	; 0xffffff39
 228:	069e0602 	ldreq	r0, [lr], r2, lsl #12
 22c:	20032fa0 	andcs	r2, r3, r0, lsr #31
 230:	834dd882 	movthi	sp, #55426	; 0xd882
 234:	0067834b 	rsbeq	r8, r7, fp, asr #6
 238:	06010402 	streq	r0, [r1], -r2, lsl #8
 23c:	4b670666 	blmi	19c1bdc <_start-0x4223e424>
 240:	01040200 	tsteq	r4, r0, lsl #4
 244:	02009e06 	andeq	r9, r0, #6, 28	; 0x60
 248:	004a0204 	subeq	r0, sl, r4, lsl #4
 24c:	2e030402 	cdpcs	4, 0, cr0, cr3, cr2, {0}
 250:	03040200 	movweq	r0, #16896	; 0x4200
 254:	02002f06 	andeq	r2, r0, #6, 30
 258:	834b0304 	movthi	r0, #45828	; 0xb304
 25c:	83674b67 	cmnhi	r7, #105472	; 0x19c00
 260:	83834b83 	orrhi	r4, r3, #134144	; 0x20c00
 264:	6783694b 	strvs	r6, [r3, fp, asr #18]
 268:	4b686783 	blmi	1a1a07c <_start-0x421e5f84>
 26c:	835a0867 	cmphi	sl, #6750208	; 0x670000
 270:	01040200 	tsteq	r4, r0, lsl #4
 274:	69103202 	ldmdbvs	r0, {r1, r9, ip, sp}
 278:	2f83834b 	svccs	0x0083834b
 27c:	01040200 	tsteq	r4, r0, lsl #4
 280:	673e08b9 			; <UNDEFINED> instruction: 0x673e08b9
 284:	d76783bb 			; <UNDEFINED> instruction: 0xd76783bb
 288:	83f5bb67 	mvnshi	fp, #105472	; 0x19c00
 28c:	0402002f 	streq	r0, [r2], #-47	; 0xffffffd1
 290:	3e08b901 	cdpcc	9, 0, cr11, cr8, cr1, {0}
 294:	0200d52f 	andeq	sp, r0, #197132288	; 0xbc00000
 298:	2e060104 	adfcss	f0, f6, f4
 29c:	2f5a0806 	svccs	0x005a0806
 2a0:	01040200 	tsteq	r4, r0, lsl #4
 2a4:	3e085708 	cdpcc	7, 0, cr5, cr8, cr8, {0}
 2a8:	0402002f 	streq	r0, [r2], #-47	; 0xffffffd1
 2ac:	3e08b901 	cdpcc	9, 0, cr11, cr8, cr1, {0}
 2b0:	00a1a32f 	adceq	sl, r1, pc, lsr #6
 2b4:	06010402 	streq	r0, [r1], -r2, lsl #8
 2b8:	04020066 	streq	r0, [r2], #-102	; 0xffffff9a
 2bc:	06900802 	ldreq	r0, [r0], r2, lsl #16
 2c0:	03846784 	orreq	r6, r4, #132, 14	; 0x2100000
 2c4:	8367ba12 	cmnhi	r7, #73728	; 0x12000
 2c8:	674c32d7 			; <UNDEFINED> instruction: 0x674c32d7
 2cc:	83132e02 	tsthi	r3, #2, 28
 2d0:	86838383 	strhi	r8, [r3], r3, lsl #7
 2d4:	0402004b 	streq	r0, [r2], #-75	; 0xffffffb5
 2d8:	06820601 	streq	r0, [r2], r1, lsl #12
 2dc:	68839f83 	stmvs	r3, {r0, r1, r7, r8, r9, sl, fp, ip, pc}
 2e0:	6b67679f 	blvs	19da164 <_start-0x42225e9c>
 2e4:	0067834b 	rsbeq	r8, r7, fp, asr #6
 2e8:	06010402 	streq	r0, [r1], -r2, lsl #8
 2ec:	9f830682 	svcls	0x00830682
 2f0:	67a06883 	strvs	r6, [r0, r3, lsl #17]!
 2f4:	02004b4e 	andeq	r4, r0, #79872	; 0x13800
 2f8:	82060104 	andhi	r0, r6, #4, 2
 2fc:	01040200 	tsteq	r4, r0, lsl #4
 300:	0200f306 	andeq	pc, r0, #402653184	; 0x18000000
 304:	4b490104 	blmi	124071c <_start-0x429bf8e4>
 308:	01040200 	tsteq	r4, r0, lsl #4
 30c:	02008206 	andeq	r8, r0, #1610612736	; 0x60000000
 310:	83060104 	movwhi	r0, #24836	; 0x6104
 314:	01040200 	tsteq	r4, r0, lsl #4
 318:	00674c49 	rsbeq	r4, r7, r9, asr #24
 31c:	06010402 	streq	r0, [r1], -r2, lsl #8
 320:	4b9f0666 	blmi	fe7c1cc0 <__bss_end__+0xbabbd4c4>
 324:	024c6a68 	subeq	r6, ip, #104, 20	; 0x68000
 328:	831401b4 	tsthi	r4, #180, 2	; 0x2d
 32c:	0402002f 	streq	r0, [r2], #-47	; 0xffffffd1
 330:	08bcb901 	ldmeq	ip!, {r0, r8, fp, ip, sp, pc}
 334:	02002f3d 	andeq	r2, r0, #61, 30	; 0xf4
 338:	bcb90104 	ldflts	f0, [r9], #16
 33c:	4c679f31 	stclmi	15, cr9, [r7], #-196	; 0xffffff3c
 340:	002f83bc 			; <UNDEFINED> instruction: 0x002f83bc
 344:	b9010402 	stmdblt	r1, {r1, sl}
 348:	02005a08 	andeq	r5, r0, #8, 20	; 0x8000
 34c:	00670204 	rsbeq	r0, r7, r4, lsl #4
 350:	08020402 	stmdaeq	r2, {r1, sl}
 354:	0402003b 	streq	r0, [r2], #-59	; 0xffffffc5
 358:	06660601 	strbteq	r0, [r6], -r1, lsl #12
 35c:	02002f84 	andeq	r2, r0, #132, 30	; 0x210
 360:	08b90104 	ldmeq	r9!, {r2, r8}
 364:	4b67315a 	blmi	19cc8d4 <_start-0x4223372c>
 368:	3f088169 	svccc	0x00088169
 36c:	a39f6732 	orrsge	r6, pc, #13107200	; 0xc80000
 370:	31a09f2b 	lsrcc	r9, fp, #30
 374:	314b32bb 	strhcc	r3, [fp, #-43]	; 0xffffffd5
 378:	68324b68 	ldmdavs	r2!, {r3, r5, r6, r8, r9, fp, lr}
 37c:	d983bb31 	stmible	r3, {r0, r4, r5, r8, r9, fp, ip, sp, pc}
 380:	7803672d 	stmdavc	r3, {r0, r2, r3, r5, r8, r9, sl, sp, lr}
 384:	2e0f032e 	cdpcs	3, 0, cr0, cr15, cr14, {1}
 388:	0200bb67 	andeq	fp, r0, #105472	; 0x19c00
 38c:	66060104 	strvs	r0, [r6], -r4, lsl #2
 390:	67bb6706 	ldrvs	r6, [fp, r6, lsl #14]!
 394:	83d767bb 	bicshi	r6, r7, #49020928	; 0x2ec0000
 398:	9fbc83d7 	svcls	0x00bc83d7
 39c:	087ee203 	ldmdaeq	lr!, {r0, r1, r9, sp, lr, pc}^
 3a0:	04020074 	streq	r0, [r2], #-116	; 0xffffff8c
 3a4:	06660601 	strbteq	r0, [r6], -r1, lsl #12
 3a8:	8201a003 	andhi	sl, r1, #3
 3ac:	a2856767 	addge	r6, r5, #27000832	; 0x19c0000
 3b0:	a12fbc4b 	teqge	pc, fp, asr #24
 3b4:	67bc4f85 	ldrvs	r4, [ip, r5, lsl #31]!
 3b8:	01000802 	tsteq	r0, r2, lsl #16
 3bc:	00009c01 	andeq	r9, r0, r1, lsl #24
 3c0:	5d000200 	sfmpl	f0, 4, [r0, #-0]
 3c4:	02000000 	andeq	r0, r0, #0
 3c8:	0d0efb01 	vstreq	d15, [lr, #-4]
 3cc:	01010100 	tsteq	r1, r0, lsl #2
 3d0:	00000001 	andeq	r0, r0, r1
 3d4:	01000001 	tsteq	r0, r1
 3d8:	6d6d6f63 	stclvs	15, cr6, [sp, #-396]!	; 0xfffffe74
 3dc:	732f6e6f 	teqvc	pc, #1776	; 0x6f0
 3e0:	2e006372 	mcrcs	3, 0, r6, cr0, cr2, {3}
 3e4:	6d6f632f 	stclvs	3, cr6, [pc, #-188]!	; 330 <_start-0x43bffcd0>
 3e8:	2f6e6f6d 	svccs	0x006e6f6d
 3ec:	6c636e69 	stclvs	14, cr6, [r3], #-420	; 0xfffffe5c
 3f0:	00656475 	rsbeq	r6, r5, r5, ror r4
 3f4:	72617500 	rsbvc	r7, r1, #0, 10
 3f8:	00632e74 	rsbeq	r2, r3, r4, ror lr
 3fc:	73000001 	movwvc	r0, #1
 400:	38367035 	ldmdacc	r6!, {r0, r2, r4, r5, ip, sp, lr}
 404:	675f3831 	smmlarvs	pc, r1, r8, r3	; <UNPREDICTABLE>
 408:	2e6f6970 	mcrcs	9, 3, r6, cr15, cr0, {3}
 40c:	00020068 	andeq	r0, r2, r8, rrx
 410:	70357300 	eorsvc	r7, r5, r0, lsl #6
 414:	38313836 	ldmdacc	r1!, {r1, r2, r4, r5, fp, ip, sp}
 418:	7261755f 	rsbvc	r7, r1, #398458880	; 0x17c00000
 41c:	00682e74 	rsbeq	r2, r8, r4, ror lr
 420:	00000002 	andeq	r0, r0, r2
 424:	3c020500 	cfstr32cc	mvfx0, [r2], {-0}
 428:	1543c015 	strbne	ip, [r3, #-21]	; 0xffffffeb
 42c:	9fa09f4c 	svcls	0x00a09f4c
 430:	67a09f9f 			; <UNDEFINED> instruction: 0x67a09f9f
 434:	9fa19f68 	svcls	0x00a19f68
 438:	01040200 	tsteq	r4, r0, lsl #4
 43c:	9f062e06 	svcls	0x00062e06
 440:	684b6767 	stmdavs	fp, {r0, r1, r2, r5, r6, r8, r9, sl, sp, lr}^
 444:	02002f83 	andeq	r2, r0, #524	; 0x20c
 448:	84d50104 	ldrbhi	r0, [r5], #260	; 0x104
 44c:	0200684d 	andeq	r6, r0, #5046272	; 0x4d0000
 450:	2e060104 	adfcss	f0, f6, f4
 454:	2f679f06 	svccs	0x00679f06
 458:	01000a02 	tsteq	r0, r2, lsl #20
 45c:	00004901 	andeq	r4, r0, r1, lsl #18
 460:	25000200 	strcs	r0, [r0, #-512]	; 0xfffffe00
 464:	02000000 	andeq	r0, r0, #0
 468:	0d0efb01 	vstreq	d15, [lr, #-4]
 46c:	01010100 	tsteq	r1, r0, lsl #2
 470:	00000001 	andeq	r0, r0, r1
 474:	01000001 	tsteq	r0, r1
 478:	00637273 	rsbeq	r7, r3, r3, ror r2
 47c:	74617700 	strbtvc	r7, [r1], #-1792	; 0xfffff900
 480:	6f646863 	svcvs	0x00646863
 484:	00632e67 	rsbeq	r2, r3, r7, ror #28
 488:	00000001 	andeq	r0, r0, r1
 48c:	e4020500 	str	r0, [r2], #-1280	; 0xfffffb00
 490:	1643c016 			; <UNDEFINED> instruction: 0x1643c016
 494:	a09f4b67 	addsge	r4, pc, r7, ror #22
 498:	69a0a09f 	stmibvs	r0!, {r0, r1, r2, r3, r4, r7, sp, pc}
 49c:	68839f4c 	stmvs	r3, {r2, r3, r6, r8, r9, sl, fp, ip, pc}
 4a0:	4bf49f9f 	blmi	ffd28324 <__bss_end__+0xbc123b28>
 4a4:	00080267 	andeq	r0, r8, r7, ror #4
 4a8:	01ed0101 	mvneq	r0, r1, lsl #2
 4ac:	00020000 	andeq	r0, r2, r0
 4b0:	0000006a 	andeq	r0, r0, sl, rrx
 4b4:	0efb0102 	cdpeq	1, 15, cr0, cr11, cr2, {0}
 4b8:	0101000d 	tsteq	r1, sp
 4bc:	00000101 	andeq	r0, r0, r1, lsl #2
 4c0:	00000100 	andeq	r0, r0, r0, lsl #2
 4c4:	63727301 	cmnvs	r2, #67108864	; 0x4000000
 4c8:	632f2e00 	teqvs	pc, #0, 28
 4cc:	6f6d6d6f 	svcvs	0x006d6d6f
 4d0:	6e692f6e 	cdpvs	15, 6, cr2, cr9, cr14, {3}
 4d4:	64756c63 	ldrbtvs	r6, [r5], #-3171	; 0xfffff39d
 4d8:	2f2e0065 	svccs	0x002e0065
 4dc:	6c636e69 	stclvs	14, cr6, [r3], #-420	; 0xfffffe5c
 4e0:	00656475 	rsbeq	r6, r5, r5, ror r4
 4e4:	72617500 	rsbvc	r7, r1, #0, 10
 4e8:	00632e74 	rsbeq	r2, r3, r4, ror lr
 4ec:	73000001 	movwvc	r0, #1
 4f0:	38367035 	ldmdacc	r6!, {r0, r2, r4, r5, ip, sp, lr}
 4f4:	675f3831 	smmlarvs	pc, r1, r8, r3	; <UNPREDICTABLE>
 4f8:	2e6f6970 	mcrcs	9, 3, r6, cr15, cr0, {3}
 4fc:	00020068 	andeq	r0, r2, r8, rrx
 500:	70357300 	eorsvc	r7, r5, r0, lsl #6
 504:	38313836 	ldmdacc	r1!, {r1, r2, r4, r5, fp, ip, sp}
 508:	7261755f 	rsbvc	r7, r1, #398458880	; 0x17c00000
 50c:	00682e74 	rsbeq	r2, r8, r4, ror lr
 510:	75000002 	strvc	r0, [r0, #-2]
 514:	2e747261 	cdpcs	2, 7, cr7, cr4, cr1, {3}
 518:	00030068 	andeq	r0, r3, r8, rrx
 51c:	05000000 	streq	r0, [r0, #-0]
 520:	c0180c02 	andsgt	r0, r8, r2, lsl #24
 524:	9fa01743 	svcls	0x00a01743
 528:	9fa29f9f 	svcls	0x00a29f9f
 52c:	08a49f9f 	stmiaeq	r4!, {r0, r1, r2, r3, r4, r7, r8, r9, sl, fp, ip, pc}
 530:	42088492 	andmi	r8, r8, #-1845493760	; 0x92000000
 534:	9f9f6a67 	svcls	0x009f6a67
 538:	83bda09f 			; <UNDEFINED> instruction: 0x83bda09f
 53c:	0067304b 	rsbeq	r3, r7, fp, asr #32
 540:	63010402 	movwvs	r0, #5122	; 0x1402
 544:	a3872f87 	orrge	r2, r7, #540	; 0x21c
 548:	01040200 	tsteq	r4, r0, lsl #4
 54c:	be062e06 	cdplt	14, 0, cr2, cr6, cr6, {0}
 550:	6b4b6769 	blvs	12da2fc <_start-0x42925d04>
 554:	020031db 	andeq	r3, r0, #-1073741770	; 0xc0000036
 558:	71080104 	tstvc	r8, r4, lsl #2
 55c:	848667a6 	strhi	r6, [r6], #1958	; 0x7a6
 560:	0083314b 	addeq	r3, r3, fp, asr #2
 564:	62010402 	andvs	r0, r1, #33554432	; 0x2000000
 568:	68d94f89 	ldmvs	r9, {r0, r3, r7, r8, r9, sl, fp, lr}^
 56c:	9f689108 	svcls	0x00689108
 570:	00667a03 	rsbeq	r7, r6, r3, lsl #20
 574:	06010402 	streq	r0, [r1], -r2, lsl #8
 578:	0a030666 	beq	c1f18 <_start-0x43b3e0e8>
 57c:	4f9f31ba 	svcmi	0x009f31ba
 580:	304b4b9f 	umaalcc	r4, fp, pc, fp	; <UNPREDICTABLE>
 584:	04020067 	streq	r0, [r2], #-103	; 0xffffff99
 588:	02006301 	andeq	r6, r0, #67108864	; 0x4000000
 58c:	ba060204 	blt	180da4 <_start-0x43a7f25c>
 590:	01040200 	tsteq	r4, r0, lsl #4
 594:	00870682 	addeq	r0, r7, r2, lsl #13
 598:	06010402 	streq	r0, [r1], -r2, lsl #8
 59c:	4c830682 	stcmi	6, cr0, [r3], {130}	; 0x82
 5a0:	4cd8872f 	ldclmi	7, cr8, [r8], {47}	; 0x2f
 5a4:	2f172602 	svccs	0x00172602
 5a8:	4b312f31 	blmi	c4c274 <_start-0x42fb3d8c>
 5ac:	4b312f31 	blmi	c4c278 <_start-0x42fb3d88>
 5b0:	4b312f31 	blmi	c4c27c <_start-0x42fb3d84>
 5b4:	2f316731 	svccs	0x00316731
 5b8:	4b314b31 	blmi	c53284 <_start-0x42facd7c>
 5bc:	4b314b31 	blmi	c53288 <_start-0x42facd78>
 5c0:	304b4b30 	subcc	r4, fp, r0, lsr fp
 5c4:	31304b4b 	teqcc	r0, fp, asr #22
 5c8:	01040200 	tsteq	r4, r0, lsl #4
 5cc:	68066606 	stmdavs	r6, {r1, r2, r9, sl, sp, lr}
 5d0:	bd24084c 	stclt	8, cr0, [r4, #-304]!	; 0xfffffed0
 5d4:	50024b83 	andpl	r4, r2, r3, lsl #23
 5d8:	304b4b13 	subcc	r4, fp, r3, lsl fp
 5dc:	6867d76c 	stmdavs	r7!, {r2, r3, r5, r6, r8, r9, sl, ip, lr, pc}^
 5e0:	6767d784 	strbvs	sp, [r7, -r4, lsl #15]!
 5e4:	01040200 	tsteq	r4, r0, lsl #4
 5e8:	a2666f03 	rsbge	r6, r6, #3, 30
 5ec:	4c2e1103 	stfmis	f1, [lr], #-12
 5f0:	4b83852f 	blmi	fe0e1ab4 <__bss_end__+0xba4dd2b8>
 5f4:	4c4be508 	cfstr64mi	mvdx14, [fp], {8}
 5f8:	67d76830 			; <UNDEFINED> instruction: 0x67d76830
 5fc:	84686786 	strbthi	r6, [r8], #-1926	; 0xfffff87a
 600:	67676767 	strbvs	r6, [r7, -r7, ror #14]!
 604:	01040200 	tsteq	r4, r0, lsl #4
 608:	034a6d03 	movteq	r6, #44291	; 0xad03
 60c:	2f4c8217 	svccs	0x004c8217
 610:	02009f86 	andeq	r9, r0, #536	; 0x218
 614:	ba060104 	blt	180a2c <_start-0x43a7f5d4>
 618:	0068bc06 	rsbeq	fp, r8, r6, lsl #24
 61c:	06010402 	streq	r0, [r1], -r2, lsl #8
 620:	67bc06ba 			; <UNDEFINED> instruction: 0x67bc06ba
 624:	02003149 	andeq	r3, r0, #1073741842	; 0x40000012
 628:	ba060104 	blt	180a40 <_start-0x43a7f5c0>
 62c:	0068bc06 	rsbeq	fp, r8, r6, lsl #24
 630:	06010402 	streq	r0, [r1], -r2, lsl #8
 634:	67bc06ba 			; <UNDEFINED> instruction: 0x67bc06ba
 638:	02003149 	andeq	r3, r0, #1073741842	; 0x40000012
 63c:	ba060104 	blt	180a54 <_start-0x43a7f5ac>
 640:	0068bc06 	rsbeq	fp, r8, r6, lsl #24
 644:	06010402 	streq	r0, [r1], -r2, lsl #8
 648:	67bc06ba 			; <UNDEFINED> instruction: 0x67bc06ba
 64c:	02003149 	andeq	r3, r0, #1073741842	; 0x40000012
 650:	ba060104 	blt	180a68 <_start-0x43a7f598>
 654:	0068bc06 	rsbeq	fp, r8, r6, lsl #24
 658:	06010402 	streq	r0, [r1], -r2, lsl #8
 65c:	68bc06ba 	ldmvs	ip!, {r1, r3, r4, r5, r7, r9, sl}
 660:	01040200 	tsteq	r4, r0, lsl #4
 664:	bc06ba06 	stclt	10, cr11, [r6], {6}
 668:	04020068 	streq	r0, [r2], #-104	; 0xffffff98
 66c:	06ba0601 	ldrteq	r0, [sl], r1, lsl #12
 670:	020068bc 	andeq	r6, r0, #188, 16	; 0xbc0000
 674:	ba060104 	blt	180a8c <_start-0x43a7f574>
 678:	0068bc06 	rsbeq	fp, r8, r6, lsl #24
 67c:	06010402 	streq	r0, [r1], -r2, lsl #8
 680:	6abc06ba 	bvs	fef02170 <__bss_end__+0xbb2fd974>
 684:	3602304d 	strcc	r3, [r2], -sp, asr #32
 688:	004b9f16 	subeq	r9, fp, r6, lsl pc
 68c:	06010402 	streq	r0, [r1], -r2, lsl #8
 690:	2402062e 	strcs	r0, [r2], #-1582	; 0xfffff9d2
 694:	08022f13 	stmdaeq	r2, {r0, r1, r4, r8, r9, sl, fp, sp}
 698:	bb010100 	bllt	40aa0 <_start-0x43bbf560>
 69c:	02000000 	andeq	r0, r0, #0
 6a0:	00006800 	andeq	r6, r0, r0, lsl #16
 6a4:	fb010200 	blx	40eae <_start-0x43bbf152>
 6a8:	01000d0e 	tsteq	r0, lr, lsl #26
 6ac:	00010101 	andeq	r0, r1, r1, lsl #2
 6b0:	00010000 	andeq	r0, r1, r0
 6b4:	72730100 	rsbsvc	r0, r3, #0, 2
 6b8:	2f2e0063 	svccs	0x002e0063
 6bc:	6d6d6f63 	stclvs	15, cr6, [sp, #-396]!	; 0xfffffe74
 6c0:	692f6e6f 	stmdbvs	pc!, {r0, r1, r2, r3, r5, r6, r9, sl, fp, sp, lr}	; <UNPREDICTABLE>
 6c4:	756c636e 	strbvc	r6, [ip, #-878]!	; 0xfffffc92
 6c8:	00006564 	andeq	r6, r0, r4, ror #10
 6cc:	695f6f64 	ldmdbvs	pc, {r2, r5, r6, r8, r9, sl, fp, sp, lr}^	; <UNPREDICTABLE>
 6d0:	632e7172 	teqvs	lr, #-2147483620	; 0x8000001c
 6d4:	00000100 	andeq	r0, r0, r0, lsl #2
 6d8:	36703573 			; <UNDEFINED> instruction: 0x36703573
 6dc:	5f383138 	svcpl	0x00383138
 6e0:	6f697067 	svcvs	0x00697067
 6e4:	0200682e 	andeq	r6, r0, #3014656	; 0x2e0000
 6e8:	35730000 	ldrbcc	r0, [r3, #-0]!
 6ec:	31383670 	teqcc	r8, r0, ror r6
 6f0:	6e695f38 	mcrvs	15, 3, r5, cr9, cr8, {1}
 6f4:	00682e74 	rsbeq	r2, r8, r4, ror lr
 6f8:	73000002 	movwvc	r0, #2
 6fc:	38367035 	ldmdacc	r6!, {r0, r2, r4, r5, ip, sp, lr}
 700:	705f3831 	subsvc	r3, pc, r1, lsr r8	; <UNPREDICTABLE>
 704:	682e6d77 	stmdavs	lr!, {r0, r1, r2, r4, r5, r6, r8, sl, fp, sp, lr}
 708:	00000200 	andeq	r0, r0, r0, lsl #4
 70c:	02050000 	andeq	r0, r5, #0
 710:	43c024fc 	bicmi	r2, r0, #252, 8	; 0xfc000000
 714:	029f6917 	addseq	r6, pc, #376832	; 0x5c000
 718:	9f4b1544 	svcls	0x004b1544
 71c:	a04c309f 	umaalge	r3, ip, pc, r0	; <UNPREDICTABLE>
 720:	a068309f 	mlsge	r8, pc, r0, r3	; <UNPREDICTABLE>
 724:	3067309f 	mlscc	r7, pc, r0, r3	; <UNPREDICTABLE>
 728:	68329f68 	ldmdavs	r2!, {r3, r5, r6, r8, r9, sl, fp, ip, pc}
 72c:	004c30a1 	subeq	r3, ip, r1, lsr #1
 730:	06010402 	streq	r0, [r1], -r2, lsl #8
 734:	009f062e 	addseq	r0, pc, lr, lsr #12
 738:	45010402 	strmi	r0, [r1, #-1026]	; 0xfffffbfe
 73c:	bd9e0903 	ldclt	9, cr0, [lr, #12]
 740:	004b30a1 	subeq	r3, fp, r1, lsr #1
 744:	06010402 	streq	r0, [r1], -r2, lsl #8
 748:	009f062e 	addseq	r0, pc, lr, lsr #12
 74c:	46010402 	strmi	r0, [r1], -r2, lsl #8
 750:	359fa1a5 	ldrcc	sl, [pc, #421]	; 8fd <_start-0x43bff703>
 754:	001a02f3 			; <UNDEFINED> instruction: 0x001a02f3
 758:	00a50101 	adceq	r0, r5, r1, lsl #2
 75c:	00020000 	andeq	r0, r2, r0
 760:	00000057 	andeq	r0, r0, r7, asr r0
 764:	0efb0102 	cdpeq	1, 15, cr0, cr11, cr2, {0}
 768:	0101000d 	tsteq	r1, sp
 76c:	00000101 	andeq	r0, r0, r1, lsl #2
 770:	00000100 	andeq	r0, r0, r0, lsl #2
 774:	63727301 	cmnvs	r2, #67108864	; 0x4000000
 778:	632f2e00 	teqvs	pc, #0, 28
 77c:	6f6d6d6f 	svcvs	0x006d6d6f
 780:	6e692f6e 	cdpvs	15, 6, cr2, cr9, cr14, {3}
 784:	64756c63 	ldrbtvs	r6, [r5], #-3171	; 0xfffff39d
 788:	70000065 	andvc	r0, r0, r5, rrx
 78c:	6f5f6d77 	svcvs	0x005f6d77
 790:	00632e6e 	rsbeq	r2, r3, lr, ror #28
 794:	73000001 	movwvc	r0, #1
 798:	38367035 	ldmdacc	r6!, {r0, r2, r4, r5, ip, sp, lr}
 79c:	675f3831 	smmlarvs	pc, r1, r8, r3	; <UNPREDICTABLE>
 7a0:	2e6f6970 	mcrcs	9, 3, r6, cr15, cr0, {3}
 7a4:	00020068 	andeq	r0, r2, r8, rrx
 7a8:	70357300 	eorsvc	r7, r5, r0, lsl #6
 7ac:	38313836 	ldmdacc	r1!, {r1, r2, r4, r5, fp, ip, sp}
 7b0:	6d77705f 	ldclvs	0, cr7, [r7, #-380]!	; 0xfffffe84
 7b4:	0200682e 	andeq	r6, r0, #3014656	; 0x2e0000
 7b8:	00000000 	andeq	r0, r0, r0
 7bc:	27c40205 	strbcs	r0, [r4, r5, lsl #4]
 7c0:	a01543c0 	andsge	r4, r5, r0, asr #7
 7c4:	bd9fa39f 	ldclt	3, cr10, [pc, #636]	; a48 <_start-0x43bff5b8>
 7c8:	a167a19f 			; <UNDEFINED> instruction: 0xa167a19f
 7cc:	a0a0a0a0 	adcge	sl, r0, r0, lsr #1
 7d0:	4b83a0a0 	blmi	fe0e8a58 <__bss_end__+0xba4e425c>
 7d4:	a19fa0be 	ldrhge	sl, [pc, lr]
 7d8:	9f698467 	svcls	0x00698467
 7dc:	a0a367a1 	adcge	r6, r3, r1, lsr #15
 7e0:	a1a0a0a0 	lsrge	sl, r0, #1
 7e4:	bd4b83a0 	stcllt	3, cr8, [fp, #-640]	; 0xfffffd80
 7e8:	d9a19fa0 	stmible	r1!, {r5, r7, r8, r9, sl, fp, ip, pc}
 7ec:	039f9f9f 	orrseq	r9, pc, #636	; 0x27c
 7f0:	a0679e0a 	rsbge	r9, r7, sl, lsl #28
 7f4:	a0a0a084 	adcge	sl, r0, r4, lsl #1
 7f8:	4ca0a3a0 	stcmi	3, cr10, [r0], #640	; 0x280
 7fc:	08029f9f 	stmdaeq	r2, {r0, r1, r2, r3, r4, r7, r8, r9, sl, fp, ip, pc}
 800:	95010100 	strls	r0, [r1, #-256]	; 0xffffff00
 804:	02000000 	andeq	r0, r0, #0
 808:	00005400 	andeq	r5, r0, r0, lsl #8
 80c:	fb010200 	blx	41016 <_start-0x43bbefea>
 810:	01000d0e 	tsteq	r0, lr, lsl #26
 814:	00010101 	andeq	r0, r1, r1, lsl #2
 818:	00010000 	andeq	r0, r1, r0
 81c:	72730100 	rsbsvc	r0, r3, #0, 2
 820:	2f2e0063 	svccs	0x002e0063
 824:	6d6d6f63 	stclvs	15, cr6, [sp, #-396]!	; 0xfffffe74
 828:	692f6e6f 	stmdbvs	pc!, {r0, r1, r2, r3, r5, r6, r9, sl, fp, sp, lr}	; <UNPREDICTABLE>
 82c:	756c636e 	strbvc	r6, [ip, #-878]!	; 0xfffffc92
 830:	00006564 	andeq	r6, r0, r4, ror #10
 834:	2e79656b 	cdpcs	5, 7, cr6, cr9, cr11, {3}
 838:	00010063 	andeq	r0, r1, r3, rrx
 83c:	70357300 	eorsvc	r7, r5, r0, lsl #6
 840:	38313836 	ldmdacc	r1!, {r1, r2, r4, r5, fp, ip, sp}
 844:	6970675f 	ldmdbvs	r0!, {r0, r1, r2, r3, r4, r6, r8, r9, sl, sp, lr}^
 848:	00682e6f 	rsbeq	r2, r8, pc, ror #28
 84c:	73000002 	movwvc	r0, #2
 850:	38367035 	ldmdacc	r6!, {r0, r2, r4, r5, ip, sp, lr}
 854:	695f3831 	ldmdbvs	pc, {r0, r4, r5, fp, ip, sp}^	; <UNPREDICTABLE>
 858:	682e746e 	stmdavs	lr!, {r1, r2, r3, r5, r6, sl, ip, sp, lr}
 85c:	00000200 	andeq	r0, r0, r0, lsl #4
 860:	02050000 	andeq	r0, r5, #0
 864:	43c02c00 	bicmi	r2, r0, #0, 24
 868:	a1a04d14 	lslge	r4, r4, sp
 86c:	a0a09f9f 	umlalge	r9, r0, pc, pc	; <UNPREDICTABLE>
 870:	a1a09fa2 	lsrge	r9, r2, #31
 874:	a0a09f9f 	umlalge	r9, r0, pc, pc	; <UNPREDICTABLE>
 878:	a04d859f 	umaalge	r8, sp, pc, r5	; <UNPREDICTABLE>
 87c:	a19fa09f 			; <UNDEFINED> instruction: 0xa19fa09f
 880:	9f9f9f9f 	svcls	0x009f9f9f
 884:	a09fa0a2 	addsge	sl, pc, r2, lsr #1
 888:	9f9fa29f 	svcls	0x009fa29f
 88c:	a0a29f9f 	umlalge	r9, r2, pc, pc	; <UNPREDICTABLE>
 890:	a19fa09f 			; <UNDEFINED> instruction: 0xa19fa09f
 894:	029fa0a2 	addseq	sl, pc, #162	; 0xa2
 898:	01010012 	tsteq	r1, r2, lsl r0
 89c:	0000004c 	andeq	r0, r0, ip, asr #32
 8a0:	00220002 	eoreq	r0, r2, r2
 8a4:	01020000 	tsteq	r2, r0
 8a8:	000d0efb 	strdeq	r0, [sp], -fp
 8ac:	01010101 	tsteq	r1, r1, lsl #2
 8b0:	01000000 	tsteq	r0, r0
 8b4:	73010000 	movwvc	r0, #4096	; 0x1000
 8b8:	00006372 	andeq	r6, r0, r2, ror r3
 8bc:	616c6564 	cmnvs	ip, r4, ror #10
 8c0:	00632e79 	rsbeq	r2, r3, r9, ror lr
 8c4:	00000001 	andeq	r0, r0, r1
 8c8:	a0020500 	andge	r0, r2, r0, lsl #10
 8cc:	1643c02f 	strbne	ip, [r3], -pc, lsr #32
 8d0:	02006785 	andeq	r6, r0, #34865152	; 0x2140000
 8d4:	66060204 	strvs	r0, [r6], -r4, lsl #4
 8d8:	01040200 	tsteq	r4, r0, lsl #4
 8dc:	00810666 	addeq	r0, r1, r6, ror #12
 8e0:	06010402 	streq	r0, [r1], -r2, lsl #8
 8e4:	02840666 	addeq	r0, r4, #106954752	; 0x6600000
 8e8:	01010008 	tsteq	r1, r8
 8ec:	000000b0 	strheq	r0, [r0], -r0	; <UNPREDICTABLE>
 8f0:	005c0002 	subseq	r0, ip, r2
 8f4:	01020000 	tsteq	r2, r0
 8f8:	000d0efb 	strdeq	r0, [sp], -fp
 8fc:	01010101 	tsteq	r1, r1, lsl #2
 900:	01000000 	tsteq	r0, r0
 904:	73010000 	movwvc	r0, #4096	; 0x1000
 908:	2e006372 	mcrcs	3, 0, r6, cr0, cr2, {3}
 90c:	6d6f632f 	stclvs	3, cr6, [pc, #-188]!	; 858 <_start-0x43bff7a8>
 910:	2f6e6f6d 	svccs	0x006e6f6d
 914:	6c636e69 	stclvs	14, cr6, [r3], #-420	; 0xfffffe5c
 918:	00656475 	rsbeq	r6, r5, r5, ror r4
 91c:	6e692f2e 	cdpvs	15, 6, cr2, cr9, cr14, {1}
 920:	64756c63 	ldrbtvs	r6, [r5], #-3171	; 0xfffff39d
 924:	6c000065 	stcvs	0, cr0, [r0], {101}	; 0x65
 928:	6f5f6465 	svcvs	0x005f6465
 92c:	00632e6e 	rsbeq	r2, r3, lr, ror #28
 930:	73000001 	movwvc	r0, #1
 934:	38367035 	ldmdacc	r6!, {r0, r2, r4, r5, ip, sp, lr}
 938:	675f3831 	smmlarvs	pc, r1, r8, r3	; <UNPREDICTABLE>
 93c:	2e6f6970 	mcrcs	9, 3, r6, cr15, cr0, {3}
 940:	00020068 	andeq	r0, r2, r8, rrx
 944:	64656c00 	strbtvs	r6, [r5], #-3072	; 0xfffff400
 948:	2e6e6f5f 	mcrcs	15, 3, r6, cr14, cr15, {2}
 94c:	00030068 	andeq	r0, r3, r8, rrx
 950:	05000000 	streq	r0, [r0, #-0]
 954:	c0301002 	eorsgt	r1, r0, r2
 958:	a04d1643 	subge	r1, sp, r3, asr #12
 95c:	a0a19fa0 	adcge	r9, r1, r0, lsr #31
 960:	9f9fa0a0 	svcls	0x009fa0a0
 964:	6883bd9f 	stmvs	r3, {r0, r1, r2, r3, r4, r7, r8, sl, fp, ip, sp, pc}
 968:	8384a0be 	orrhi	sl, r4, #190	; 0xbe
 96c:	84a0be68 	strthi	fp, [r0], #3688	; 0xe68
 970:	a0be6883 	adcsge	r6, lr, r3, lsl #17
 974:	4b4b4b85 	blmi	12d3790 <_start-0x4292c870>
 978:	4b314c4b 	blmi	c53aac <_start-0x42fac554>
 97c:	4c4b4b4b 	mcrrmi	11, 4, r4, fp, cr11
 980:	4b4b4b30 	blmi	12d3648 <_start-0x4292c9b8>
 984:	4c304c4b 	ldcmi	12, cr4, [r0], #-300	; 0xfffffed4
 988:	4b4b4b4b 	blmi	12d36bc <_start-0x4292c944>
 98c:	4b4b4b4b 	blmi	12d36c0 <_start-0x4292c940>
 990:	4b4b314c 	blmi	12ccec8 <_start-0x42933138>
 994:	4b4b4b4b 	blmi	12d36c8 <_start-0x4292c938>
 998:	024c4b4b 	subeq	r4, ip, #76800	; 0x12c00
 99c:	01010002 	tsteq	r1, r2
 9a0:	000000fd 	strdeq	r0, [r0], -sp
 9a4:	00330002 	eorseq	r0, r3, r2
 9a8:	01020000 	tsteq	r2, r0
 9ac:	000d0efb 	strdeq	r0, [sp], -fp
 9b0:	01010101 	tsteq	r1, r1, lsl #2
 9b4:	01000000 	tsteq	r0, r0
 9b8:	73010000 	movwvc	r0, #4096	; 0x1000
 9bc:	2e006372 	mcrcs	3, 0, r6, cr0, cr2, {3}
 9c0:	636e692f 	cmnvs	lr, #770048	; 0xbc000
 9c4:	6564756c 	strbvs	r7, [r4, #-1388]!	; 0xfffffa94
 9c8:	64610000 	strbtvs	r0, [r1], #-0
 9cc:	00632e63 	rsbeq	r2, r3, r3, ror #28
 9d0:	61000001 	tstvs	r0, r1
 9d4:	682e6364 	stmdavs	lr!, {r2, r5, r6, r8, r9, sp, lr}
 9d8:	00000200 	andeq	r0, r0, r0, lsl #4
 9dc:	02050000 	andeq	r0, r5, #0
 9e0:	43c03324 	bicmi	r3, r0, #36, 6	; 0x90000000
 9e4:	9f4b6817 	svcls	0x004b6817
 9e8:	9f849fa1 	svcls	0x00849fa1
 9ec:	a0849fa0 	addge	r9, r4, r0, lsr #31
 9f0:	da6aa0a0 	ble	1aa8c78 <_start-0x42157388>
 9f4:	0200a04c 	andeq	sl, r0, #76	; 0x4c
 9f8:	2e060104 	adfcss	f0, f6, f4
 9fc:	6885bb06 	stmvs	r5, {r1, r2, r8, r9, fp, ip, sp, pc}
 a00:	08c1a1a0 	stmiaeq	r1, {r5, r7, r8, sp, pc}^
 a04:	da2f683e 	ble	bdab04 <_start-0x430254fc>
 a08:	3f084b83 	svccc	0x00084b83
 a0c:	304b304b 	subcc	r3, fp, fp, asr #32
 a10:	304b304b 	subcc	r3, fp, fp, asr #32
 a14:	2f30304b 	svccs	0x0030304b
 a18:	00d7d7bd 	ldrheq	sp, [r7], #125	; 0x7d
 a1c:	06010402 	streq	r0, [r1], -r2, lsl #8
 a20:	4b840682 	blmi	fe102430 <__bss_end__+0xba4fdc34>
 a24:	00842f2f 	addeq	r2, r4, pc, lsr #30
 a28:	06010402 	streq	r0, [r1], -r2, lsl #8
 a2c:	4b840682 	blmi	fe10243c <__bss_end__+0xba4fdc40>
 a30:	004c2f2f 	subeq	r2, ip, pc, lsr #30
 a34:	06010402 	streq	r0, [r1], -r2, lsl #8
 a38:	4b840682 	blmi	fe102448 <__bss_end__+0xba4fdc4c>
 a3c:	004c2f2f 	subeq	r2, ip, pc, lsr #30
 a40:	06010402 	streq	r0, [r1], -r2, lsl #8
 a44:	4b840682 	blmi	fe102454 <__bss_end__+0xba4fdc58>
 a48:	4b862f2f 	blmi	fe18c70c <__bss_end__+0xba587f10>
 a4c:	2408312f 	strcs	r3, [r8], #-303	; 0xfffffed1
 a50:	004b4dbb 	strheq	r4, [fp], #-219	; 0xffffff25
 a54:	06010402 	streq	r0, [r1], -r2, lsl #8
 a58:	30840682 	addcc	r0, r4, r2, lsl #13
 a5c:	02005908 	andeq	r5, r0, #8, 18	; 0x20000
 a60:	03630104 	cmneq	r3, #4, 2
 a64:	78038210 	stmdavc	r3, {r4, r9, pc}
 a68:	674b4c9e 			; <UNDEFINED> instruction: 0x674b4c9e
 a6c:	684d4b50 	stmdavs	sp, {r4, r6, r8, r9, fp, lr}^
 a70:	01040200 	tsteq	r4, r0, lsl #4
 a74:	84066606 	strhi	r6, [r6], #-1542	; 0xfffff9fa
 a78:	00684e4b 	rsbeq	r4, r8, fp, asr #28
 a7c:	06010402 	streq	r0, [r1], -r2, lsl #8
 a80:	4b840666 	blmi	fe102420 <__bss_end__+0xba4fdc24>
 a84:	0200684e 	andeq	r6, r0, #5111808	; 0x4e0000
 a88:	66060104 	strvs	r0, [r6], -r4, lsl #2
 a8c:	4e4b8406 	cdpmi	4, 4, cr8, cr11, cr6, {0}
 a90:	04020068 	streq	r0, [r2], #-104	; 0xffffff98
 a94:	06820601 	streq	r0, [r2], r1, lsl #12
 a98:	2f4f4b84 	svccs	0x004f4b84
 a9c:	01002c02 	tsteq	r0, r2, lsl #24
 aa0:	00004801 	andeq	r4, r0, r1, lsl #16
 aa4:	1d000200 	sfmne	f0, 4, [r0, #-0]
 aa8:	02000000 	andeq	r0, r0, #0
 aac:	0d0efb01 	vstreq	d15, [lr, #-4]
 ab0:	01010100 	tsteq	r1, r0, lsl #2
 ab4:	00000001 	andeq	r0, r0, r1
 ab8:	01000001 	tsteq	r0, r1
 abc:	69616d00 	stmdbvs	r1!, {r8, sl, fp, sp, lr}^
 ac0:	00632e6e 	rsbeq	r2, r3, lr, ror #28
 ac4:	00000000 	andeq	r0, r0, r0
 ac8:	30020500 	andcc	r0, r2, r0, lsl #10
 acc:	0343c039 	movteq	ip, #12345	; 0x3039
 ad0:	364b010a 	strbcc	r0, [fp], -sl, lsl #2
 ad4:	31660903 	cmncc	r6, r3, lsl #18
 ad8:	00672f2f 	rsbeq	r2, r7, pc, lsr #30
 adc:	03010402 	movweq	r0, #5122	; 0x1402
 ae0:	006600f3 	strdeq	r0, [r6], #-3	; <UNPREDICTABLE>
 ae4:	4b010402 	blmi	41af4 <_start-0x43bbe50c>
 ae8:	01000802 	tsteq	r0, r2, lsl #16
 aec:	Address 0x00000aec is out of bounds.


Disassembly of section .debug_info:

00000000 <.debug_info>:
       0:	0000005b 	andeq	r0, r0, fp, asr r0
       4:	00000002 	andeq	r0, r0, r2
       8:	01040000 	tsteq	r4, r0
       c:	00000000 	andeq	r0, r0, r0
      10:	43c00000 	bicmi	r0, r0, #0
      14:	43c0021c 	bicmi	r0, r0, #28, 4	; 0xc0000001
      18:	72617473 	rsbvc	r7, r1, #1929379840	; 0x73000000
      1c:	74732f74 	ldrbtvc	r2, [r3], #-3956	; 0xfffff08c
      20:	2e747261 	cdpcs	2, 7, cr7, cr4, cr1, {3}
      24:	682f0053 	stmdavs	pc!, {r0, r1, r4, r6}	; <UNPREDICTABLE>
      28:	2f656d6f 	svccs	0x00656d6f
      2c:	6e656863 	cdpvs	8, 6, cr6, cr5, cr3, {3}
      30:	6971766c 	ldmdbvs	r1!, {r2, r3, r5, r6, r9, sl, ip, sp, lr}^
      34:	632f676e 	teqvs	pc, #28835840	; 0x1b80000
      38:	6c6e6568 	cfstr64vs	mvdx6, [lr], #-416	; 0xfffffe60
      3c:	6e697176 	mcrvs	1, 3, r7, cr9, cr6, {3}
      40:	72612f67 	rsbvc	r2, r1, #412	; 0x19c
      44:	72702f6d 	rsbsvc	r2, r0, #436	; 0x1b4
      48:	63656a6f 	cmnvs	r5, #454656	; 0x6f000
      4c:	4e470074 	mcrmi	0, 2, r0, cr7, cr4, {3}
      50:	53412055 	movtpl	r2, #4181	; 0x1055
      54:	322e3220 	eorcc	r3, lr, #32, 4
      58:	31352e30 	teqcc	r5, r0, lsr lr
      5c:	63800100 	orrvs	r0, r0, #0, 2
      60:	02000000 	andeq	r0, r0, #0
      64:	00001400 	andeq	r1, r0, r0, lsl #8
      68:	8d010400 	cfstrshi	mvf0, [r1, #-0]
      6c:	20000000 	andcs	r0, r0, r0
      70:	d043c002 	suble	ip, r3, r2
      74:	6343c002 	movtvs	ip, #12290	; 0x3002
      78:	6f6d6d6f 	svcvs	0x006d6d6f
      7c:	72732f6e 	rsbsvc	r2, r3, #440	; 0x1b8
      80:	755f2f63 	ldrbvc	r2, [pc, #-3939]	; fffff125 <__bss_end__+0xbc3fa929>
      84:	73646f6d 	cmnvc	r4, #436	; 0x1b4
      88:	532e3369 	teqpl	lr, #-1543503871	; 0xa4000001
      8c:	6f682f00 	svcvs	0x00682f00
      90:	632f656d 	teqvs	pc, #457179136	; 0x1b400000
      94:	6c6e6568 	cfstr64vs	mvdx6, [lr], #-416	; 0xfffffe60
      98:	6e697176 	mcrvs	1, 3, r7, cr9, cr6, {3}
      9c:	68632f67 	stmdavs	r3!, {r0, r1, r2, r5, r6, r8, r9, sl, fp, sp}^
      a0:	766c6e65 	strbtvc	r6, [ip], -r5, ror #28
      a4:	676e6971 			; <UNDEFINED> instruction: 0x676e6971
      a8:	6d72612f 	ldfvse	f6, [r2, #-188]!	; 0xffffff44
      ac:	6f72702f 	svcvs	0x0072702f
      b0:	7463656a 	strbtvc	r6, [r3], #-1386	; 0xfffffa96
      b4:	554e4700 	strbpl	r4, [lr, #-1792]	; 0xfffff900
      b8:	20534120 	subscs	r4, r3, r0, lsr #2
      bc:	30322e32 	eorscc	r2, r2, r2, lsr lr
      c0:	0031352e 	eorseq	r3, r1, lr, lsr #10
      c4:	00638001 	rsbeq	r8, r3, r1
      c8:	00020000 	andeq	r0, r2, r0
      cc:	00000028 	andeq	r0, r0, r8, lsr #32
      d0:	00fd0104 	rscseq	r0, sp, r4, lsl #2
      d4:	02d00000 	sbcseq	r0, r0, #0
      d8:	036443c0 	cmneq	r4, #192, 6
      dc:	6f6343c0 	svcvs	0x006343c0
      e0:	6e6f6d6d 	cdpvs	13, 6, cr6, cr15, cr13, {3}
      e4:	6372732f 	cmnvs	r2, #-1140850688	; 0xbc000000
      e8:	64755f2f 	ldrbtvs	r5, [r5], #-3887	; 0xfffff0d1
      ec:	69737669 	ldmdbvs	r3!, {r0, r3, r5, r6, r9, sl, ip, sp, lr}^
      f0:	00532e33 	subseq	r2, r3, r3, lsr lr
      f4:	6d6f682f 	stclvs	8, cr6, [pc, #-188]!	; 40 <_start-0x43bfffc0>
      f8:	68632f65 	stmdavs	r3!, {r0, r2, r5, r6, r8, r9, sl, fp, sp}^
      fc:	766c6e65 	strbtvc	r6, [ip], -r5, ror #28
     100:	676e6971 			; <UNDEFINED> instruction: 0x676e6971
     104:	6568632f 	strbvs	r6, [r8, #-815]!	; 0xfffffcd1
     108:	71766c6e 	cmnvc	r6, lr, ror #24
     10c:	2f676e69 	svccs	0x00676e69
     110:	2f6d7261 	svccs	0x006d7261
     114:	6a6f7270 	bvs	1bdcadc <_start-0x42023524>
     118:	00746365 	rsbseq	r6, r4, r5, ror #6
     11c:	20554e47 	subscs	r4, r5, r7, asr #28
     120:	32205341 	eorcc	r5, r0, #67108865	; 0x4000001
     124:	2e30322e 	cdpcs	2, 3, cr3, cr0, cr14, {1}
     128:	01003135 	tsteq	r0, r5, lsr r1
     12c:	0004b180 	andeq	fp, r4, r0, lsl #3
     130:	3c000200 	sfmcc	f0, 4, [r0], {-0}
     134:	04000000 	streq	r0, [r0], #-0
     138:	00013301 	andeq	r3, r1, r1, lsl #6
     13c:	00b10100 	adcseq	r0, r1, r0, lsl #2
     140:	00380000 	eorseq	r0, r8, r0
     144:	03640000 	cmneq	r4, #0
     148:	153c43c0 	ldrne	r4, [ip, #-960]!	; 0xfffffc40
     14c:	016643c0 	cmneq	r6, r0, asr #7
     150:	04020000 	streq	r0, [r2], #-0
     154:	00007407 	andeq	r7, r0, r7, lsl #8
     158:	00940300 	addseq	r0, r4, r0, lsl #6
     15c:	28030000 	stmdacs	r3, {}	; <UNPREDICTABLE>
     160:	00000037 	andeq	r0, r0, r7, lsr r0
     164:	00070404 	andeq	r0, r7, r4, lsl #8
     168:	9b030000 	blls	c0170 <_start-0x43b3fe90>
     16c:	03000000 	movweq	r0, #0
     170:	00002c66 	andeq	r2, r0, r6, ror #24
     174:	00600500 	rsbeq	r0, r0, r0, lsl #10
     178:	44010000 	strmi	r0, [r1], #-0
     17c:	00007101 	andeq	r7, r0, r1, lsl #2
     180:	c0036400 	andgt	r6, r3, r0, lsl #8
     184:	c003b443 	andgt	fp, r3, r3, asr #8
     188:	00000043 	andeq	r0, r0, r3, asr #32
     18c:	00007100 	andeq	r7, r0, r0, lsl #2
     190:	00630600 	rsbeq	r0, r3, r0, lsl #12
     194:	00714401 	rsbseq	r4, r1, r1, lsl #8
     198:	91020000 	tstls	r2, r0
     19c:	01020078 	tsteq	r2, r8, ror r0
     1a0:	00008108 	andeq	r8, r0, r8, lsl #2
     1a4:	19010700 	stmdbne	r1, {r8, r9, sl}
     1a8:	02000000 	andeq	r0, r0, #0
     1ac:	00db0107 	sbcseq	r0, fp, r7, lsl #2
     1b0:	03b40000 			; <UNDEFINED> instruction: 0x03b40000
     1b4:	055843c0 	ldrbeq	r4, [r8, #-960]	; 0xfffffc40
     1b8:	002c43c0 	eoreq	r4, ip, r0, asr #7
     1bc:	00db0000 	sbcseq	r0, fp, r0
     1c0:	63060000 	movwvs	r0, #24576	; 0x6000
     1c4:	07020070 	smlsdxeq	r2, r0, r0, r0
     1c8:	000000e2 	andeq	r0, r0, r2, ror #1
     1cc:	086c9102 	stmdaeq	ip!, {r1, r8, ip, pc}^
     1d0:	0000008f 	andeq	r0, r0, pc, lsl #1
     1d4:	00f40702 	rscseq	r0, r4, r2, lsl #14
     1d8:	91020000 	tstls	r2, r0
     1dc:	00c50868 	sbceq	r0, r5, r8, ror #16
     1e0:	07020000 	streq	r0, [r2, -r0]
     1e4:	00000025 	andeq	r0, r0, r5, lsr #32
     1e8:	09649102 	stmdbeq	r4!, {r1, r8, ip, pc}^
     1ec:	000000da 	ldrdeq	r0, [r0], -sl
     1f0:	00db0902 	sbcseq	r0, fp, r2, lsl #18
     1f4:	91020000 	tstls	r2, r0
     1f8:	0c8a0974 	stceq	9, cr0, [sl], {116}	; 0x74
     1fc:	09020000 	stmdbeq	r2, {}	; <UNPREDICTABLE>
     200:	000000db 	ldrdeq	r0, [r0], -fp
     204:	00709102 	rsbseq	r9, r0, r2, lsl #2
     208:	6f070402 	svcvs	0x00070402
     20c:	0a000000 	beq	214 <_start-0x43bffdec>
     210:	0000e804 	andeq	lr, r0, r4, lsl #16
     214:	00ed0b00 	rsceq	r0, sp, r0, lsl #22
     218:	01020000 	tsteq	r2, r0
     21c:	00008a08 	andeq	r8, r0, r8, lsl #20
     220:	fa040a00 	blx	102a28 <_start-0x43afd5d8>
     224:	0a000000 	beq	22c <_start-0x43bffdd4>
     228:	0000ed04 	andeq	lr, r0, r4, lsl #26
     22c:	a3010700 	movwge	r0, #5888	; 0x1700
     230:	02000000 	andeq	r0, r0, #0
     234:	01470122 	mrseq	r0, SPSR
     238:	05580000 	ldrbeq	r0, [r8, #-0]
     23c:	05c443c0 	strbeq	r4, [r4, #960]	; 0x3c0
     240:	005843c0 	subseq	r4, r8, r0, asr #7
     244:	01470000 	mrseq	r0, SPSR
     248:	63060000 	movwvs	r0, #24576	; 0x6000
     24c:	22020070 	andcs	r0, r2, #112	; 0x70
     250:	000000e2 	andeq	r0, r0, r2, ror #1
     254:	08749102 	ldmdaeq	r4!, {r1, r8, ip, pc}^
     258:	0000008f 	andeq	r0, r0, pc, lsl #1
     25c:	00f42202 	rscseq	r2, r4, r2, lsl #4
     260:	91020000 	tstls	r2, r0
     264:	00c50870 	sbceq	r0, r5, r0, ror r8
     268:	22020000 	andcs	r0, r2, #0
     26c:	00000025 	andeq	r0, r0, r5, lsr #32
     270:	006c9102 	rsbeq	r9, ip, r2, lsl #2
     274:	25050402 	strcs	r0, [r5, #-1026]	; 0xfffffbfe
     278:	05000001 	streq	r0, [r0, #-1]
     27c:	0000002e 	andeq	r0, r0, lr, lsr #32
     280:	83014a02 	movwhi	r4, #6658	; 0x1a02
     284:	c4000001 	strgt	r0, [r0], #-1
     288:	5843c005 	stmdapl	r3, {r0, r2, lr, pc}^
     28c:	8443c006 	strbhi	ip, [r3], #-6
     290:	83000000 	movwhi	r0, #0
     294:	06000001 	streq	r0, [r0], -r1
     298:	4a020073 	bmi	8046c <_start-0x43b7fb94>
     29c:	0000018a 	andeq	r0, r0, sl, lsl #3
     2a0:	0c749102 	ldfeqp	f1, [r4], #-8
     2a4:	4c020069 	stcmi	0, cr0, [r2], {105}	; 0x69
     2a8:	00000183 	andeq	r0, r0, r3, lsl #3
     2ac:	00789102 	rsbseq	r9, r8, r2, lsl #2
     2b0:	6905040d 	stmdbvs	r5, {r0, r2, r3, sl}
     2b4:	0a00746e 	beq	1d474 <_start-0x43be2b8c>
     2b8:	0000e204 	andeq	lr, r0, r4, lsl #4
     2bc:	00f00500 	rscseq	r0, r0, r0, lsl #10
     2c0:	6f020000 	svcvs	0x00020000
     2c4:	0000fa01 	andeq	pc, r0, r1, lsl #20
     2c8:	c0065800 	andgt	r5, r6, r0, lsl #16
     2cc:	c00af043 	andgt	pc, sl, r3, asr #32
     2d0:	0000b043 	andeq	fp, r0, r3, asr #32
     2d4:	00026000 	andeq	r6, r2, r0
     2d8:	74730600 	ldrbtvc	r0, [r3], #-1536	; 0xfffffa00
     2dc:	6f020072 	svcvs	0x00020072
     2e0:	000000fa 	strdeq	r0, [r0], -sl
     2e4:	7f9c9103 	svcvc	0x009c9103
     2e8:	6d756e06 	ldclvs	14, cr6, [r5, #-24]!	; 0xffffffe8
     2ec:	476f0200 	strbmi	r0, [pc, -r0, lsl #4]!
     2f0:	03000001 	movweq	r0, #1
     2f4:	087f9891 	ldmdaeq	pc!, {r0, r4, r7, fp, ip, pc}^	; <UNPREDICTABLE>
     2f8:	000000c5 	andeq	r0, r0, r5, asr #1
     2fc:	00256f02 	eoreq	r6, r5, r2, lsl #30
     300:	91030000 	tstls	r3, r0
     304:	6a087f94 	bvs	22015c <_start-0x439dfea4>
     308:	02000000 	andeq	r0, r0, #0
     30c:	0001836f 	andeq	r8, r1, pc, ror #6
     310:	90910300 	addsls	r0, r1, r0, lsl #6
     314:	00f7087f 	rscseq	r0, r7, pc, ror r8
     318:	6f020000 	svcvs	0x00020000
     31c:	00000183 	andeq	r0, r0, r3, lsl #3
     320:	08009102 	stmdaeq	r0, {r1, r8, ip, pc}
     324:	00000103 	andeq	r0, r0, r3, lsl #2
     328:	01836f02 	orreq	r6, r3, r2, lsl #30
     32c:	91020000 	tstls	r2, r0
     330:	00630c04 	rsbeq	r0, r3, r4, lsl #24
     334:	00ed7202 	rsceq	r7, sp, r2, lsl #4
     338:	91020000 	tstls	r2, r0
     33c:	012e096b 	teqeq	lr, fp, ror #18
     340:	72020000 	andvc	r0, r2, #0
     344:	000000ed 	andeq	r0, r0, sp, ror #1
     348:	0c779102 	ldfeqp	f1, [r7], #-8
     34c:	00706d74 	rsbseq	r6, r0, r4, ror sp
     350:	02607202 	rsbeq	r7, r0, #536870912	; 0x20000000
     354:	91030000 	tstls	r3, r0
     358:	00097fa0 	andeq	r7, r9, r0, lsr #31
     35c:	02000000 	andeq	r0, r0, #0
     360:	0000e273 	andeq	lr, r0, r3, ror r2
     364:	70910200 	addsvc	r0, r1, r0, lsl #4
     368:	0200690c 	andeq	r6, r0, #12, 18	; 0x30000
     36c:	00018374 	andeq	r8, r1, r4, ror r3
     370:	6c910200 	lfmvs	f0, 4, [r1], {0}
     374:	c0081c0e 	andgt	r1, r8, lr, lsl #24
     378:	c0085043 	andgt	r5, r8, r3, asr #32
     37c:	013f0943 	teqeq	pc, r3, asr #18
     380:	96020000 	strls	r0, [r2], -r0
     384:	00000183 	andeq	r0, r0, r3, lsl #3
     388:	00649102 	rsbeq	r9, r4, r2, lsl #2
     38c:	00ed0f00 	rsceq	r0, sp, r0, lsl #30
     390:	02700000 	rsbseq	r0, r0, #0
     394:	25100000 	ldrcs	r0, [r0, #-0]
     398:	41000000 	tstmi	r0, r0
     39c:	e8010700 	stmda	r1, {r8, r9, sl}
     3a0:	02000000 	andeq	r0, r0, #0
     3a4:	002501b4 			; <UNDEFINED> instruction: 0x002501b4
     3a8:	0af00000 	beq	ffc003b0 <__bss_end__+0xbbffbbb4>
     3ac:	0b7043c0 	bleq	1c112b4 <_start-0x41feed4c>
     3b0:	00dc43c0 	sbcseq	r4, ip, r0, asr #7
     3b4:	02b50000 	adcseq	r0, r5, #0
     3b8:	73060000 	movwvc	r0, #24576	; 0x6000
     3bc:	e2b40200 	adcs	r0, r4, #0, 4
     3c0:	02000000 	andeq	r0, r0, #0
     3c4:	28087491 	stmdacs	r8, {r0, r4, r7, sl, ip, sp, lr}
     3c8:	02000000 	andeq	r0, r0, #0
     3cc:	000025b4 			; <UNDEFINED> instruction: 0x000025b4
     3d0:	70910200 	addsvc	r0, r1, r0, lsl #4
     3d4:	0063730c 	rsbeq	r7, r3, ip, lsl #6
     3d8:	00e2b602 	rsceq	fp, r2, r2, lsl #12
     3dc:	91020000 	tstls	r2, r0
     3e0:	01070078 	tsteq	r7, r8, ror r0
     3e4:	00000145 	andeq	r0, r0, r5, asr #2
     3e8:	8301bc02 	movwhi	fp, #7170	; 0x1c02
     3ec:	70000001 	andvc	r0, r0, r1
     3f0:	a443c00b 	strbge	ip, [r3], #-11
     3f4:	0843c014 	stmdaeq	r3, {r2, r4, lr, pc}^
     3f8:	c5000001 	strgt	r0, [r0, #-1]
     3fc:	06000003 	streq	r0, [r0], -r3
     400:	00667562 	rsbeq	r7, r6, r2, ror #10
     404:	00fabc02 	rscseq	fp, sl, r2, lsl #24
     408:	91020000 	tstls	r2, r0
     40c:	6d660644 	stclvs	6, cr0, [r6, #-272]!	; 0xfffffef0
     410:	bc020074 	stclt	0, cr0, [r2], {116}	; 0x74
     414:	000000e2 	andeq	r0, r0, r2, ror #1
     418:	08409102 	stmdaeq	r0, {r1, r8, ip, pc}^
     41c:	00000120 	andeq	r0, r0, r0, lsr #2
     420:	003dbc02 	eorseq	fp, sp, r2, lsl #24
     424:	91030000 	tstls	r3, r0
     428:	6c0c7fbc 	stcvs	15, cr7, [ip], {188}	; 0xbc
     42c:	02006e65 	andeq	r6, r0, #1616	; 0x650
     430:	000183be 			; <UNDEFINED> instruction: 0x000183be
     434:	50910200 	addspl	r0, r1, r0, lsl #4
     438:	6d756e0c 	ldclvs	14, cr6, [r5, #-48]!	; 0xffffffd0
     43c:	dbc20200 	blle	ff080c44 <__bss_end__+0xbb47c448>
     440:	02000000 	andeq	r0, r0, #0
     444:	690c7491 	stmdbvs	ip, {r0, r4, r7, sl, ip, sp, lr}
     448:	83c40200 	bichi	r0, r4, #0, 4
     44c:	02000001 	andeq	r0, r0, #1
     450:	c5097091 	strgt	r7, [r9, #-145]	; 0xffffff6f
     454:	02000000 	andeq	r0, r0, #0
     458:	000183c4 	andeq	r8, r1, r4, asr #7
     45c:	6c910200 	lfmvs	f0, 4, [r1], {0}
     460:	7274730c 	rsbsvc	r7, r4, #12, 6	; 0x30000000
     464:	fac50200 	blx	ff140c6c <__bss_end__+0xbb53c470>
     468:	02000000 	andeq	r0, r0, #0
     46c:	730c6891 	movwvc	r6, #51345	; 0xc891
     470:	e2c60200 	sbc	r0, r6, #0, 4
     474:	02000000 	andeq	r0, r0, #0
     478:	ca096491 	bgt	2596c4 <_start-0x439a693c>
     47c:	02000000 	andeq	r0, r0, #0
     480:	000183c8 	andeq	r8, r1, r8, asr #7
     484:	60910200 	addsvs	r0, r1, r0, lsl #4
     488:	00011409 	andeq	r1, r1, r9, lsl #8
     48c:	83ca0200 	bichi	r0, sl, #0, 4
     490:	02000001 	andeq	r0, r0, #1
     494:	f7095c91 			; <UNDEFINED> instruction: 0xf7095c91
     498:	02000000 	andeq	r0, r0, #0
     49c:	000183cb 	andeq	r8, r1, fp, asr #7
     4a0:	58910200 	ldmpl	r1, {r9}
     4a4:	0000d009 	andeq	sp, r0, r9
     4a8:	83cd0200 	bichi	r0, sp, #0, 4
     4ac:	02000001 	andeq	r0, r0, #1
     4b0:	e1115491 			; <UNDEFINED> instruction: 0xe1115491
     4b4:	02000000 	andeq	r0, r0, #0
     4b8:	c00bccd7 	ldrdgt	ip, [fp], -r7
     4bc:	12241243 	eorne	r1, r4, #805306372	; 0x30000004
     4c0:	124c43c0 	subne	r4, ip, #192, 6
     4c4:	03ac43c0 			; <UNDEFINED> instruction: 0x03ac43c0
     4c8:	69130000 	ldmdbvs	r3, {}	; <UNPREDICTABLE>
     4cc:	35020070 	strcc	r0, [r2, #-112]	; 0xffffff90
     4d0:	0003c501 	andeq	ip, r3, r1, lsl #10
     4d4:	4c910200 	lfmmi	f0, 4, [r1], {0}
     4d8:	12500e00 	subsne	r0, r0, #0, 28
     4dc:	127843c0 	rsbsne	r4, r8, #192, 6
     4e0:	691343c0 	ldmdbvs	r3, {r6, r7, r8, r9, lr}
     4e4:	38020070 	stmdacc	r2, {r4, r5, r6}
     4e8:	0003cb01 	andeq	ip, r3, r1, lsl #22
     4ec:	48910200 	ldmmi	r1, {r9}
     4f0:	040a0000 	streq	r0, [sl], #-0
     4f4:	00000147 	andeq	r0, r0, r7, asr #2
     4f8:	0183040a 	orreq	r0, r3, sl, lsl #8
     4fc:	01140000 	tsteq	r4, r0
     500:	00000146 	andeq	r0, r0, r6, asr #2
     504:	01017302 	tsteq	r1, r2, lsl #6
     508:	00000183 	andeq	r0, r0, r3, lsl #3
     50c:	43c014a4 	bicmi	r1, r0, #164, 8	; 0xa4000000
     510:	43c014f0 	bicmi	r1, r0, #240, 8	; 0xf0000000
     514:	00000134 	andeq	r0, r0, r4, lsr r1
     518:	0000042b 	andeq	r0, r0, fp, lsr #8
     51c:	66756215 			; <UNDEFINED> instruction: 0x66756215
     520:	01730200 	cmneq	r3, r0, lsl #4
     524:	000000fa 	strdeq	r0, [r0], -sl
     528:	15609102 	strbne	r9, [r0, #-258]!	; 0xfffffefe
     52c:	00746d66 	rsbseq	r6, r4, r6, ror #26
     530:	e2017302 	and	r7, r1, #134217728	; 0x8000000
     534:	02000000 	andeq	r0, r0, #0
     538:	17167491 			; <UNDEFINED> instruction: 0x17167491
     53c:	00000120 	andeq	r0, r0, r0, lsr #2
     540:	3d017502 	cfstr32cc	mvfx7, [r1, #-8]
     544:	02000000 	andeq	r0, r0, #0
     548:	69136491 	ldmdbvs	r3, {r0, r4, r7, sl, sp, lr}
     54c:	01760200 	cmneq	r6, r0, lsl #4
     550:	00000183 	andeq	r0, r0, r3, lsl #3
     554:	00689102 	rsbeq	r9, r8, r2, lsl #2
     558:	01470118 	cmpeq	r7, r8, lsl r1
     55c:	7e020000 	cdpvc	0, 0, cr0, cr2, cr0, {0}
     560:	14f00101 	ldrbtne	r0, [r0], #257	; 0x101
     564:	153c43c0 	ldrne	r4, [ip, #-960]!	; 0xfffffc40
     568:	016c43c0 	cmneq	ip, r0, asr #7
     56c:	04750000 	ldrbteq	r0, [r5], #-0
     570:	66150000 	ldrvs	r0, [r5], -r0
     574:	0200746d 	andeq	r7, r0, #1828716544	; 0x6d000000
     578:	00e2017e 	rsceq	r0, r2, lr, ror r1
     57c:	91020000 	tstls	r2, r0
     580:	20171670 	andscs	r1, r7, r0, ror r6
     584:	02000001 	andeq	r0, r0, #1
     588:	003d0180 	eorseq	r0, sp, r0, lsl #3
     58c:	91020000 	tstls	r2, r0
     590:	01081764 	tsteq	r8, r4, ror #14
     594:	81020000 	tsthi	r2, r0
     598:	00047501 	andeq	r7, r4, r1, lsl #10
     59c:	80910300 	addshi	r0, r1, r0, lsl #6
     5a0:	ed0f007f 	stc	0, cr0, [pc, #-508]	; 3ac <_start-0x43bffc54>
     5a4:	85000000 	strhi	r0, [r0, #-0]
     5a8:	10000004 	andne	r0, r0, r4
     5ac:	00000025 	andeq	r0, r0, r5, lsr #32
     5b0:	710f0063 	tstvc	pc, r3, rrx
     5b4:	95000000 	strls	r0, [r0, #-0]
     5b8:	10000004 	andne	r0, r0, r4
     5bc:	00000025 	andeq	r0, r0, r5, lsr #32
     5c0:	011900ff 	ldrsheq	r0, [r9, -pc]
     5c4:	01000001 	tsteq	r0, r1
     5c8:	00048511 	andeq	r8, r4, r1, lsl r5
     5cc:	1a010100 	bne	409d4 <_start-0x43bbf62c>
     5d0:	00000101 	andeq	r0, r0, r1, lsl #2
     5d4:	04851101 	streq	r1, [r5], #257	; 0x101
     5d8:	05010000 	streq	r0, [r1, #-0]
     5dc:	c046fc03 	subgt	pc, r6, r3, lsl #24
     5e0:	032e0043 	teqeq	lr, #67	; 0x43
     5e4:	00020000 	andeq	r0, r2, r0
     5e8:	000001af 	andeq	r0, r0, pc, lsr #3
     5ec:	01330104 	teqeq	r3, r4, lsl #2
     5f0:	c4010000 	strgt	r0, [r1], #-0
     5f4:	38000002 	stmdacc	r0, {r1}
     5f8:	3c000000 	stccc	0, cr0, [r0], {-0}
     5fc:	e443c015 	strb	ip, [r3], #-21	; 0xffffffeb
     600:	bd43c016 	stcllt	0, cr12, [r3, #-88]	; 0xffffffa8
     604:	02000003 	andeq	r0, r0, #3
     608:	00740704 	rsbseq	r0, r4, r4, lsl #14
     60c:	68030000 	stmdavs	r3, {}	; <UNPREDICTABLE>
     610:	01a16e02 			; <UNDEFINED> instruction: 0x01a16e02
     614:	4f040000 	svcmi	0x00040000
     618:	02005455 	andeq	r5, r0, #1426063360	; 0x55000000
     61c:	0000256f 	andeq	r2, r0, pc, ror #10
     620:	00230200 	eoreq	r0, r3, r0, lsl #4
     624:	0001b105 	andeq	fp, r1, r5, lsl #2
     628:	25700200 	ldrbcs	r0, [r0, #-512]!	; 0xfffffe00
     62c:	02000000 	andeq	r0, r0, #0
     630:	bd050423 	cfstrslt	mvf0, [r5, #-140]	; 0xffffff74
     634:	02000001 	andeq	r0, r0, #1
     638:	00002571 	andeq	r2, r0, r1, ror r5
     63c:	08230200 	stmdaeq	r3!, {r9}
     640:	0001c605 	andeq	ip, r1, r5, lsl #12
     644:	25720200 	ldrbcs	r0, [r2, #-512]!	; 0xfffffe00
     648:	02000000 	andeq	r0, r0, #0
     64c:	a1050c23 	tstge	r5, r3, lsr #24
     650:	02000002 	andeq	r0, r0, #2
     654:	00002573 	andeq	r2, r0, r3, ror r5
     658:	10230200 	eorne	r0, r3, r0, lsl #4
     65c:	54454404 	strbpl	r4, [r5], #-1028	; 0xfffffbfc
     660:	25740200 	ldrbcs	r0, [r4, #-512]!	; 0xfffffe00
     664:	02000000 	andeq	r0, r0, #0
     668:	50041423 	andpl	r1, r4, r3, lsr #8
     66c:	02004441 	andeq	r4, r0, #1090519040	; 0x41000000
     670:	00002575 	andeq	r2, r0, r5, ror r5
     674:	18230200 	stmdane	r3!, {r9}
     678:	00025d05 	andeq	r5, r2, r5, lsl #26
     67c:	25760200 	ldrbcs	r0, [r6, #-512]!	; 0xfffffe00
     680:	02000000 	andeq	r0, r0, #0
     684:	e0051c23 	and	r1, r5, r3, lsr #24
     688:	02000002 	andeq	r0, r0, #2
     68c:	00002577 	andeq	r2, r0, r7, ror r5
     690:	20230200 	eorcs	r0, r3, r0, lsl #4
     694:	0002e705 	andeq	lr, r2, r5, lsl #14
     698:	25780200 	ldrbcs	r0, [r8, #-512]!	; 0xfffffe00
     69c:	02000000 	andeq	r0, r0, #0
     6a0:	8f052423 	svchi	0x00052423
     6a4:	02000002 	andeq	r0, r0, #2
     6a8:	00002579 	andeq	r2, r0, r9, ror r5
     6ac:	28230200 	stmdacs	r3!, {r9}
     6b0:	00026705 	andeq	r6, r2, r5, lsl #14
     6b4:	257a0200 	ldrbcs	r0, [sl, #-512]!	; 0xfffffe00
     6b8:	02000000 	andeq	r0, r0, #0
     6bc:	71052c23 	tstvc	r5, r3, lsr #24
     6c0:	02000002 	andeq	r0, r0, #2
     6c4:	0000257b 	andeq	r2, r0, fp, ror r5
     6c8:	30230200 	eorcc	r0, r3, r0, lsl #4
     6cc:	00027b05 	andeq	r7, r2, r5, lsl #22
     6d0:	257c0200 	ldrbcs	r0, [ip, #-512]!	; 0xfffffe00
     6d4:	02000000 	andeq	r0, r0, #0
     6d8:	85053423 	strhi	r3, [r5, #-1059]	; 0xfffffbdd
     6dc:	02000002 	andeq	r0, r0, #2
     6e0:	0000257d 	andeq	r2, r0, sp, ror r5
     6e4:	38230200 	stmdacc	r3!, {r9}
     6e8:	0002ee05 	andeq	lr, r2, r5, lsl #28
     6ec:	257e0200 	ldrbcs	r0, [lr, #-512]!	; 0xfffffe00
     6f0:	02000000 	andeq	r0, r0, #0
     6f4:	46053c23 	strmi	r3, [r5], -r3, lsr #24
     6f8:	02000002 	andeq	r0, r0, #2
     6fc:	0000257f 	andeq	r2, r0, pc, ror r5
     700:	40230200 	eormi	r0, r3, r0, lsl #4
     704:	0001f105 	andeq	pc, r1, r5, lsl #2
     708:	25800200 	strcs	r0, [r0, #512]	; 0x200
     70c:	02000000 	andeq	r0, r0, #0
     710:	5e054423 	cdppl	4, 0, cr4, cr5, cr3, {1}
     714:	02000001 	andeq	r0, r0, #1
     718:	00002581 	andeq	r2, r0, r1, lsl #11
     71c:	48230200 	stmdami	r3!, {r9}
     720:	0002a805 	andeq	sl, r2, r5, lsl #16
     724:	25820200 	strcs	r0, [r2, #512]	; 0x200
     728:	02000000 	andeq	r0, r0, #0
     72c:	59054c23 	stmdbpl	r5, {r0, r1, r5, sl, fp, lr}
     730:	02000001 	andeq	r0, r0, #1
     734:	00002583 	andeq	r2, r0, r3, lsl #11
     738:	50230200 	eorpl	r0, r3, r0, lsl #4
     73c:	00016f05 	andeq	r6, r1, r5, lsl #30
     740:	25840200 	strcs	r0, [r4, #512]	; 0x200
     744:	02000000 	andeq	r0, r0, #0
     748:	99055423 	stmdbls	r5, {r0, r1, r5, sl, ip, lr}
     74c:	02000002 	andeq	r0, r0, #2
     750:	00002585 	andeq	r2, r0, r5, lsl #11
     754:	58230200 	stmdapl	r3!, {r9}
     758:	00021905 	andeq	r1, r2, r5, lsl #18
     75c:	25860200 	strcs	r0, [r6, #512]	; 0x200
     760:	02000000 	andeq	r0, r0, #0
     764:	3e055c23 	cdpcc	12, 0, cr5, cr5, cr3, {1}
     768:	02000002 	andeq	r0, r0, #2
     76c:	00002587 	andeq	r2, r0, r7, lsl #11
     770:	60230200 	eorvs	r0, r3, r0, lsl #4
     774:	0001cf05 	andeq	ip, r1, r5, lsl #30
     778:	25880200 	strcs	r0, [r8, #512]	; 0x200
     77c:	02000000 	andeq	r0, r0, #0
     780:	06006423 	streq	r6, [r0], -r3, lsr #8
     784:	00000257 	andeq	r0, r0, r7, asr r2
     788:	002c8902 	eoreq	r8, ip, r2, lsl #18
     78c:	3c030000 	stccc	0, cr0, [r3], {-0}
     790:	02870d03 	addeq	r0, r7, #3, 26	; 0xc0
     794:	a3050000 	movwge	r0, #20480	; 0x5000
     798:	03000001 	movweq	r0, #1
     79c:	0000250e 	andeq	r2, r0, lr, lsl #10
     7a0:	00230200 	eoreq	r0, r3, r0, lsl #4
     7a4:	00015405 	andeq	r5, r1, r5, lsl #8
     7a8:	250f0300 	strcs	r0, [pc, #-768]	; 4b0 <_start-0x43bffb50>
     7ac:	02000000 	andeq	r0, r0, #0
     7b0:	4e050423 	cdpmi	4, 0, cr0, cr5, cr3, {1}
     7b4:	03000001 	movweq	r0, #1
     7b8:	00002510 	andeq	r2, r0, r0, lsl r5
     7bc:	08230200 	stmdaeq	r3!, {r9}
     7c0:	00023805 	andeq	r3, r2, r5, lsl #16
     7c4:	25110300 	ldrcs	r0, [r1, #-768]	; 0xfffffd00
     7c8:	02000000 	andeq	r0, r0, #0
     7cc:	96050c23 	strls	r0, [r5], -r3, lsr #24
     7d0:	03000001 	movweq	r0, #1
     7d4:	00002512 	andeq	r2, r0, r2, lsl r5
     7d8:	10230200 	eorne	r0, r3, r0, lsl #4
     7dc:	0001a905 	andeq	sl, r1, r5, lsl #18
     7e0:	25130300 	ldrcs	r0, [r3, #-768]	; 0xfffffd00
     7e4:	02000000 	andeq	r0, r0, #0
     7e8:	bd051423 	cfstrslt	mvf1, [r5, #-140]	; 0xffffff74
     7ec:	03000002 	movweq	r0, #2
     7f0:	00002514 	andeq	r2, r0, r4, lsl r5
     7f4:	18230200 	stmdane	r3!, {r9}
     7f8:	00023105 	andeq	r3, r2, r5, lsl #2
     7fc:	25150300 	ldrcs	r0, [r5, #-768]	; 0xfffffd00
     800:	02000000 	andeq	r0, r0, #0
     804:	9e051c23 	cdpls	12, 0, cr1, cr5, cr3, {1}
     808:	03000001 	movweq	r0, #1
     80c:	00002516 	andeq	r2, r0, r6, lsl r5
     810:	20230200 	eorcs	r0, r3, r0, lsl #4
     814:	0002db05 	andeq	sp, r2, r5, lsl #22
     818:	25170300 	ldrcs	r0, [r7, #-768]	; 0xfffffd00
     81c:	02000000 	andeq	r0, r0, #0
     820:	06052423 	streq	r2, [r5], -r3, lsr #8
     824:	03000002 	movweq	r0, #2
     828:	00002518 	andeq	r2, r0, r8, lsl r5
     82c:	28230200 	stmdacs	r3!, {r9}
     830:	0001e805 	andeq	lr, r1, r5, lsl #16
     834:	25190300 	ldrcs	r0, [r9, #-768]	; 0xfffffd00
     838:	02000000 	andeq	r0, r0, #0
     83c:	69052c23 	stmdbvs	r5, {r0, r1, r5, sl, fp, sp}
     840:	03000001 	movweq	r0, #1
     844:	0000251a 	andeq	r2, r0, sl, lsl r5
     848:	30230200 	eorcc	r0, r3, r0, lsl #4
     84c:	00019005 	andeq	r9, r1, r5
     850:	251b0300 	ldrcs	r0, [fp, #-768]	; 0xfffffd00
     854:	02000000 	andeq	r0, r0, #0
     858:	63053423 	movwvs	r3, #21539	; 0x5423
     85c:	03000001 	movweq	r0, #1
     860:	0000251c 	andeq	r2, r0, ip, lsl r5
     864:	38230200 	stmdacc	r3!, {r9}
     868:	04190600 	ldreq	r0, [r9], #-1536	; 0xfffffa00
     86c:	1d030000 	stcne	0, cr0, [r3, #-0]
     870:	000001ac 	andeq	r0, r0, ip, lsr #3
     874:	020d0107 	andeq	r0, sp, #-1073741823	; 0xc0000001
     878:	03010000 	movweq	r0, #4096	; 0x1000
     87c:	c0153c01 	andsgt	r3, r5, r1, lsl #24
     880:	c015fc43 	andsgt	pc, r5, r3, asr #24
     884:	0001a443 	andeq	sl, r1, r3, asr #8
     888:	f5010800 			; <UNDEFINED> instruction: 0xf5010800
     88c:	01000002 	tsteq	r0, r2
     890:	15fc0114 	ldrbne	r0, [ip, #276]!	; 0x114
     894:	165443c0 	ldrbne	r4, [r4], -r0, asr #7
     898:	01d043c0 	bicseq	r4, r0, r0, asr #7
     89c:	02cf0000 	sbceq	r0, pc, #0
     8a0:	b8090000 	stmdalt	r9, {}	; <UNPREDICTABLE>
     8a4:	01000001 	tsteq	r0, r1
     8a8:	0002cf14 	andeq	ip, r2, r4, lsl pc
     8ac:	74910200 	ldrvc	r0, [r1], #512	; 0x200
     8b0:	02d40a00 	sbcseq	r0, r4, #0, 20
     8b4:	01020000 	tsteq	r2, r0
     8b8:	00008a08 	andeq	r8, r0, r8, lsl #20
     8bc:	84010800 	strhi	r0, [r1], #-2048	; 0xfffff800
     8c0:	01000001 	tsteq	r0, r1
     8c4:	1654011b 			; <UNDEFINED> instruction: 0x1654011b
     8c8:	169c43c0 	ldrne	r4, [ip], r0, asr #7
     8cc:	01fc43c0 	mvnseq	r4, r0, asr #7
     8d0:	03030000 	movweq	r0, #12288	; 0x3000
     8d4:	d6090000 	strle	r0, [r9], -r0
     8d8:	01000002 	tsteq	r0, r2
     8dc:	0003031b 	andeq	r0, r3, fp, lsl r3
     8e0:	74910200 	ldrvc	r0, [r1], #512	; 0x200
     8e4:	cf040b00 	svcgt	0x00040b00
     8e8:	0c000002 	stceq	0, cr0, [r0], {2}
     8ec:	00024b01 	andeq	r4, r2, r1, lsl #22
     8f0:	01210100 	teqeq	r1, r0, lsl #2
     8f4:	000002d4 	ldrdeq	r0, [r0], -r4
     8f8:	43c0169c 	bicmi	r1, r0, #156, 12	; 0x9c00000
     8fc:	43c016e4 	bicmi	r1, r0, #228, 12	; 0xe400000
     900:	00000228 	andeq	r0, r0, r8, lsr #4
     904:	0001b80d 	andeq	fp, r1, sp, lsl #16
     908:	d4230100 	strtle	r0, [r3], #-256	; 0xffffff00
     90c:	02000002 	andeq	r0, r0, #2
     910:	00007b91 	muleq	r0, r1, fp
     914:	000000a4 	andeq	r0, r0, r4, lsr #1
     918:	02770002 	rsbseq	r0, r7, #2
     91c:	01040000 	tsteq	r4, r0
     920:	00000133 	andeq	r0, r0, r3, lsr r1
     924:	00032c01 	andeq	r2, r3, r1, lsl #24
     928:	00003800 	andeq	r3, r0, r0, lsl #16
     92c:	c016e400 	andsgt	lr, r6, r0, lsl #8
     930:	c0180c43 	andsgt	r0, r8, r3, asr #24
     934:	00045d43 	andeq	r5, r4, r3, asr #26
     938:	07040200 	streq	r0, [r4, -r0, lsl #4]
     93c:	00000074 	andeq	r0, r0, r4, ror r0
     940:	03010103 	movweq	r0, #4355	; 0x1103
     944:	04010000 	streq	r0, [r1], #-0
     948:	c016e401 	andsgt	lr, r6, r1, lsl #8
     94c:	c017e843 	andsgt	lr, r7, r3, asr #16
     950:	00025443 	andeq	r5, r2, r3, asr #8
     954:	00007e00 	andeq	r7, r0, r0, lsl #28
     958:	03190400 	tsteq	r9, #0, 8
     95c:	06010000 	streq	r0, [r1], -r0
     960:	0000007e 	andeq	r0, r0, lr, ror r0
     964:	04749102 	ldrbteq	r9, [r4], #-258	; 0xfffffefe
     968:	0000033b 	andeq	r0, r0, fp, lsr r3
     96c:	00841201 	addeq	r1, r4, r1, lsl #4
     970:	91020000 	tstls	r2, r0
     974:	03470470 	movteq	r0, #29808	; 0x7470
     978:	14010000 	strne	r0, [r1], #-0
     97c:	00000084 	andeq	r0, r0, r4, lsl #1
     980:	046c9102 	strbteq	r9, [ip], #-258	; 0xfffffefe
     984:	00000346 	andeq	r0, r0, r6, asr #6
     988:	008b1501 	addeq	r1, fp, r1, lsl #10
     98c:	91020000 	tstls	r2, r0
     990:	04050068 	streq	r0, [r5], #-104	; 0xffffff98
     994:	00000025 	andeq	r0, r0, r5, lsr #32
     998:	13040402 	movwne	r0, #17410	; 0x4402
     99c:	06000003 	streq	r0, [r0], -r3
     9a0:	6e690504 	cdpvs	5, 6, cr0, cr9, cr4, {0}
     9a4:	01070074 	tsteq	r7, r4, ror r0
     9a8:	00000323 	andeq	r0, r0, r3, lsr #6
     9ac:	e8011b01 	stmda	r1, {r0, r8, r9, fp, ip}
     9b0:	0c43c017 	mcrreq	0, 1, ip, r3, cr7
     9b4:	8043c018 	subhi	ip, r3, r8, lsl r0
     9b8:	00000002 	andeq	r0, r0, r2
     9bc:	000007c5 	andeq	r0, r0, r5, asr #15
     9c0:	02e50002 	rsceq	r0, r5, #2
     9c4:	01040000 	tsteq	r4, r0
     9c8:	00000133 	andeq	r0, r0, r3, lsr r1
     9cc:	0002cb01 	andeq	ip, r2, r1, lsl #22
     9d0:	00003800 	andeq	r3, r0, r0, lsl #16
     9d4:	c0180c00 	andsgt	r0, r8, r0, lsl #24
     9d8:	c024fc43 	eorgt	pc, r4, r3, asr #24
     9dc:	0004aa43 	andeq	sl, r4, r3, asr #20
     9e0:	07040200 	streq	r0, [r4, -r0, lsl #4]
     9e4:	00000074 	andeq	r0, r0, r4, ror r0
     9e8:	6e026803 	cdpvs	8, 0, cr6, cr2, cr3, {0}
     9ec:	000001a1 	andeq	r0, r0, r1, lsr #3
     9f0:	54554f04 	ldrbpl	r4, [r5], #-3844	; 0xfffff0fc
     9f4:	256f0200 	strbcs	r0, [pc, #-512]!	; 7fc <_start-0x43bff804>
     9f8:	02000000 	andeq	r0, r0, #0
     9fc:	b1050023 	tstlt	r5, r3, lsr #32
     a00:	02000001 	andeq	r0, r0, #1
     a04:	00002570 	andeq	r2, r0, r0, ror r5
     a08:	04230200 	strteq	r0, [r3], #-512	; 0xfffffe00
     a0c:	0001bd05 	andeq	fp, r1, r5, lsl #26
     a10:	25710200 	ldrbcs	r0, [r1, #-512]!	; 0xfffffe00
     a14:	02000000 	andeq	r0, r0, #0
     a18:	c6050823 	strgt	r0, [r5], -r3, lsr #16
     a1c:	02000001 	andeq	r0, r0, #1
     a20:	00002572 	andeq	r2, r0, r2, ror r5
     a24:	0c230200 	sfmeq	f0, 4, [r3], #-0
     a28:	0002a105 	andeq	sl, r2, r5, lsl #2
     a2c:	25730200 	ldrbcs	r0, [r3, #-512]!	; 0xfffffe00
     a30:	02000000 	andeq	r0, r0, #0
     a34:	44041023 	strmi	r1, [r4], #-35	; 0xffffffdd
     a38:	02005445 	andeq	r5, r0, #1157627904	; 0x45000000
     a3c:	00002574 	andeq	r2, r0, r4, ror r5
     a40:	14230200 	strtne	r0, [r3], #-512	; 0xfffffe00
     a44:	44415004 	strbmi	r5, [r1], #-4
     a48:	25750200 	ldrbcs	r0, [r5, #-512]!	; 0xfffffe00
     a4c:	02000000 	andeq	r0, r0, #0
     a50:	5d051823 	stcpl	8, cr1, [r5, #-140]	; 0xffffff74
     a54:	02000002 	andeq	r0, r0, #2
     a58:	00002576 	andeq	r2, r0, r6, ror r5
     a5c:	1c230200 	sfmne	f0, 4, [r3], #-0
     a60:	0002e005 	andeq	lr, r2, r5
     a64:	25770200 	ldrbcs	r0, [r7, #-512]!	; 0xfffffe00
     a68:	02000000 	andeq	r0, r0, #0
     a6c:	e7052023 	str	r2, [r5, -r3, lsr #32]
     a70:	02000002 	andeq	r0, r0, #2
     a74:	00002578 	andeq	r2, r0, r8, ror r5
     a78:	24230200 	strtcs	r0, [r3], #-512	; 0xfffffe00
     a7c:	00028f05 	andeq	r8, r2, r5, lsl #30
     a80:	25790200 	ldrbcs	r0, [r9, #-512]!	; 0xfffffe00
     a84:	02000000 	andeq	r0, r0, #0
     a88:	67052823 	strvs	r2, [r5, -r3, lsr #16]
     a8c:	02000002 	andeq	r0, r0, #2
     a90:	0000257a 	andeq	r2, r0, sl, ror r5
     a94:	2c230200 	sfmcs	f0, 4, [r3], #-0
     a98:	00027105 	andeq	r7, r2, r5, lsl #2
     a9c:	257b0200 	ldrbcs	r0, [fp, #-512]!	; 0xfffffe00
     aa0:	02000000 	andeq	r0, r0, #0
     aa4:	7b053023 	blvc	14cb38 <_start-0x43ab34c8>
     aa8:	02000002 	andeq	r0, r0, #2
     aac:	0000257c 	andeq	r2, r0, ip, ror r5
     ab0:	34230200 	strtcc	r0, [r3], #-512	; 0xfffffe00
     ab4:	00028505 	andeq	r8, r2, r5, lsl #10
     ab8:	257d0200 	ldrbcs	r0, [sp, #-512]!	; 0xfffffe00
     abc:	02000000 	andeq	r0, r0, #0
     ac0:	ee053823 	cdp	8, 0, cr3, cr5, cr3, {1}
     ac4:	02000002 	andeq	r0, r0, #2
     ac8:	0000257e 	andeq	r2, r0, lr, ror r5
     acc:	3c230200 	sfmcc	f0, 4, [r3], #-0
     ad0:	00024605 	andeq	r4, r2, r5, lsl #12
     ad4:	257f0200 	ldrbcs	r0, [pc, #-512]!	; 8dc <_start-0x43bff724>
     ad8:	02000000 	andeq	r0, r0, #0
     adc:	f1054023 			; <UNDEFINED> instruction: 0xf1054023
     ae0:	02000001 	andeq	r0, r0, #1
     ae4:	00002580 	andeq	r2, r0, r0, lsl #11
     ae8:	44230200 	strtmi	r0, [r3], #-512	; 0xfffffe00
     aec:	00015e05 	andeq	r5, r1, r5, lsl #28
     af0:	25810200 	strcs	r0, [r1, #512]	; 0x200
     af4:	02000000 	andeq	r0, r0, #0
     af8:	a8054823 	stmdage	r5, {r0, r1, r5, fp, lr}
     afc:	02000002 	andeq	r0, r0, #2
     b00:	00002582 	andeq	r2, r0, r2, lsl #11
     b04:	4c230200 	sfmmi	f0, 4, [r3], #-0
     b08:	00015905 	andeq	r5, r1, r5, lsl #18
     b0c:	25830200 	strcs	r0, [r3, #512]	; 0x200
     b10:	02000000 	andeq	r0, r0, #0
     b14:	6f055023 	svcvs	0x00055023
     b18:	02000001 	andeq	r0, r0, #1
     b1c:	00002584 	andeq	r2, r0, r4, lsl #11
     b20:	54230200 	strtpl	r0, [r3], #-512	; 0xfffffe00
     b24:	00029905 	andeq	r9, r2, r5, lsl #18
     b28:	25850200 	strcs	r0, [r5, #512]	; 0x200
     b2c:	02000000 	andeq	r0, r0, #0
     b30:	19055823 	stmdbne	r5, {r0, r1, r5, fp, ip, lr}
     b34:	02000002 	andeq	r0, r0, #2
     b38:	00002586 	andeq	r2, r0, r6, lsl #11
     b3c:	5c230200 	sfmpl	f0, 4, [r3], #-0
     b40:	00023e05 	andeq	r3, r2, r5, lsl #28
     b44:	25870200 	strcs	r0, [r7, #512]	; 0x200
     b48:	02000000 	andeq	r0, r0, #0
     b4c:	cf056023 	svcgt	0x00056023
     b50:	02000001 	andeq	r0, r0, #1
     b54:	00002588 	andeq	r2, r0, r8, lsl #11
     b58:	64230200 	strtvs	r0, [r3], #-512	; 0xfffffe00
     b5c:	02570600 	subseq	r0, r7, #0, 12
     b60:	89020000 	stmdbhi	r2, {}	; <UNPREDICTABLE>
     b64:	0000002c 	andeq	r0, r0, ip, lsr #32
     b68:	0d033c03 	stceq	12, cr3, [r3, #-12]
     b6c:	00000287 	andeq	r0, r0, r7, lsl #5
     b70:	0001a305 	andeq	sl, r1, r5, lsl #6
     b74:	250e0300 	strcs	r0, [lr, #-768]	; 0xfffffd00
     b78:	02000000 	andeq	r0, r0, #0
     b7c:	54050023 	strpl	r0, [r5], #-35	; 0xffffffdd
     b80:	03000001 	movweq	r0, #1
     b84:	0000250f 	andeq	r2, r0, pc, lsl #10
     b88:	04230200 	strteq	r0, [r3], #-512	; 0xfffffe00
     b8c:	00014e05 	andeq	r4, r1, r5, lsl #28
     b90:	25100300 	ldrcs	r0, [r0, #-768]	; 0xfffffd00
     b94:	02000000 	andeq	r0, r0, #0
     b98:	38050823 	stmdacc	r5, {r0, r1, r5, fp}
     b9c:	03000002 	movweq	r0, #2
     ba0:	00002511 	andeq	r2, r0, r1, lsl r5
     ba4:	0c230200 	sfmeq	f0, 4, [r3], #-0
     ba8:	00019605 	andeq	r9, r1, r5, lsl #12
     bac:	25120300 	ldrcs	r0, [r2, #-768]	; 0xfffffd00
     bb0:	02000000 	andeq	r0, r0, #0
     bb4:	a9051023 	stmdbge	r5, {r0, r1, r5, ip}
     bb8:	03000001 	movweq	r0, #1
     bbc:	00002513 	andeq	r2, r0, r3, lsl r5
     bc0:	14230200 	strtne	r0, [r3], #-512	; 0xfffffe00
     bc4:	0002bd05 	andeq	fp, r2, r5, lsl #26
     bc8:	25140300 	ldrcs	r0, [r4, #-768]	; 0xfffffd00
     bcc:	02000000 	andeq	r0, r0, #0
     bd0:	31051823 	tstcc	r5, r3, lsr #16
     bd4:	03000002 	movweq	r0, #2
     bd8:	00002515 	andeq	r2, r0, r5, lsl r5
     bdc:	1c230200 	sfmne	f0, 4, [r3], #-0
     be0:	00019e05 	andeq	r9, r1, r5, lsl #28
     be4:	25160300 	ldrcs	r0, [r6, #-768]	; 0xfffffd00
     be8:	02000000 	andeq	r0, r0, #0
     bec:	db052023 	blle	148c80 <_start-0x43ab7380>
     bf0:	03000002 	movweq	r0, #2
     bf4:	00002517 	andeq	r2, r0, r7, lsl r5
     bf8:	24230200 	strtcs	r0, [r3], #-512	; 0xfffffe00
     bfc:	00020605 	andeq	r0, r2, r5, lsl #12
     c00:	25180300 	ldrcs	r0, [r8, #-768]	; 0xfffffd00
     c04:	02000000 	andeq	r0, r0, #0
     c08:	e8052823 	stmda	r5, {r0, r1, r5, fp, sp}
     c0c:	03000001 	movweq	r0, #1
     c10:	00002519 	andeq	r2, r0, r9, lsl r5
     c14:	2c230200 	sfmcs	f0, 4, [r3], #-0
     c18:	00016905 	andeq	r6, r1, r5, lsl #18
     c1c:	251a0300 	ldrcs	r0, [sl, #-768]	; 0xfffffd00
     c20:	02000000 	andeq	r0, r0, #0
     c24:	90053023 	andls	r3, r5, r3, lsr #32
     c28:	03000001 	movweq	r0, #1
     c2c:	0000251b 	andeq	r2, r0, fp, lsl r5
     c30:	34230200 	strtcc	r0, [r3], #-512	; 0xfffffe00
     c34:	00016305 	andeq	r6, r1, r5, lsl #6
     c38:	251c0300 	ldrcs	r0, [ip, #-768]	; 0xfffffd00
     c3c:	02000000 	andeq	r0, r0, #0
     c40:	06003823 	streq	r3, [r0], -r3, lsr #16
     c44:	00000419 	andeq	r0, r0, r9, lsl r4
     c48:	01ac1d03 			; <UNDEFINED> instruction: 0x01ac1d03
     c4c:	04070000 	streq	r0, [r7], #-0
     c50:	02f50804 	rscseq	r0, r5, #4, 16	; 0x40000
     c54:	bc080000 	stclt	0, cr0, [r8], {-0}
     c58:	00000003 	andeq	r0, r0, r3
     c5c:	0004fb08 	andeq	pc, r4, r8, lsl #22
     c60:	96080100 	strls	r0, [r8], -r0, lsl #2
     c64:	02000004 	andeq	r0, r0, #4
     c68:	00051b08 	andeq	r1, r5, r8, lsl #22
     c6c:	6d080300 	stcvs	3, cr0, [r8, #-0]
     c70:	04000003 	streq	r0, [r0], #-3
     c74:	0004e508 	andeq	lr, r4, r8, lsl #10
     c78:	8a080500 	bhi	202080 <_start-0x439fdf80>
     c7c:	06000003 	streq	r0, [r0], -r3
     c80:	00053f08 	andeq	r3, r5, r8, lsl #30
     c84:	d1080700 	tstle	r8, r0, lsl #14
     c88:	08000003 	stmdaeq	r0, {r0, r1}
     c8c:	00046308 	andeq	r6, r4, r8, lsl #6
     c90:	4c080900 	stcmi	9, cr0, [r8], {-0}
     c94:	0a000003 	beq	ca8 <_start-0x43bff358>
     c98:	00043208 	andeq	r3, r4, r8, lsl #4
     c9c:	b2080b00 	andlt	r0, r8, #0, 22
     ca0:	0c000004 	stceq	0, cr0, [r0], {4}
     ca4:	0005ce08 	andeq	ip, r5, r8, lsl #28
     ca8:	2b080d00 	blcs	2040b0 <_start-0x439fbf50>
     cac:	0e000005 	cdpeq	0, 0, cr0, cr0, cr5, {0}
     cb0:	058d0600 	streq	r0, [sp, #1536]	; 0x600
     cb4:	18040000 	stmdane	r4, {}	; <UNPREDICTABLE>
     cb8:	00000292 	muleq	r0, r2, r2
     cbc:	00055b06 	andeq	r5, r5, r6, lsl #22
     cc0:	251a0400 	ldrcs	r0, [sl, #-1024]	; 0xfffffc00
     cc4:	09000000 	stmdbeq	r0, {}	; <UNPREDICTABLE>
     cc8:	00054d01 	andeq	r4, r5, r1, lsl #26
     ccc:	01050100 	tsteq	r5, r0, lsl #2
     cd0:	43c0180c 	bicmi	r1, r0, #12, 16	; 0xc0000
     cd4:	43c019ac 	bicmi	r1, r0, #172, 18	; 0x2b0000
     cd8:	000002ac 	andeq	r0, r0, ip, lsr #5
     cdc:	0000036b 	andeq	r0, r0, fp, ror #6
     ce0:	0004140a 	andeq	r1, r4, sl, lsl #8
     ce4:	00050100 	andeq	r0, r5, r0, lsl #2
     ce8:	02000003 	andeq	r0, r0, #3
     cec:	4a0a6c91 	bmi	29bf38 <_start-0x439640c8>
     cf0:	01000004 	tsteq	r0, r4
     cf4:	00030005 	andeq	r0, r3, r5
     cf8:	68910200 	ldmvs	r1, {r9}
     cfc:	0003c90b 	andeq	ip, r3, fp, lsl #18
     d00:	6b180100 	blvs	601108 <_start-0x435feef8>
     d04:	02000003 	andeq	r0, r0, #3
     d08:	fd0b7891 	stc2	8, cr7, [fp, #-580]	; 0xfffffdbc
     d0c:	01000005 	tsteq	r0, r5
     d10:	0003721a 	andeq	r7, r3, sl, lsl r2
     d14:	74910200 	ldrvc	r0, [r1], #512	; 0x200
     d18:	0003ea0b 	andeq	lr, r3, fp, lsl #20
     d1c:	721c0100 	andsvc	r0, ip, #0, 2
     d20:	02000003 	andeq	r0, r0, #3
     d24:	02007091 	andeq	r7, r0, #145	; 0x91
     d28:	03130404 	tsteq	r3, #4, 8	; 0x4000000
     d2c:	040c0000 	streq	r0, [ip], #-0
     d30:	746e6905 	strbtvc	r6, [lr], #-2309	; 0xfffff6fb
     d34:	7a010d00 	bvc	4413c <_start-0x43bbbec4>
     d38:	01000004 	tsteq	r0, r4
     d3c:	0372012e 	cmneq	r2, #-2147483637	; 0x8000000b
     d40:	19ac0000 	stmibne	ip!, {}	; <UNPREDICTABLE>
     d44:	1a0443c0 	bne	111c4c <_start-0x43aee3b4>
     d48:	02d843c0 	sbcseq	r4, r8, #192, 6
     d4c:	03b30000 			; <UNDEFINED> instruction: 0x03b30000
     d50:	730e0000 	movwvc	r0, #57344	; 0xe000
     d54:	01007274 	tsteq	r0, r4, ror r2
     d58:	0003b32e 	andeq	fp, r3, lr, lsr #6
     d5c:	74910200 	ldrvc	r0, [r1], #512	; 0x200
     d60:	6e656c0f 	cdpvs	12, 6, cr6, cr5, cr15, {0}
     d64:	72300100 	eorsvc	r0, r0, #0, 2
     d68:	02000003 	andeq	r0, r0, #3
     d6c:	10007891 	mulne	r0, r1, r8
     d70:	0003b904 	andeq	fp, r3, r4, lsl #18
     d74:	03be1100 			; <UNDEFINED> instruction: 0x03be1100
     d78:	01020000 	tsteq	r2, r0
     d7c:	00008a08 	andeq	r8, r0, r8, lsl #20
     d80:	77010900 	strvc	r0, [r1, -r0, lsl #18]
     d84:	01000005 	tsteq	r0, r5
     d88:	1a04013b 	bne	10127c <_start-0x43afed84>
     d8c:	1a6043c0 	bne	1811c94 <_start-0x423ee36c>
     d90:	030443c0 	movweq	r4, #17344	; 0x43c0
     d94:	03ec0000 	mvneq	r0, #0
     d98:	630e0000 	movwvs	r0, #57344	; 0xe000
     d9c:	3b010068 	blcc	40f44 <_start-0x43bbf0bc>
     da0:	000003b9 			; <UNDEFINED> instruction: 0x000003b9
     da4:	00749102 	rsbseq	r9, r4, r2, lsl #2
     da8:	04a5010d 	strteq	r0, [r5], #269	; 0x10d
     dac:	4d010000 	stcmi	0, cr0, [r1, #-0]
     db0:	0003be01 	andeq	fp, r3, r1, lsl #28
     db4:	c01a6000 	andsgt	r6, sl, r0
     db8:	c01ae043 	andsgt	lr, sl, r3, asr #32
     dbc:	00033043 	andeq	r3, r3, r3, asr #32
     dc0:	00046c00 	andeq	r6, r4, r0, lsl #24
     dc4:	03610a00 	cmneq	r1, #0, 20
     dc8:	4d010000 	stcmi	0, cr0, [r1, #-0]
     dcc:	00000372 	andeq	r0, r0, r2, ror r3
     dd0:	0a749102 	beq	1d251e0 <_start-0x41edae20>
     dd4:	0000059f 	muleq	r0, pc, r5	; <UNPREDICTABLE>
     dd8:	03724d01 	cmneq	r2, #1, 26	; 0x40
     ddc:	91020000 	tstls	r2, r0
     de0:	04810a70 	streq	r0, [r1], #2672	; 0xa70
     de4:	4d010000 	stcmi	0, cr0, [r1, #-0]
     de8:	00000372 	andeq	r0, r0, r2, ror r3
     dec:	0a6c9102 	beq	1b251fc <_start-0x420dae04>
     df0:	0000039a 	muleq	r0, sl, r3
     df4:	03724d01 	cmneq	r2, #1, 26	; 0x40
     df8:	91020000 	tstls	r2, r0
     dfc:	04500a68 	ldrbeq	r0, [r0], #-2664	; 0xfffff598
     e00:	4e010000 	cdpmi	0, 0, cr0, cr1, cr0, {0}
     e04:	00000372 	andeq	r0, r0, r2, ror r3
     e08:	0a009102 	beq	25218 <_start-0x43bdade8>
     e0c:	000005ac 	andeq	r0, r0, ip, lsr #11
     e10:	03724e01 	cmneq	r2, #1, 28
     e14:	91020000 	tstls	r2, r0
     e18:	041e0a04 	ldreq	r0, [lr], #-2564	; 0xfffff5fc
     e1c:	4e010000 	cdpmi	0, 0, cr0, cr1, cr0, {0}
     e20:	00000372 	andeq	r0, r0, r2, ror r3
     e24:	00089102 	andeq	r9, r8, r2, lsl #2
     e28:	05ed0109 	strbeq	r0, [sp, #265]!	; 0x109
     e2c:	60010000 	andvs	r0, r1, r0
     e30:	c01ae001 	andsgt	lr, sl, r1
     e34:	c01b3043 	andsgt	r3, fp, r3, asr #32
     e38:	00035c43 	andeq	r5, r3, r3, asr #24
     e3c:	0004a200 	andeq	sl, r4, r0, lsl #4
     e40:	74730e00 	ldrbtvc	r0, [r3], #-3584	; 0xfffff200
     e44:	60010072 	andvs	r0, r1, r2, ror r0
     e48:	000003b3 			; <UNDEFINED> instruction: 0x000003b3
     e4c:	0f709102 	svceq	0x00709102
     e50:	00727470 	rsbseq	r7, r2, r0, ror r4
     e54:	03b36301 			; <UNDEFINED> instruction: 0x03b36301
     e58:	91020000 	tstls	r2, r0
     e5c:	01090074 	tsteq	r9, r4, ror r0
     e60:	000003ad 	andeq	r0, r0, sp, lsr #7
     e64:	30016e01 	andcc	r6, r1, r1, lsl #28
     e68:	fc43c01b 	mcrr2	0, 1, ip, r3, cr11
     e6c:	8843c01b 	stmdahi	r3, {r0, r1, r3, r4, lr, pc}^
     e70:	53000003 	movwpl	r0, #3
     e74:	0e000005 	cdpeq	0, 0, cr0, cr0, cr5, {0}
     e78:	00727473 	rsbseq	r7, r2, r3, ror r4
     e7c:	05536e01 	ldrbeq	r6, [r3, #-3585]	; 0xfffff1ff
     e80:	91020000 	tstls	r2, r0
     e84:	656c0e6c 	strbvs	r0, [ip, #-3692]!	; 0xfffff194
     e88:	6e01006e 	cdpvs	0, 0, cr0, cr1, cr14, {3}
     e8c:	00000372 	andeq	r0, r0, r2, ror r3
     e90:	0a689102 	beq	1a252a0 <_start-0x421dad60>
     e94:	00000361 	andeq	r0, r0, r1, ror #6
     e98:	03726e01 	cmneq	r2, #1, 28
     e9c:	91020000 	tstls	r2, r0
     ea0:	059f0a64 	ldreq	r0, [pc, #2660]	; 190c <_start-0x43bfe6f4>
     ea4:	6e010000 	cdpvs	0, 0, cr0, cr1, cr0, {0}
     ea8:	00000372 	andeq	r0, r0, r2, ror r3
     eac:	0a609102 	beq	18252bc <_start-0x423dad44>
     eb0:	00000481 	andeq	r0, r0, r1, lsl #9
     eb4:	03726e01 	cmneq	r2, #1, 28
     eb8:	91020000 	tstls	r2, r0
     ebc:	039a0a00 	orrseq	r0, sl, #0, 20
     ec0:	6f010000 	svcvs	0x00010000
     ec4:	00000372 	andeq	r0, r0, r2, ror r3
     ec8:	0a049102 	beq	1252d8 <_start-0x43adad28>
     ecc:	00000450 	andeq	r0, r0, r0, asr r4
     ed0:	03726f01 	cmneq	r2, #1, 30
     ed4:	91020000 	tstls	r2, r0
     ed8:	05ac0a08 	streq	r0, [ip, #2568]!	; 0xa08
     edc:	6f010000 	svcvs	0x00010000
     ee0:	00000372 	andeq	r0, r0, r2, ror r3
     ee4:	0a0c9102 	beq	3252f4 <_start-0x438dad0c>
     ee8:	0000041e 	andeq	r0, r0, lr, lsl r4
     eec:	03726f01 	cmneq	r2, #1, 30
     ef0:	91020000 	tstls	r2, r0
     ef4:	68630f10 	stmdavs	r3!, {r4, r8, r9, sl, fp}^
     ef8:	be710100 	rpwlts	f0, f1, f0
     efc:	02000003 	andeq	r0, r0, #3
     f00:	690f7391 	stmdbvs	pc, {r0, r4, r7, r8, r9, ip, sp, lr}	; <UNPREDICTABLE>
     f04:	72720100 	rsbsvc	r0, r2, #0, 2
     f08:	02000003 	andeq	r0, r0, #3
     f0c:	10007491 	mulne	r0, r1, r4
     f10:	0003be04 	andeq	fp, r3, r4, lsl #28
     f14:	e0010d00 	and	r0, r1, r0, lsl #26
     f18:	01000003 	tsteq	r0, r3
     f1c:	03720185 	cmneq	r2, #1073741857	; 0x40000021
     f20:	1bfc0000 	blne	fff00f28 <__bss_end__+0xbc2fc72c>
     f24:	1cb043c0 	ldcne	3, cr4, [r0], #768	; 0x300
     f28:	03b443c0 			; <UNDEFINED> instruction: 0x03b443c0
     f2c:	05af0000 	streq	r0, [pc, #0]!	; f34 <_start-0x43bff0cc>
     f30:	730e0000 	movwvc	r0, #57344	; 0xe000
     f34:	01007274 	tsteq	r0, r4, ror r2
     f38:	00055385 	andeq	r5, r5, r5, lsl #7
     f3c:	70910200 	addsvc	r0, r1, r0, lsl #4
     f40:	7274640e 	rsbsvc	r6, r4, #234881024	; 0xe000000
     f44:	53850100 	orrpl	r0, r5, #0, 2
     f48:	02000005 	andeq	r0, r0, #5
     f4c:	f40b6c91 			; <UNDEFINED> instruction: 0xf40b6c91
     f50:	01000003 	tsteq	r0, r3
     f54:	00055387 	andeq	r5, r5, r7, lsl #7
     f58:	78910200 	ldmvc	r1, {r9}
     f5c:	0003f90b 	andeq	pc, r3, fp, lsl #18
     f60:	53880100 	orrpl	r0, r8, #0, 2
     f64:	02000005 	andeq	r0, r0, #5
     f68:	09007491 	stmdbeq	r0, {r0, r4, r7, sl, ip, sp, lr}
     f6c:	00050901 	andeq	r0, r5, r1, lsl #18
     f70:	01950100 	orrseq	r0, r5, r0, lsl #2
     f74:	43c01cb0 	bicmi	r1, r0, #176, 24	; 0xb000
     f78:	43c01e34 	bicmi	r1, r0, #52, 28	; 0x340
     f7c:	000003e0 	andeq	r0, r0, r0, ror #7
     f80:	00000639 	andeq	r0, r0, r9, lsr r6
     f84:	0003610a 	andeq	r6, r3, sl, lsl #2
     f88:	f5950100 			; <UNDEFINED> instruction: 0xf5950100
     f8c:	02000002 	andeq	r0, r0, #2
     f90:	9f0a7091 	svcls	0x000a7091
     f94:	01000005 	tsteq	r0, r5
     f98:	00037295 	muleq	r3, r5, r2
     f9c:	6c910200 	lfmvs	f0, 4, [r1], {0}
     fa0:	0004810a 	andeq	r8, r4, sl, lsl #2
     fa4:	72950100 	addsvc	r0, r5, #0, 2
     fa8:	02000003 	andeq	r0, r0, #3
     fac:	9a0a6891 	bls	29b1f8 <_start-0x43964e08>
     fb0:	01000003 	tsteq	r0, r3
     fb4:	00037295 	muleq	r3, r5, r2
     fb8:	64910200 	ldrvs	r0, [r1], #512	; 0x200
     fbc:	0004500a 	andeq	r5, r4, sl
     fc0:	72960100 	addsvc	r0, r6, #0, 2
     fc4:	02000003 	andeq	r0, r0, #3
     fc8:	ac0a0091 	stcge	0, cr0, [sl], {145}	; 0x91
     fcc:	01000005 	tsteq	r0, r5
     fd0:	00037296 	muleq	r3, r6, r2
     fd4:	04910200 	ldreq	r0, [r1], #512	; 0x200
     fd8:	00041e0a 	andeq	r1, r4, sl, lsl #28
     fdc:	72960100 	addsvc	r0, r6, #0, 2
     fe0:	02000003 	andeq	r0, r0, #3
     fe4:	c20b0891 	andgt	r0, fp, #9502720	; 0x910000
     fe8:	01000005 	tsteq	r0, r5
     fec:	00037299 	muleq	r3, r9, r2
     ff0:	74910200 	ldrvc	r0, [r1], #512	; 0x200
     ff4:	c8010d00 	stmdagt	r1, {r8, sl, fp}
     ff8:	01000004 	tsteq	r0, r4
     ffc:	055301e8 	ldrbeq	r0, [r3, #-488]	; 0xfffffe18
    1000:	1e340000 	cdpne	0, 3, cr0, cr4, cr0, {0}
    1004:	1fc443c0 	svcne	0x00c443c0
    1008:	040c43c0 	streq	r4, [ip], #-960	; 0xfffffc40
    100c:	06ac0000 	strteq	r0, [ip], r0
    1010:	7e0a0000 	cdpvc	0, 0, cr0, cr10, cr0, {0}
    1014:	01000003 	tsteq	r0, r3
    1018:	000553e8 	andeq	r5, r5, r8, ror #7
    101c:	b4910300 	ldrlt	r0, [r1], #768	; 0x300
    1020:	74700f7f 	ldrbtvc	r0, [r0], #-3967	; 0xfffff081
    1024:	ea010072 	b	411f4 <_start-0x43bbee0c>
    1028:	00000553 	andeq	r0, r0, r3, asr r5
    102c:	0b789102 	bleq	1e2543c <_start-0x41ddabc4>
    1030:	00000609 	andeq	r0, r0, r9, lsl #12
    1034:	06aceb01 	strteq	lr, [ip], r1, lsl #22
    1038:	91030000 	tstls	r3, r0
    103c:	690f7fb8 	stmdbvs	pc, {r3, r4, r5, r7, r8, r9, sl, fp, ip, sp, lr}	; <UNPREDICTABLE>
    1040:	72ec0100 	rscvc	r0, ip, #0, 2
    1044:	02000003 	andeq	r0, r0, #3
    1048:	e10b7491 			; <UNDEFINED> instruction: 0xe10b7491
    104c:	01000005 	tsteq	r0, r5
    1050:	000372ed 	andeq	r7, r3, sp, ror #5
    1054:	70910200 	addsvc	r0, r1, r0, lsl #4
    1058:	00060512 	andeq	r0, r6, r2, lsl r5
    105c:	01030100 	tsteq	r3, r0, lsl #2
    1060:	00000553 	andeq	r0, r0, r3, asr r5
    1064:	006c9102 	rsbeq	r9, ip, r2, lsl #2
    1068:	0003be13 	andeq	fp, r3, r3, lsl lr
    106c:	0006bc00 	andeq	fp, r6, r0, lsl #24
    1070:	00251400 	eoreq	r1, r5, r0, lsl #8
    1074:	00310000 	eorseq	r0, r1, r0
    1078:	03fe0115 	mvnseq	r0, #1073741829	; 0x40000005
    107c:	08010000 	stmdaeq	r1, {}	; <UNPREDICTABLE>
    1080:	05530101 	ldrbeq	r0, [r3, #-257]	; 0xfffffeff
    1084:	1fc40000 	svcne	0x00c40000
    1088:	210043c0 	smlabtcs	r0, r0, r3, r4
    108c:	043843c0 	ldrteq	r4, [r8], #-960	; 0xfffffc40
    1090:	07330000 	ldreq	r0, [r3, -r0]!
    1094:	7e160000 	cdpvc	0, 1, cr0, cr6, cr0, {0}
    1098:	01000003 	tsteq	r0, r3
    109c:	05530108 	ldrbeq	r0, [r3, #-264]	; 0xfffffef8
    10a0:	91020000 	tstls	r2, r0
    10a4:	74701754 	ldrbtvc	r1, [r0], #-1876	; 0xfffff8ac
    10a8:	0a010072 	beq	41278 <_start-0x43bbed88>
    10ac:	00055301 	andeq	r5, r5, r1, lsl #6
    10b0:	78910200 	ldmvc	r1, {r9}
    10b4:	00059f12 	andeq	r9, r5, r2, lsl pc
    10b8:	010b0100 	tsteq	fp, r0, lsl #2
    10bc:	00000733 	andeq	r0, r0, r3, lsr r7
    10c0:	17589102 	ldrbne	r9, [r8, -r2, lsl #2]
    10c4:	0c010069 	stceq	0, cr0, [r1], {105}	; 0x69
    10c8:	00037201 	andeq	r7, r3, r1, lsl #4
    10cc:	74910200 	ldrvc	r0, [r1], #512	; 0x200
    10d0:	0005e112 	andeq	lr, r5, r2, lsl r1
    10d4:	010d0100 	tsteq	sp, r0, lsl #2
    10d8:	00000372 	andeq	r0, r0, r2, ror r3
    10dc:	12709102 	rsbsne	r9, r0, #-2147483648	; 0x80000000
    10e0:	0000059b 	muleq	r0, fp, r5
    10e4:	53012601 	movwpl	r2, #5633	; 0x1601
    10e8:	02000005 	andeq	r0, r0, #5
    10ec:	13006c91 	movwne	r6, #3217	; 0xc91
    10f0:	000003be 			; <UNDEFINED> instruction: 0x000003be
    10f4:	00000743 	andeq	r0, r0, r3, asr #14
    10f8:	00002514 	andeq	r2, r0, r4, lsl r5
    10fc:	15001300 	strne	r1, [r0, #-768]	; 0xfffffd00
    1100:	00056301 	andeq	r6, r5, r1, lsl #6
    1104:	012c0100 	teqeq	ip, r0, lsl #2
    1108:	00037201 	andeq	r7, r3, r1, lsl #4
    110c:	c0210000 	eorgt	r0, r1, r0
    1110:	c0248043 	eorgt	r8, r4, r3, asr #32
    1114:	00046443 	andeq	r6, r4, r3, asr #8
    1118:	00078000 	andeq	r8, r7, r0
    111c:	06091600 	streq	r1, [r9], -r0, lsl #12
    1120:	2c010000 	stccs	0, cr0, [r1], {-0}
    1124:	00055301 	andeq	r5, r5, r1, lsl #6
    1128:	74910200 	ldrvc	r0, [r1], #512	; 0x200
    112c:	00036116 	andeq	r6, r3, r6, lsl r1
    1130:	012c0100 	teqeq	ip, r0, lsl #2
    1134:	00000372 	andeq	r0, r0, r2, ror r3
    1138:	00709102 	rsbseq	r9, r0, r2, lsl #2
    113c:	06150118 			; <UNDEFINED> instruction: 0x06150118
    1140:	6b010000 	blvs	41148 <_start-0x43bbeeb8>
    1144:	05530101 	ldrbeq	r0, [r3, #-257]	; 0xfffffeff
    1148:	24800000 	strcs	r0, [r0], #0
    114c:	24fc43c0 	ldrbtcs	r4, [ip], #960	; 0x3c0
    1150:	049043c0 	ldreq	r4, [r0], #960	; 0x3c0
    1154:	85160000 	ldrhi	r0, [r6, #-0]
    1158:	01000005 	tsteq	r0, r5
    115c:	0553016b 	ldrbeq	r0, [r3, #-363]	; 0xfffffe95
    1160:	91020000 	tstls	r2, r0
    1164:	04f41674 	ldrbteq	r1, [r4], #1652	; 0x674
    1168:	6b010000 	blvs	41170 <_start-0x43bbee90>
    116c:	0003b301 	andeq	fp, r3, r1, lsl #6
    1170:	70910200 	addsvc	r0, r1, r0, lsl #4
    1174:	0004dd12 	andeq	sp, r4, r2, lsl sp
    1178:	016d0100 	cmneq	sp, r0, lsl #2
    117c:	00000553 	andeq	r0, r0, r3, asr r5
    1180:	00789102 	rsbseq	r9, r8, r2, lsl #2
    1184:	00034200 	andeq	r4, r3, r0, lsl #4
    1188:	48000200 	stmdami	r0, {r9}
    118c:	04000004 	streq	r0, [r0], #-4
    1190:	00013301 	andeq	r3, r1, r1, lsl #6
    1194:	06320100 	ldrteq	r0, [r2], -r0, lsl #2
    1198:	00380000 	eorseq	r0, r8, r0
    119c:	24fc0000 	ldrbtcs	r0, [ip], #0
    11a0:	27c443c0 	strbcs	r4, [r4, r0, asr #7]
    11a4:	069b43c0 	ldreq	r4, [fp], r0, asr #7
    11a8:	04020000 	streq	r0, [r2], #-0
    11ac:	00007407 	andeq	r7, r0, r7, lsl #8
    11b0:	02680300 	rsbeq	r0, r8, #0, 6
    11b4:	0001a12e 	andeq	sl, r1, lr, lsr #2
    11b8:	554f0400 	strbpl	r0, [pc, #-1024]	; dc0 <_start-0x43bff240>
    11bc:	2f020054 	svccs	0x00020054
    11c0:	00000025 	andeq	r0, r0, r5, lsr #32
    11c4:	05002302 	streq	r2, [r0, #-770]	; 0xfffffcfe
    11c8:	000001b1 			; <UNDEFINED> instruction: 0x000001b1
    11cc:	00253002 	eoreq	r3, r5, r2
    11d0:	23020000 	movwcs	r0, #8192	; 0x2000
    11d4:	01bd0504 			; <UNDEFINED> instruction: 0x01bd0504
    11d8:	31020000 	tstcc	r2, r0
    11dc:	00000025 	andeq	r0, r0, r5, lsr #32
    11e0:	05082302 	streq	r2, [r8, #-770]	; 0xfffffcfe
    11e4:	000001c6 	andeq	r0, r0, r6, asr #3
    11e8:	00253202 	eoreq	r3, r5, r2, lsl #4
    11ec:	23020000 	movwcs	r0, #8192	; 0x2000
    11f0:	02a1050c 	adceq	r0, r1, #12, 10	; 0x3000000
    11f4:	33020000 	movwcc	r0, #8192	; 0x2000
    11f8:	00000025 	andeq	r0, r0, r5, lsr #32
    11fc:	04102302 	ldreq	r2, [r0], #-770	; 0xfffffcfe
    1200:	00544544 	subseq	r4, r4, r4, asr #10
    1204:	00253402 	eoreq	r3, r5, r2, lsl #8
    1208:	23020000 	movwcs	r0, #8192	; 0x2000
    120c:	41500414 	cmpmi	r0, r4, lsl r4
    1210:	35020044 	strcc	r0, [r2, #-68]	; 0xffffffbc
    1214:	00000025 	andeq	r0, r0, r5, lsr #32
    1218:	05182302 	ldreq	r2, [r8, #-770]	; 0xfffffcfe
    121c:	0000025d 	andeq	r0, r0, sp, asr r2
    1220:	00253602 	eoreq	r3, r5, r2, lsl #12
    1224:	23020000 	movwcs	r0, #8192	; 0x2000
    1228:	02e0051c 	rsceq	r0, r0, #28, 10	; 0x7000000
    122c:	37020000 	strcc	r0, [r2, -r0]
    1230:	00000025 	andeq	r0, r0, r5, lsr #32
    1234:	05202302 	streq	r2, [r0, #-770]!	; 0xfffffcfe
    1238:	000002e7 	andeq	r0, r0, r7, ror #5
    123c:	00253802 	eoreq	r3, r5, r2, lsl #16
    1240:	23020000 	movwcs	r0, #8192	; 0x2000
    1244:	028f0524 	addeq	r0, pc, #36, 10	; 0x9000000
    1248:	39020000 	stmdbcc	r2, {}	; <UNPREDICTABLE>
    124c:	00000025 	andeq	r0, r0, r5, lsr #32
    1250:	05282302 	streq	r2, [r8, #-770]!	; 0xfffffcfe
    1254:	00000267 	andeq	r0, r0, r7, ror #4
    1258:	00253a02 	eoreq	r3, r5, r2, lsl #20
    125c:	23020000 	movwcs	r0, #8192	; 0x2000
    1260:	0271052c 	rsbseq	r0, r1, #44, 10	; 0xb000000
    1264:	3b020000 	blcc	8126c <_start-0x43b7ed94>
    1268:	00000025 	andeq	r0, r0, r5, lsr #32
    126c:	05302302 	ldreq	r2, [r0, #-770]!	; 0xfffffcfe
    1270:	0000027b 	andeq	r0, r0, fp, ror r2
    1274:	00253c02 	eoreq	r3, r5, r2, lsl #24
    1278:	23020000 	movwcs	r0, #8192	; 0x2000
    127c:	02850534 	addeq	r0, r5, #52, 10	; 0xd000000
    1280:	3d020000 	stccc	0, cr0, [r2, #-0]
    1284:	00000025 	andeq	r0, r0, r5, lsr #32
    1288:	05382302 	ldreq	r2, [r8, #-770]!	; 0xfffffcfe
    128c:	000002ee 	andeq	r0, r0, lr, ror #5
    1290:	00253e02 	eoreq	r3, r5, r2, lsl #28
    1294:	23020000 	movwcs	r0, #8192	; 0x2000
    1298:	0246053c 	subeq	r0, r6, #60, 10	; 0xf000000
    129c:	3f020000 	svccc	0x00020000
    12a0:	00000025 	andeq	r0, r0, r5, lsr #32
    12a4:	05402302 	strbeq	r2, [r0, #-770]	; 0xfffffcfe
    12a8:	000001f1 	strdeq	r0, [r0], -r1
    12ac:	00254002 	eoreq	r4, r5, r2
    12b0:	23020000 	movwcs	r0, #8192	; 0x2000
    12b4:	015e0544 	cmpeq	lr, r4, asr #10
    12b8:	41020000 	tstmi	r2, r0
    12bc:	00000025 	andeq	r0, r0, r5, lsr #32
    12c0:	05482302 	strbeq	r2, [r8, #-770]	; 0xfffffcfe
    12c4:	000002a8 	andeq	r0, r0, r8, lsr #5
    12c8:	00254202 	eoreq	r4, r5, r2, lsl #4
    12cc:	23020000 	movwcs	r0, #8192	; 0x2000
    12d0:	0159054c 	cmpeq	r9, ip, asr #10
    12d4:	43020000 	movwmi	r0, #8192	; 0x2000
    12d8:	00000025 	andeq	r0, r0, r5, lsr #32
    12dc:	05502302 	ldrbeq	r2, [r0, #-770]	; 0xfffffcfe
    12e0:	0000016f 	andeq	r0, r0, pc, ror #2
    12e4:	00254402 	eoreq	r4, r5, r2, lsl #8
    12e8:	23020000 	movwcs	r0, #8192	; 0x2000
    12ec:	02990554 	addseq	r0, r9, #84, 10	; 0x15000000
    12f0:	45020000 	strmi	r0, [r2, #-0]
    12f4:	00000025 	andeq	r0, r0, r5, lsr #32
    12f8:	05582302 	ldrbeq	r2, [r8, #-770]	; 0xfffffcfe
    12fc:	00000219 	andeq	r0, r0, r9, lsl r2
    1300:	00254602 	eoreq	r4, r5, r2, lsl #12
    1304:	23020000 	movwcs	r0, #8192	; 0x2000
    1308:	023e055c 	eorseq	r0, lr, #92, 10	; 0x17000000
    130c:	47020000 	strmi	r0, [r2, -r0]
    1310:	00000025 	andeq	r0, r0, r5, lsr #32
    1314:	05602302 	strbeq	r2, [r0, #-770]!	; 0xfffffcfe
    1318:	000001cf 	andeq	r0, r0, pc, asr #3
    131c:	00254802 	eoreq	r4, r5, r2, lsl #16
    1320:	23020000 	movwcs	r0, #8192	; 0x2000
    1324:	8e060064 	cdphi	0, 0, cr0, cr6, cr4, {3}
    1328:	02000006 	andeq	r0, r0, #6
    132c:	00002c49 	andeq	r2, r0, r9, asr #24
    1330:	03140300 	tsteq	r4, #0, 6
    1334:	0001fb38 	andeq	pc, r1, r8, lsr fp	; <UNPREDICTABLE>
    1338:	061e0500 	ldreq	r0, [lr], -r0, lsl #10
    133c:	39030000 	stmdbcc	r3, {}	; <UNPREDICTABLE>
    1340:	00000025 	andeq	r0, r0, r5, lsr #32
    1344:	05002302 	streq	r2, [r0, #-770]	; 0xfffffcfe
    1348:	00000628 	andeq	r0, r0, r8, lsr #12
    134c:	00253a03 	eoreq	r3, r5, r3, lsl #20
    1350:	23020000 	movwcs	r0, #8192	; 0x2000
    1354:	065b0504 	ldrbeq	r0, [fp], -r4, lsl #10
    1358:	3b030000 	blcc	c1360 <_start-0x43b3eca0>
    135c:	00000025 	andeq	r0, r0, r5, lsr #32
    1360:	05082302 	streq	r2, [r8, #-770]	; 0xfffffcfe
    1364:	00000665 	andeq	r0, r0, r5, ror #12
    1368:	00253c03 	eoreq	r3, r5, r3, lsl #24
    136c:	23020000 	movwcs	r0, #8192	; 0x2000
    1370:	066f050c 	strbteq	r0, [pc], -ip, lsl #10
    1374:	3d030000 	stccc	0, cr0, [r3, #-0]
    1378:	00000025 	andeq	r0, r0, r5, lsr #32
    137c:	00102302 	andseq	r2, r0, r2, lsl #6
    1380:	00068006 	andeq	r8, r6, r6
    1384:	ac3e0300 	ldcge	3, cr0, [lr], #-0
    1388:	03000001 	movweq	r0, #1
    138c:	0b0c0448 	bleq	3024b4 <_start-0x438fdb4c>
    1390:	05000003 	streq	r0, [r0, #-3]
    1394:	0000069c 	muleq	r0, ip, r6
    1398:	00250d04 	eoreq	r0, r5, r4, lsl #26
    139c:	23020000 	movwcs	r0, #8192	; 0x2000
    13a0:	06a20500 	strteq	r0, [r2], r0, lsl #10
    13a4:	0e040000 	cdpeq	0, 0, cr0, cr4, cr0, {0}
    13a8:	00000025 	andeq	r0, r0, r5, lsr #32
    13ac:	05042302 	streq	r2, [r4, #-770]	; 0xfffffcfe
    13b0:	000006a8 	andeq	r0, r0, r8, lsr #13
    13b4:	00250f04 	eoreq	r0, r5, r4, lsl #30
    13b8:	23020000 	movwcs	r0, #8192	; 0x2000
    13bc:	06db0508 	ldrbeq	r0, [fp], r8, lsl #10
    13c0:	10040000 	andne	r0, r4, r0
    13c4:	00000025 	andeq	r0, r0, r5, lsr #32
    13c8:	050c2302 	streq	r2, [ip, #-770]	; 0xfffffcfe
    13cc:	0000063f 	andeq	r0, r0, pc, lsr r6
    13d0:	00251104 	eoreq	r1, r5, r4, lsl #2
    13d4:	23020000 	movwcs	r0, #8192	; 0x2000
    13d8:	06ad0510 	ssateq	r0, #14, r0, lsl #10
    13dc:	12040000 	andne	r0, r4, #0
    13e0:	00000025 	andeq	r0, r0, r5, lsr #32
    13e4:	05142302 	ldreq	r2, [r4, #-770]	; 0xfffffcfe
    13e8:	000006e2 	andeq	r0, r0, r2, ror #13
    13ec:	00251304 	eoreq	r1, r5, r4, lsl #6
    13f0:	23020000 	movwcs	r0, #8192	; 0x2000
    13f4:	06460518 			; <UNDEFINED> instruction: 0x06460518
    13f8:	14040000 	strne	r0, [r4], #-0
    13fc:	00000025 	andeq	r0, r0, r5, lsr #32
    1400:	051c2302 	ldreq	r2, [ip, #-770]	; 0xfffffcfe
    1404:	000006b4 			; <UNDEFINED> instruction: 0x000006b4
    1408:	00251504 	eoreq	r1, r5, r4, lsl #10
    140c:	23020000 	movwcs	r0, #8192	; 0x2000
    1410:	06e90520 	strbteq	r0, [r9], r0, lsr #10
    1414:	16040000 	strne	r0, [r4], -r0
    1418:	00000025 	andeq	r0, r0, r5, lsr #32
    141c:	05242302 	streq	r2, [r4, #-770]!	; 0xfffffcfe
    1420:	0000064d 	andeq	r0, r0, sp, asr #12
    1424:	00251704 	eoreq	r1, r5, r4, lsl #14
    1428:	23020000 	movwcs	r0, #8192	; 0x2000
    142c:	06bb0528 	ldrteq	r0, [fp], r8, lsr #10
    1430:	18040000 	stmdane	r4, {}	; <UNPREDICTABLE>
    1434:	00000025 	andeq	r0, r0, r5, lsr #32
    1438:	052c2302 	streq	r2, [ip, #-770]!	; 0xfffffcfe
    143c:	000006f0 	strdeq	r0, [r0], -r0	; <UNPREDICTABLE>
    1440:	00251904 	eoreq	r1, r5, r4, lsl #18
    1444:	23020000 	movwcs	r0, #8192	; 0x2000
    1448:	06540530 			; <UNDEFINED> instruction: 0x06540530
    144c:	1a040000 	bne	101454 <_start-0x43afebac>
    1450:	00000025 	andeq	r0, r0, r5, lsr #32
    1454:	05342302 	ldreq	r2, [r4, #-770]!	; 0xfffffcfe
    1458:	000006c2 	andeq	r0, r0, r2, asr #13
    145c:	00251b04 	eoreq	r1, r5, r4, lsl #22
    1460:	23020000 	movwcs	r0, #8192	; 0x2000
    1464:	06f70538 			; <UNDEFINED> instruction: 0x06f70538
    1468:	1c040000 	stcne	0, cr0, [r4], {-0}
    146c:	00000025 	andeq	r0, r0, r5, lsr #32
    1470:	053c2302 	ldreq	r2, [ip, #-770]!	; 0xfffffcfe
    1474:	000006c9 	andeq	r0, r0, r9, asr #13
    1478:	00251d04 	eoreq	r1, r5, r4, lsl #26
    147c:	23020000 	movwcs	r0, #8192	; 0x2000
    1480:	06d00540 	ldrbeq	r0, [r0], r0, asr #10
    1484:	1e040000 	cdpne	0, 0, cr0, cr4, cr0, {0}
    1488:	00000025 	andeq	r0, r0, r5, lsr #32
    148c:	00442302 	subeq	r2, r4, r2, lsl #6
    1490:	6d777007 	ldclvs	0, cr7, [r7, #-28]!	; 0xffffffe4
    1494:	061f0400 	ldreq	r0, [pc], -r0, lsl #8
    1498:	08000002 	stmdaeq	r0, {r1}
    149c:	00067901 	andeq	r7, r6, r1, lsl #18
    14a0:	01050100 	tsteq	r5, r0, lsl #2
    14a4:	43c024fc 	bicmi	r2, r0, #252, 8	; 0xfc000000
    14a8:	43c027c4 	bicmi	r2, r0, #196, 14	; 0x3100000
    14ac:	000004bc 			; <UNDEFINED> instruction: 0x000004bc
    14b0:	0000033e 	andeq	r0, r0, lr, lsr r3
    14b4:	00069409 	andeq	r9, r6, r9, lsl #8
    14b8:	3e070100 	adfccs	f0, f7, f0
    14bc:	02000003 	andeq	r0, r0, #3
    14c0:	0a007491 	beq	1e70c <_start-0x43be18f4>
    14c4:	6e690504 	cdpvs	5, 6, cr0, cr9, cr4, {0}
    14c8:	ef000074 	svc	0x00000074
    14cc:	02000004 	andeq	r0, r0, #4
    14d0:	0004dd00 	andeq	sp, r4, r0, lsl #26
    14d4:	33010400 	movwcc	r0, #5120	; 0x1400
    14d8:	01000001 	tsteq	r0, r1
    14dc:	00000716 	andeq	r0, r0, r6, lsl r7
    14e0:	00000038 	andeq	r0, r0, r8, lsr r0
    14e4:	43c027c4 	bicmi	r2, r0, #196, 14	; 0x3100000
    14e8:	43c02c00 	bicmi	r2, r0, #0, 24
    14ec:	0000075a 	andeq	r0, r0, sl, asr r7
    14f0:	74070402 	strvc	r0, [r7], #-1026	; 0xfffffbfe
    14f4:	03000000 	movweq	r0, #0
    14f8:	a14e0268 	mrsge	r0, SPSR
    14fc:	04000001 	streq	r0, [r0], #-1
    1500:	0054554f 	subseq	r5, r4, pc, asr #10
    1504:	00254f02 	eoreq	r4, r5, r2, lsl #30
    1508:	23020000 	movwcs	r0, #8192	; 0x2000
    150c:	01b10500 			; <UNDEFINED> instruction: 0x01b10500
    1510:	50020000 	andpl	r0, r2, r0
    1514:	00000025 	andeq	r0, r0, r5, lsr #32
    1518:	05042302 	streq	r2, [r4, #-770]	; 0xfffffcfe
    151c:	000001bd 			; <UNDEFINED> instruction: 0x000001bd
    1520:	00255102 	eoreq	r5, r5, r2, lsl #2
    1524:	23020000 	movwcs	r0, #8192	; 0x2000
    1528:	01c60508 	biceq	r0, r6, r8, lsl #10
    152c:	52020000 	andpl	r0, r2, #0
    1530:	00000025 	andeq	r0, r0, r5, lsr #32
    1534:	050c2302 	streq	r2, [ip, #-770]	; 0xfffffcfe
    1538:	000002a1 	andeq	r0, r0, r1, lsr #5
    153c:	00255302 	eoreq	r5, r5, r2, lsl #6
    1540:	23020000 	movwcs	r0, #8192	; 0x2000
    1544:	45440410 	strbmi	r0, [r4, #-1040]	; 0xfffffbf0
    1548:	54020054 	strpl	r0, [r2], #-84	; 0xffffffac
    154c:	00000025 	andeq	r0, r0, r5, lsr #32
    1550:	04142302 	ldreq	r2, [r4], #-770	; 0xfffffcfe
    1554:	00444150 	subeq	r4, r4, r0, asr r1
    1558:	00255502 	eoreq	r5, r5, r2, lsl #10
    155c:	23020000 	movwcs	r0, #8192	; 0x2000
    1560:	025d0518 	subseq	r0, sp, #24, 10	; 0x6000000
    1564:	56020000 	strpl	r0, [r2], -r0
    1568:	00000025 	andeq	r0, r0, r5, lsr #32
    156c:	051c2302 	ldreq	r2, [ip, #-770]	; 0xfffffcfe
    1570:	000002e0 	andeq	r0, r0, r0, ror #5
    1574:	00255702 	eoreq	r5, r5, r2, lsl #14
    1578:	23020000 	movwcs	r0, #8192	; 0x2000
    157c:	02e70520 	rsceq	r0, r7, #32, 10	; 0x8000000
    1580:	58020000 	stmdapl	r2, {}	; <UNPREDICTABLE>
    1584:	00000025 	andeq	r0, r0, r5, lsr #32
    1588:	05242302 	streq	r2, [r4, #-770]!	; 0xfffffcfe
    158c:	0000028f 	andeq	r0, r0, pc, lsl #5
    1590:	00255902 	eoreq	r5, r5, r2, lsl #18
    1594:	23020000 	movwcs	r0, #8192	; 0x2000
    1598:	02670528 	rsbeq	r0, r7, #40, 10	; 0xa000000
    159c:	5a020000 	bpl	815a4 <_start-0x43b7ea5c>
    15a0:	00000025 	andeq	r0, r0, r5, lsr #32
    15a4:	052c2302 	streq	r2, [ip, #-770]!	; 0xfffffcfe
    15a8:	00000271 	andeq	r0, r0, r1, ror r2
    15ac:	00255b02 	eoreq	r5, r5, r2, lsl #22
    15b0:	23020000 	movwcs	r0, #8192	; 0x2000
    15b4:	027b0530 	rsbseq	r0, fp, #48, 10	; 0xc000000
    15b8:	5c020000 	stcpl	0, cr0, [r2], {-0}
    15bc:	00000025 	andeq	r0, r0, r5, lsr #32
    15c0:	05342302 	ldreq	r2, [r4, #-770]!	; 0xfffffcfe
    15c4:	00000285 	andeq	r0, r0, r5, lsl #5
    15c8:	00255d02 	eoreq	r5, r5, r2, lsl #26
    15cc:	23020000 	movwcs	r0, #8192	; 0x2000
    15d0:	02ee0538 	rsceq	r0, lr, #56, 10	; 0xe000000
    15d4:	5e020000 	cdppl	0, 0, cr0, cr2, cr0, {0}
    15d8:	00000025 	andeq	r0, r0, r5, lsr #32
    15dc:	053c2302 	ldreq	r2, [ip, #-770]!	; 0xfffffcfe
    15e0:	00000246 	andeq	r0, r0, r6, asr #4
    15e4:	00255f02 	eoreq	r5, r5, r2, lsl #30
    15e8:	23020000 	movwcs	r0, #8192	; 0x2000
    15ec:	01f10540 	mvnseq	r0, r0, asr #10
    15f0:	60020000 	andvs	r0, r2, r0
    15f4:	00000025 	andeq	r0, r0, r5, lsr #32
    15f8:	05442302 	strbeq	r2, [r4, #-770]	; 0xfffffcfe
    15fc:	0000015e 	andeq	r0, r0, lr, asr r1
    1600:	00256102 	eoreq	r6, r5, r2, lsl #2
    1604:	23020000 	movwcs	r0, #8192	; 0x2000
    1608:	02a80548 	adceq	r0, r8, #72, 10	; 0x12000000
    160c:	62020000 	andvs	r0, r2, #0
    1610:	00000025 	andeq	r0, r0, r5, lsr #32
    1614:	054c2302 	strbeq	r2, [ip, #-770]	; 0xfffffcfe
    1618:	00000159 	andeq	r0, r0, r9, asr r1
    161c:	00256302 	eoreq	r6, r5, r2, lsl #6
    1620:	23020000 	movwcs	r0, #8192	; 0x2000
    1624:	016f0550 	cmneq	pc, r0, asr r5	; <UNPREDICTABLE>
    1628:	64020000 	strvs	r0, [r2], #-0
    162c:	00000025 	andeq	r0, r0, r5, lsr #32
    1630:	05542302 	ldrbeq	r2, [r4, #-770]	; 0xfffffcfe
    1634:	00000299 	muleq	r0, r9, r2
    1638:	00256502 	eoreq	r6, r5, r2, lsl #10
    163c:	23020000 	movwcs	r0, #8192	; 0x2000
    1640:	02190558 	andseq	r0, r9, #88, 10	; 0x16000000
    1644:	66020000 	strvs	r0, [r2], -r0
    1648:	00000025 	andeq	r0, r0, r5, lsr #32
    164c:	055c2302 	ldrbeq	r2, [ip, #-770]	; 0xfffffcfe
    1650:	0000023e 	andeq	r0, r0, lr, lsr r2
    1654:	00256702 	eoreq	r6, r5, r2, lsl #14
    1658:	23020000 	movwcs	r0, #8192	; 0x2000
    165c:	01cf0560 	biceq	r0, pc, r0, ror #10
    1660:	68020000 	stmdavs	r2, {}	; <UNPREDICTABLE>
    1664:	00000025 	andeq	r0, r0, r5, lsr #32
    1668:	00642302 	rsbeq	r2, r4, r2, lsl #6
    166c:	00072d06 	andeq	r2, r7, r6, lsl #26
    1670:	2c690200 	sfmcs	f0, 2, [r9], #-0
    1674:	03000000 	movweq	r0, #0
    1678:	216e0268 	cmncs	lr, r8, ror #4
    167c:	04000003 	streq	r0, [r0], #-3
    1680:	0054554f 	subseq	r5, r4, pc, asr #10
    1684:	00256f02 	eoreq	r6, r5, r2, lsl #30
    1688:	23020000 	movwcs	r0, #8192	; 0x2000
    168c:	01b10500 			; <UNDEFINED> instruction: 0x01b10500
    1690:	70020000 	andvc	r0, r2, r0
    1694:	00000025 	andeq	r0, r0, r5, lsr #32
    1698:	05042302 	streq	r2, [r4, #-770]	; 0xfffffcfe
    169c:	000001bd 			; <UNDEFINED> instruction: 0x000001bd
    16a0:	00257102 	eoreq	r7, r5, r2, lsl #2
    16a4:	23020000 	movwcs	r0, #8192	; 0x2000
    16a8:	01c60508 	biceq	r0, r6, r8, lsl #10
    16ac:	72020000 	andvc	r0, r2, #0
    16b0:	00000025 	andeq	r0, r0, r5, lsr #32
    16b4:	050c2302 	streq	r2, [ip, #-770]	; 0xfffffcfe
    16b8:	000002a1 	andeq	r0, r0, r1, lsr #5
    16bc:	00257302 	eoreq	r7, r5, r2, lsl #6
    16c0:	23020000 	movwcs	r0, #8192	; 0x2000
    16c4:	45440410 	strbmi	r0, [r4, #-1040]	; 0xfffffbf0
    16c8:	74020054 	strvc	r0, [r2], #-84	; 0xffffffac
    16cc:	00000025 	andeq	r0, r0, r5, lsr #32
    16d0:	04142302 	ldreq	r2, [r4], #-770	; 0xfffffcfe
    16d4:	00444150 	subeq	r4, r4, r0, asr r1
    16d8:	00257502 	eoreq	r7, r5, r2, lsl #10
    16dc:	23020000 	movwcs	r0, #8192	; 0x2000
    16e0:	025d0518 	subseq	r0, sp, #24, 10	; 0x6000000
    16e4:	76020000 	strvc	r0, [r2], -r0
    16e8:	00000025 	andeq	r0, r0, r5, lsr #32
    16ec:	051c2302 	ldreq	r2, [ip, #-770]	; 0xfffffcfe
    16f0:	000002e0 	andeq	r0, r0, r0, ror #5
    16f4:	00257702 	eoreq	r7, r5, r2, lsl #14
    16f8:	23020000 	movwcs	r0, #8192	; 0x2000
    16fc:	02e70520 	rsceq	r0, r7, #32, 10	; 0x8000000
    1700:	78020000 	stmdavc	r2, {}	; <UNPREDICTABLE>
    1704:	00000025 	andeq	r0, r0, r5, lsr #32
    1708:	05242302 	streq	r2, [r4, #-770]!	; 0xfffffcfe
    170c:	0000028f 	andeq	r0, r0, pc, lsl #5
    1710:	00257902 	eoreq	r7, r5, r2, lsl #18
    1714:	23020000 	movwcs	r0, #8192	; 0x2000
    1718:	02670528 	rsbeq	r0, r7, #40, 10	; 0xa000000
    171c:	7a020000 	bvc	81724 <_start-0x43b7e8dc>
    1720:	00000025 	andeq	r0, r0, r5, lsr #32
    1724:	052c2302 	streq	r2, [ip, #-770]!	; 0xfffffcfe
    1728:	00000271 	andeq	r0, r0, r1, ror r2
    172c:	00257b02 	eoreq	r7, r5, r2, lsl #22
    1730:	23020000 	movwcs	r0, #8192	; 0x2000
    1734:	027b0530 	rsbseq	r0, fp, #48, 10	; 0xc000000
    1738:	7c020000 	stcvc	0, cr0, [r2], {-0}
    173c:	00000025 	andeq	r0, r0, r5, lsr #32
    1740:	05342302 	ldreq	r2, [r4, #-770]!	; 0xfffffcfe
    1744:	00000285 	andeq	r0, r0, r5, lsl #5
    1748:	00257d02 	eoreq	r7, r5, r2, lsl #26
    174c:	23020000 	movwcs	r0, #8192	; 0x2000
    1750:	02ee0538 	rsceq	r0, lr, #56, 10	; 0xe000000
    1754:	7e020000 	cdpvc	0, 0, cr0, cr2, cr0, {0}
    1758:	00000025 	andeq	r0, r0, r5, lsr #32
    175c:	053c2302 	ldreq	r2, [ip, #-770]!	; 0xfffffcfe
    1760:	00000246 	andeq	r0, r0, r6, asr #4
    1764:	00257f02 	eoreq	r7, r5, r2, lsl #30
    1768:	23020000 	movwcs	r0, #8192	; 0x2000
    176c:	01f10540 	mvnseq	r0, r0, asr #10
    1770:	80020000 	andhi	r0, r2, r0
    1774:	00000025 	andeq	r0, r0, r5, lsr #32
    1778:	05442302 	strbeq	r2, [r4, #-770]	; 0xfffffcfe
    177c:	0000015e 	andeq	r0, r0, lr, asr r1
    1780:	00258102 	eoreq	r8, r5, r2, lsl #2
    1784:	23020000 	movwcs	r0, #8192	; 0x2000
    1788:	02a80548 	adceq	r0, r8, #72, 10	; 0x12000000
    178c:	82020000 	andhi	r0, r2, #0
    1790:	00000025 	andeq	r0, r0, r5, lsr #32
    1794:	054c2302 	strbeq	r2, [ip, #-770]	; 0xfffffcfe
    1798:	00000159 	andeq	r0, r0, r9, asr r1
    179c:	00258302 	eoreq	r8, r5, r2, lsl #6
    17a0:	23020000 	movwcs	r0, #8192	; 0x2000
    17a4:	016f0550 	cmneq	pc, r0, asr r5	; <UNPREDICTABLE>
    17a8:	84020000 	strhi	r0, [r2], #-0
    17ac:	00000025 	andeq	r0, r0, r5, lsr #32
    17b0:	05542302 	ldrbeq	r2, [r4, #-770]	; 0xfffffcfe
    17b4:	00000299 	muleq	r0, r9, r2
    17b8:	00258502 	eoreq	r8, r5, r2, lsl #10
    17bc:	23020000 	movwcs	r0, #8192	; 0x2000
    17c0:	02190558 	andseq	r0, r9, #88, 10	; 0x16000000
    17c4:	86020000 	strhi	r0, [r2], -r0
    17c8:	00000025 	andeq	r0, r0, r5, lsr #32
    17cc:	055c2302 	ldrbeq	r2, [ip, #-770]	; 0xfffffcfe
    17d0:	0000023e 	andeq	r0, r0, lr, lsr r2
    17d4:	00258702 	eoreq	r8, r5, r2, lsl #14
    17d8:	23020000 	movwcs	r0, #8192	; 0x2000
    17dc:	01cf0560 	biceq	r0, pc, r0, ror #10
    17e0:	88020000 	stmdahi	r2, {}	; <UNPREDICTABLE>
    17e4:	00000025 	andeq	r0, r0, r5, lsr #32
    17e8:	00642302 	rsbeq	r2, r4, r2, lsl #6
    17ec:	00025706 	andeq	r5, r2, r6, lsl #14
    17f0:	ac890200 	sfmge	f0, 4, [r9], {0}
    17f4:	03000001 	movweq	r0, #1
    17f8:	310c0348 	tstcc	ip, r8, asr #6
    17fc:	05000004 	streq	r0, [r0, #-4]
    1800:	0000069c 	muleq	r0, ip, r6
    1804:	00250d03 	eoreq	r0, r5, r3, lsl #26
    1808:	23020000 	movwcs	r0, #8192	; 0x2000
    180c:	06a20500 	strteq	r0, [r2], r0, lsl #10
    1810:	0e030000 	cdpeq	0, 0, cr0, cr3, cr0, {0}
    1814:	00000025 	andeq	r0, r0, r5, lsr #32
    1818:	05042302 	streq	r2, [r4, #-770]	; 0xfffffcfe
    181c:	000006a8 	andeq	r0, r0, r8, lsr #13
    1820:	00250f03 	eoreq	r0, r5, r3, lsl #30
    1824:	23020000 	movwcs	r0, #8192	; 0x2000
    1828:	06db0508 	ldrbeq	r0, [fp], r8, lsl #10
    182c:	10030000 	andne	r0, r3, r0
    1830:	00000025 	andeq	r0, r0, r5, lsr #32
    1834:	050c2302 	streq	r2, [ip, #-770]	; 0xfffffcfe
    1838:	0000063f 	andeq	r0, r0, pc, lsr r6
    183c:	00251103 	eoreq	r1, r5, r3, lsl #2
    1840:	23020000 	movwcs	r0, #8192	; 0x2000
    1844:	06ad0510 	ssateq	r0, #14, r0, lsl #10
    1848:	12030000 	andne	r0, r3, #0
    184c:	00000025 	andeq	r0, r0, r5, lsr #32
    1850:	05142302 	ldreq	r2, [r4, #-770]	; 0xfffffcfe
    1854:	000006e2 	andeq	r0, r0, r2, ror #13
    1858:	00251303 	eoreq	r1, r5, r3, lsl #6
    185c:	23020000 	movwcs	r0, #8192	; 0x2000
    1860:	06460518 			; <UNDEFINED> instruction: 0x06460518
    1864:	14030000 	strne	r0, [r3], #-0
    1868:	00000025 	andeq	r0, r0, r5, lsr #32
    186c:	051c2302 	ldreq	r2, [ip, #-770]	; 0xfffffcfe
    1870:	000006b4 			; <UNDEFINED> instruction: 0x000006b4
    1874:	00251503 	eoreq	r1, r5, r3, lsl #10
    1878:	23020000 	movwcs	r0, #8192	; 0x2000
    187c:	06e90520 	strbteq	r0, [r9], r0, lsr #10
    1880:	16030000 	strne	r0, [r3], -r0
    1884:	00000025 	andeq	r0, r0, r5, lsr #32
    1888:	05242302 	streq	r2, [r4, #-770]!	; 0xfffffcfe
    188c:	0000064d 	andeq	r0, r0, sp, asr #12
    1890:	00251703 	eoreq	r1, r5, r3, lsl #14
    1894:	23020000 	movwcs	r0, #8192	; 0x2000
    1898:	06bb0528 	ldrteq	r0, [fp], r8, lsr #10
    189c:	18030000 	stmdane	r3, {}	; <UNPREDICTABLE>
    18a0:	00000025 	andeq	r0, r0, r5, lsr #32
    18a4:	052c2302 	streq	r2, [ip, #-770]!	; 0xfffffcfe
    18a8:	000006f0 	strdeq	r0, [r0], -r0	; <UNPREDICTABLE>
    18ac:	00251903 	eoreq	r1, r5, r3, lsl #18
    18b0:	23020000 	movwcs	r0, #8192	; 0x2000
    18b4:	06540530 			; <UNDEFINED> instruction: 0x06540530
    18b8:	1a030000 	bne	c18c0 <_start-0x43b3e740>
    18bc:	00000025 	andeq	r0, r0, r5, lsr #32
    18c0:	05342302 	ldreq	r2, [r4, #-770]!	; 0xfffffcfe
    18c4:	000006c2 	andeq	r0, r0, r2, asr #13
    18c8:	00251b03 	eoreq	r1, r5, r3, lsl #22
    18cc:	23020000 	movwcs	r0, #8192	; 0x2000
    18d0:	06f70538 			; <UNDEFINED> instruction: 0x06f70538
    18d4:	1c030000 	stcne	0, cr0, [r3], {-0}
    18d8:	00000025 	andeq	r0, r0, r5, lsr #32
    18dc:	053c2302 	ldreq	r2, [ip, #-770]!	; 0xfffffcfe
    18e0:	000006c9 	andeq	r0, r0, r9, asr #13
    18e4:	00251d03 	eoreq	r1, r5, r3, lsl #26
    18e8:	23020000 	movwcs	r0, #8192	; 0x2000
    18ec:	06d00540 	ldrbeq	r0, [r0], r0, asr #10
    18f0:	1e030000 	cdpne	0, 0, cr0, cr3, cr0, {0}
    18f4:	00000025 	andeq	r0, r0, r5, lsr #32
    18f8:	00442302 	subeq	r2, r4, r2, lsl #6
    18fc:	6d777007 	ldclvs	0, cr7, [r7, #-28]!	; 0xffffffe4
    1900:	2c1f0300 	ldccs	3, cr0, [pc], {-0}
    1904:	08000003 	stmdaeq	r0, {r0, r1}
    1908:	00070a01 	andeq	r0, r7, r1, lsl #20
    190c:	01030100 	tsteq	r3, r0, lsl #2
    1910:	43c027c4 	bicmi	r2, r0, #196, 14	; 0x3100000
    1914:	43c0291c 	bicmi	r2, r0, #28, 18	; 0x70000
    1918:	000004e8 	andeq	r0, r0, r8, ror #9
    191c:	00000472 	andeq	r0, r0, r2, ror r4
    1920:	00072309 	andeq	r2, r7, r9, lsl #6
    1924:	25030100 	strcs	r0, [r3, #-256]	; 0xffffff00
    1928:	02000000 	andeq	r0, r0, #0
    192c:	3f097491 	svccc	0x00097491
    1930:	01000007 	tsteq	r0, r7
    1934:	00002503 	andeq	r2, r0, r3, lsl #10
    1938:	70910200 	addsvc	r0, r1, r0, lsl #4
    193c:	fe010800 	cdp2	8, 0, cr0, cr1, cr0, {0}
    1940:	01000006 	tsteq	r0, r6
    1944:	291c0129 	ldmdbcs	ip, {r0, r3, r5, r8}
    1948:	2a7043c0 	bcs	1c12850 <_start-0x41fed7b0>
    194c:	051443c0 	ldreq	r4, [r4, #-960]	; 0xfffffc40
    1950:	04a80000 	strteq	r0, [r8], #0
    1954:	23090000 	movwcs	r0, #36864	; 0x9000
    1958:	01000007 	tsteq	r0, r7
    195c:	00002529 	andeq	r2, r0, r9, lsr #10
    1960:	74910200 	ldrvc	r0, [r1], #512	; 0x200
    1964:	00073f09 	andeq	r3, r7, r9, lsl #30
    1968:	25290100 	strcs	r0, [r9, #-256]!	; 0xffffff00
    196c:	02000000 	andeq	r0, r0, #0
    1970:	08007091 	stmdaeq	r0, {r0, r4, r7, ip, sp, lr}
    1974:	00073301 	andeq	r3, r7, r1, lsl #6
    1978:	01510100 	cmpeq	r1, r0, lsl #2
    197c:	43c02a70 	bicmi	r2, r0, #112, 20	; 0x70000
    1980:	43c02bc0 	bicmi	r2, r0, #192, 22	; 0x30000
    1984:	00000540 	andeq	r0, r0, r0, asr #10
    1988:	000004de 	ldrdeq	r0, [r0], -lr
    198c:	00072309 	andeq	r2, r7, r9, lsl #6
    1990:	25510100 	ldrbcs	r0, [r1, #-256]	; 0xffffff00
    1994:	02000000 	andeq	r0, r0, #0
    1998:	3f097491 	svccc	0x00097491
    199c:	01000007 	tsteq	r0, r7
    19a0:	00002551 	andeq	r2, r0, r1, asr r5
    19a4:	70910200 	addsvc	r0, r1, r0, lsl #4
    19a8:	46010a00 	strmi	r0, [r1], -r0, lsl #20
    19ac:	01000007 	tsteq	r0, r7
    19b0:	c02bc07b 	eorgt	ip, fp, fp, ror r0
    19b4:	c02c0043 	eorgt	r0, ip, r3, asr #32
    19b8:	00056c43 	andeq	r6, r5, r3, asr #24
    19bc:	06c50000 	strbeq	r0, [r5], r0
    19c0:	00020000 	andeq	r0, r2, r0
    19c4:	0000057a 	andeq	r0, r0, sl, ror r5
    19c8:	01330104 	teqeq	r3, r4, lsl #2
    19cc:	35010000 	strcc	r0, [r1, #-0]
    19d0:	38000009 	stmdacc	r0, {r0, r3}
    19d4:	00000000 	andeq	r0, r0, r0
    19d8:	a043c02c 	subge	ip, r3, ip, lsr #32
    19dc:	0343c02f 	movteq	ip, #12335	; 0x302f
    19e0:	02000008 	andeq	r0, r0, #8
    19e4:	00740704 	rsbseq	r0, r4, r4, lsl #14
    19e8:	68030000 	stmdavs	r3, {}	; <UNPREDICTABLE>
    19ec:	01a12e02 			; <UNDEFINED> instruction: 0x01a12e02
    19f0:	4f040000 	svcmi	0x00040000
    19f4:	02005455 	andeq	r5, r0, #1426063360	; 0x55000000
    19f8:	0000252f 	andeq	r2, r0, pc, lsr #10
    19fc:	00230200 	eoreq	r0, r3, r0, lsl #4
    1a00:	0001b105 	andeq	fp, r1, r5, lsl #2
    1a04:	25300200 	ldrcs	r0, [r0, #-512]!	; 0xfffffe00
    1a08:	02000000 	andeq	r0, r0, #0
    1a0c:	bd050423 	cfstrslt	mvf0, [r5, #-140]	; 0xffffff74
    1a10:	02000001 	andeq	r0, r0, #1
    1a14:	00002531 	andeq	r2, r0, r1, lsr r5
    1a18:	08230200 	stmdaeq	r3!, {r9}
    1a1c:	0001c605 	andeq	ip, r1, r5, lsl #12
    1a20:	25320200 	ldrcs	r0, [r2, #-512]!	; 0xfffffe00
    1a24:	02000000 	andeq	r0, r0, #0
    1a28:	a1050c23 	tstge	r5, r3, lsr #24
    1a2c:	02000002 	andeq	r0, r0, #2
    1a30:	00002533 	andeq	r2, r0, r3, lsr r5
    1a34:	10230200 	eorne	r0, r3, r0, lsl #4
    1a38:	54454404 	strbpl	r4, [r5], #-1028	; 0xfffffbfc
    1a3c:	25340200 	ldrcs	r0, [r4, #-512]!	; 0xfffffe00
    1a40:	02000000 	andeq	r0, r0, #0
    1a44:	50041423 	andpl	r1, r4, r3, lsr #8
    1a48:	02004441 	andeq	r4, r0, #1090519040	; 0x41000000
    1a4c:	00002535 	andeq	r2, r0, r5, lsr r5
    1a50:	18230200 	stmdane	r3!, {r9}
    1a54:	00025d05 	andeq	r5, r2, r5, lsl #26
    1a58:	25360200 	ldrcs	r0, [r6, #-512]!	; 0xfffffe00
    1a5c:	02000000 	andeq	r0, r0, #0
    1a60:	e0051c23 	and	r1, r5, r3, lsr #24
    1a64:	02000002 	andeq	r0, r0, #2
    1a68:	00002537 	andeq	r2, r0, r7, lsr r5
    1a6c:	20230200 	eorcs	r0, r3, r0, lsl #4
    1a70:	0002e705 	andeq	lr, r2, r5, lsl #14
    1a74:	25380200 	ldrcs	r0, [r8, #-512]!	; 0xfffffe00
    1a78:	02000000 	andeq	r0, r0, #0
    1a7c:	8f052423 	svchi	0x00052423
    1a80:	02000002 	andeq	r0, r0, #2
    1a84:	00002539 	andeq	r2, r0, r9, lsr r5
    1a88:	28230200 	stmdacs	r3!, {r9}
    1a8c:	00026705 	andeq	r6, r2, r5, lsl #14
    1a90:	253a0200 	ldrcs	r0, [sl, #-512]!	; 0xfffffe00
    1a94:	02000000 	andeq	r0, r0, #0
    1a98:	71052c23 	tstvc	r5, r3, lsr #24
    1a9c:	02000002 	andeq	r0, r0, #2
    1aa0:	0000253b 	andeq	r2, r0, fp, lsr r5
    1aa4:	30230200 	eorcc	r0, r3, r0, lsl #4
    1aa8:	00027b05 	andeq	r7, r2, r5, lsl #22
    1aac:	253c0200 	ldrcs	r0, [ip, #-512]!	; 0xfffffe00
    1ab0:	02000000 	andeq	r0, r0, #0
    1ab4:	85053423 	strhi	r3, [r5, #-1059]	; 0xfffffbdd
    1ab8:	02000002 	andeq	r0, r0, #2
    1abc:	0000253d 	andeq	r2, r0, sp, lsr r5
    1ac0:	38230200 	stmdacc	r3!, {r9}
    1ac4:	0002ee05 	andeq	lr, r2, r5, lsl #28
    1ac8:	253e0200 	ldrcs	r0, [lr, #-512]!	; 0xfffffe00
    1acc:	02000000 	andeq	r0, r0, #0
    1ad0:	46053c23 	strmi	r3, [r5], -r3, lsr #24
    1ad4:	02000002 	andeq	r0, r0, #2
    1ad8:	0000253f 	andeq	r2, r0, pc, lsr r5
    1adc:	40230200 	eormi	r0, r3, r0, lsl #4
    1ae0:	0001f105 	andeq	pc, r1, r5, lsl #2
    1ae4:	25400200 	strbcs	r0, [r0, #-512]	; 0xfffffe00
    1ae8:	02000000 	andeq	r0, r0, #0
    1aec:	5e054423 	cdppl	4, 0, cr4, cr5, cr3, {1}
    1af0:	02000001 	andeq	r0, r0, #1
    1af4:	00002541 	andeq	r2, r0, r1, asr #10
    1af8:	48230200 	stmdami	r3!, {r9}
    1afc:	0002a805 	andeq	sl, r2, r5, lsl #16
    1b00:	25420200 	strbcs	r0, [r2, #-512]	; 0xfffffe00
    1b04:	02000000 	andeq	r0, r0, #0
    1b08:	59054c23 	stmdbpl	r5, {r0, r1, r5, sl, fp, lr}
    1b0c:	02000001 	andeq	r0, r0, #1
    1b10:	00002543 	andeq	r2, r0, r3, asr #10
    1b14:	50230200 	eorpl	r0, r3, r0, lsl #4
    1b18:	00016f05 	andeq	r6, r1, r5, lsl #30
    1b1c:	25440200 	strbcs	r0, [r4, #-512]	; 0xfffffe00
    1b20:	02000000 	andeq	r0, r0, #0
    1b24:	99055423 	stmdbls	r5, {r0, r1, r5, sl, ip, lr}
    1b28:	02000002 	andeq	r0, r0, #2
    1b2c:	00002545 	andeq	r2, r0, r5, asr #10
    1b30:	58230200 	stmdapl	r3!, {r9}
    1b34:	00021905 	andeq	r1, r2, r5, lsl #18
    1b38:	25460200 	strbcs	r0, [r6, #-512]	; 0xfffffe00
    1b3c:	02000000 	andeq	r0, r0, #0
    1b40:	3e055c23 	cdpcc	12, 0, cr5, cr5, cr3, {1}
    1b44:	02000002 	andeq	r0, r0, #2
    1b48:	00002547 	andeq	r2, r0, r7, asr #10
    1b4c:	60230200 	eorvs	r0, r3, r0, lsl #4
    1b50:	0001cf05 	andeq	ip, r1, r5, lsl #30
    1b54:	25480200 	strbcs	r0, [r8, #-512]	; 0xfffffe00
    1b58:	02000000 	andeq	r0, r0, #0
    1b5c:	06006423 	streq	r6, [r0], -r3, lsr #8
    1b60:	0000068e 	andeq	r0, r0, lr, lsl #13
    1b64:	002c4902 	eoreq	r4, ip, r2, lsl #18
    1b68:	14030000 	strne	r0, [r3], #-0
    1b6c:	01fb1703 	mvnseq	r1, r3, lsl #14
    1b70:	52050000 	andpl	r0, r5, #0
    1b74:	03000007 	movweq	r0, #7
    1b78:	00002518 	andeq	r2, r0, r8, lsl r5
    1b7c:	00230200 	eoreq	r0, r3, r0, lsl #4
    1b80:	00075d05 	andeq	r5, r7, r5, lsl #26
    1b84:	25190300 	ldrcs	r0, [r9, #-768]	; 0xfffffd00
    1b88:	02000000 	andeq	r0, r0, #0
    1b8c:	68050423 	stmdavs	r5, {r0, r1, r5, sl}
    1b90:	03000007 	movweq	r0, #7
    1b94:	0000251a 	andeq	r2, r0, sl, lsl r5
    1b98:	08230200 	stmdaeq	r3!, {r9}
    1b9c:	000b7005 	andeq	r7, fp, r5
    1ba0:	251b0300 	ldrcs	r0, [fp, #-768]	; 0xfffffd00
    1ba4:	02000000 	andeq	r0, r0, #0
    1ba8:	73050c23 	movwvc	r0, #23587	; 0x5c23
    1bac:	03000007 	movweq	r0, #7
    1bb0:	0000251c 	andeq	r2, r0, ip, lsl r5
    1bb4:	10230200 	eorne	r0, r3, r0, lsl #4
    1bb8:	09880600 	stmibeq	r8, {r9, sl}
    1bbc:	1d030000 	stcne	0, cr0, [r3, #-0]
    1bc0:	000001ac 	andeq	r0, r0, ip, lsr #3
    1bc4:	5903a003 	stmdbpl	r3, {r0, r1, sp, pc}
    1bc8:	00000447 	andeq	r0, r0, r7, asr #8
    1bcc:	0007f605 	andeq	pc, r7, r5, lsl #12
    1bd0:	255a0300 	ldrbcs	r0, [sl, #-768]	; 0xfffffd00
    1bd4:	02000000 	andeq	r0, r0, #0
    1bd8:	02050023 	andeq	r0, r5, #35	; 0x23
    1bdc:	03000008 	movweq	r0, #8
    1be0:	0000255b 	andeq	r2, r0, fp, asr r5
    1be4:	04230200 	strteq	r0, [r3], #-512	; 0xfffffe00
    1be8:	00080e05 	andeq	r0, r8, r5, lsl #28
    1bec:	255c0300 	ldrbcs	r0, [ip, #-768]	; 0xfffffd00
    1bf0:	02000000 	andeq	r0, r0, #0
    1bf4:	1a050823 	bne	143c88 <_start-0x43abc378>
    1bf8:	03000008 	movweq	r0, #8
    1bfc:	0000255d 	andeq	r2, r0, sp, asr r5
    1c00:	0c230200 	sfmeq	f0, 4, [r3], #-0
    1c04:	00082605 	andeq	r2, r8, r5, lsl #12
    1c08:	255e0300 	ldrbcs	r0, [lr, #-768]	; 0xfffffd00
    1c0c:	02000000 	andeq	r0, r0, #0
    1c10:	32051023 	andcc	r1, r5, #35	; 0x23
    1c14:	03000008 	movweq	r0, #8
    1c18:	0000255f 	andeq	r2, r0, pc, asr r5
    1c1c:	14230200 	strtne	r0, [r3], #-512	; 0xfffffe00
    1c20:	00093f05 	andeq	r3, r9, r5, lsl #30
    1c24:	25600300 	strbcs	r0, [r0, #-768]!	; 0xfffffd00
    1c28:	02000000 	andeq	r0, r0, #0
    1c2c:	4b051823 	blmi	147cc0 <_start-0x43ab8340>
    1c30:	03000009 	movweq	r0, #9
    1c34:	00002561 	andeq	r2, r0, r1, ror #10
    1c38:	1c230200 	sfmne	f0, 4, [r3], #-0
    1c3c:	00095705 	andeq	r5, r9, r5, lsl #14
    1c40:	25620300 	strbcs	r0, [r2, #-768]!	; 0xfffffd00
    1c44:	02000000 	andeq	r0, r0, #0
    1c48:	70052023 	andvc	r2, r5, r3, lsr #32
    1c4c:	03000009 	movweq	r0, #9
    1c50:	00002563 	andeq	r2, r0, r3, ror #10
    1c54:	24230200 	strtcs	r0, [r3], #-512	; 0xfffffe00
    1c58:	00099705 	andeq	r9, r9, r5, lsl #14
    1c5c:	25640300 	strbcs	r0, [r4, #-768]!	; 0xfffffd00
    1c60:	02000000 	andeq	r0, r0, #0
    1c64:	a4052823 	strge	r2, [r5], #-2083	; 0xfffff7dd
    1c68:	03000009 	movweq	r0, #9
    1c6c:	00002565 	andeq	r2, r0, r5, ror #10
    1c70:	2c230200 	sfmcs	f0, 4, [r3], #-0
    1c74:	0009b105 	andeq	fp, r9, r5, lsl #2
    1c78:	25660300 	strbcs	r0, [r6, #-768]!	; 0xfffffd00
    1c7c:	02000000 	andeq	r0, r0, #0
    1c80:	be053023 	cdplt	0, 0, cr3, cr5, cr3, {1}
    1c84:	03000009 	movweq	r0, #9
    1c88:	00002567 	andeq	r2, r0, r7, ror #10
    1c8c:	34230200 	strtcc	r0, [r3], #-512	; 0xfffffe00
    1c90:	0009cb05 	andeq	ip, r9, r5, lsl #22
    1c94:	25680300 	strbcs	r0, [r8, #-768]!	; 0xfffffd00
    1c98:	02000000 	andeq	r0, r0, #0
    1c9c:	d8053823 	stmdale	r5, {r0, r1, r5, fp, ip, sp}
    1ca0:	03000009 	movweq	r0, #9
    1ca4:	00002569 	andeq	r2, r0, r9, ror #10
    1ca8:	3c230200 	sfmcc	f0, 4, [r3], #-0
    1cac:	0009e505 	andeq	lr, r9, r5, lsl #10
    1cb0:	256a0300 	strbcs	r0, [sl, #-768]!	; 0xfffffd00
    1cb4:	02000000 	andeq	r0, r0, #0
    1cb8:	f2054023 	vhadd.s8	d4, d5, d19
    1cbc:	03000009 	movweq	r0, #9
    1cc0:	0000256b 	andeq	r2, r0, fp, ror #10
    1cc4:	44230200 	strtmi	r0, [r3], #-512	; 0xfffffe00
    1cc8:	0009ff05 	andeq	pc, r9, r5, lsl #30
    1ccc:	256c0300 	strbcs	r0, [ip, #-768]!	; 0xfffffd00
    1cd0:	02000000 	andeq	r0, r0, #0
    1cd4:	0c054823 	stceq	8, cr4, [r5], {35}	; 0x23
    1cd8:	0300000a 	movweq	r0, #10
    1cdc:	0000256d 	andeq	r2, r0, sp, ror #10
    1ce0:	4c230200 	sfmmi	f0, 4, [r3], #-0
    1ce4:	000a4005 	andeq	r4, sl, r5
    1ce8:	256e0300 	strbcs	r0, [lr, #-768]!	; 0xfffffd00
    1cec:	02000000 	andeq	r0, r0, #0
    1cf0:	4d055023 	stcmi	0, cr5, [r5, #-140]	; 0xffffff74
    1cf4:	0300000a 	movweq	r0, #10
    1cf8:	0000256f 	andeq	r2, r0, pc, ror #10
    1cfc:	54230200 	strtpl	r0, [r3], #-512	; 0xfffffe00
    1d00:	000a5a05 	andeq	r5, sl, r5, lsl #20
    1d04:	25700300 	ldrbcs	r0, [r0, #-768]!	; 0xfffffd00
    1d08:	02000000 	andeq	r0, r0, #0
    1d0c:	67055823 	strvs	r5, [r5, -r3, lsr #16]
    1d10:	0300000a 	movweq	r0, #10
    1d14:	00002571 	andeq	r2, r0, r1, ror r5
    1d18:	5c230200 	sfmpl	f0, 4, [r3], #-0
    1d1c:	000a7405 	andeq	r7, sl, r5, lsl #8
    1d20:	25720300 	ldrbcs	r0, [r2, #-768]!	; 0xfffffd00
    1d24:	02000000 	andeq	r0, r0, #0
    1d28:	81056023 	tsthi	r5, r3, lsr #32
    1d2c:	0300000a 	movweq	r0, #10
    1d30:	00002573 	andeq	r2, r0, r3, ror r5
    1d34:	64230200 	strtvs	r0, [r3], #-512	; 0xfffffe00
    1d38:	000a8e05 	andeq	r8, sl, r5, lsl #28
    1d3c:	25740300 	ldrbcs	r0, [r4, #-768]!	; 0xfffffd00
    1d40:	02000000 	andeq	r0, r0, #0
    1d44:	9b056823 	blls	15bdd8 <_start-0x43aa4228>
    1d48:	0300000a 	movweq	r0, #10
    1d4c:	00002575 	andeq	r2, r0, r5, ror r5
    1d50:	6c230200 	sfmvs	f0, 4, [r3], #-0
    1d54:	000aa805 	andeq	sl, sl, r5, lsl #16
    1d58:	25760300 	ldrbcs	r0, [r6, #-768]!	; 0xfffffd00
    1d5c:	02000000 	andeq	r0, r0, #0
    1d60:	b5057023 	strlt	r7, [r5, #-35]	; 0xffffffdd
    1d64:	0300000a 	movweq	r0, #10
    1d68:	00002577 	andeq	r2, r0, r7, ror r5
    1d6c:	74230200 	strtvc	r0, [r3], #-512	; 0xfffffe00
    1d70:	000b2205 	andeq	r2, fp, r5, lsl #4
    1d74:	25780300 	ldrbcs	r0, [r8, #-768]!	; 0xfffffd00
    1d78:	02000000 	andeq	r0, r0, #0
    1d7c:	2f057823 	svccs	0x00057823
    1d80:	0300000b 	movweq	r0, #11
    1d84:	00002579 	andeq	r2, r0, r9, ror r5
    1d88:	7c230200 	sfmvc	f0, 4, [r3], #-0
    1d8c:	000b3c05 	andeq	r3, fp, r5, lsl #24
    1d90:	257a0300 	ldrbcs	r0, [sl, #-768]!	; 0xfffffd00
    1d94:	03000000 	movweq	r0, #0
    1d98:	05018023 	streq	r8, [r1, #-35]	; 0xffffffdd
    1d9c:	00000b49 	andeq	r0, r0, r9, asr #22
    1da0:	00257b03 	eoreq	r7, r5, r3, lsl #22
    1da4:	23030000 	movwcs	r0, #12288	; 0x3000
    1da8:	56050184 	strpl	r0, [r5], -r4, lsl #3
    1dac:	0300000b 	movweq	r0, #11
    1db0:	0000257c 	andeq	r2, r0, ip, ror r5
    1db4:	88230300 	stmdahi	r3!, {r8, r9}
    1db8:	0b630501 	bleq	18c31c4 <_start-0x4233ce3c>
    1dbc:	7d030000 	stcvc	0, cr0, [r3, #-0]
    1dc0:	00000025 	andeq	r0, r0, r5, lsr #32
    1dc4:	018c2303 	orreq	r2, ip, r3, lsl #6
    1dc8:	00092805 	andeq	r2, r9, r5, lsl #16
    1dcc:	257e0300 	ldrbcs	r0, [lr, #-768]!	; 0xfffffd00
    1dd0:	03000000 	movweq	r0, #0
    1dd4:	05019023 	streq	r9, [r1, #-35]	; 0xffffffdd
    1dd8:	00000b7b 	andeq	r0, r0, fp, ror fp
    1ddc:	00257f03 	eoreq	r7, r5, r3, lsl #30
    1de0:	23030000 	movwcs	r0, #12288	; 0x3000
    1de4:	88050194 	stmdahi	r5, {r2, r4, r7, r8}
    1de8:	0300000b 	movweq	r0, #11
    1dec:	00002580 	andeq	r2, r0, r0, lsl #11
    1df0:	98230300 	stmdals	r3!, {r8, r9}
    1df4:	0b950501 	bleq	fe543200 <__bss_end__+0xba93ea04>
    1df8:	81030000 	tsthi	r3, r0
    1dfc:	00000025 	andeq	r0, r0, r5, lsr #32
    1e00:	019c2303 	orrseq	r2, ip, r3, lsl #6
    1e04:	083e0600 	ldmdaeq	lr!, {r9, sl}
    1e08:	82030000 	andhi	r0, r3, #0
    1e0c:	00000206 	andeq	r0, r0, r6, lsl #4
    1e10:	8703a003 	strhi	sl, [r3, -r3]
    1e14:	00000693 	muleq	r0, r3, r6
    1e18:	0008ba05 	andeq	fp, r8, r5, lsl #20
    1e1c:	25880300 	strcs	r0, [r8, #768]	; 0x300
    1e20:	02000000 	andeq	r0, r0, #0
    1e24:	c5050023 	strgt	r0, [r5, #-35]	; 0xffffffdd
    1e28:	03000008 	movweq	r0, #8
    1e2c:	00002589 	andeq	r2, r0, r9, lsl #11
    1e30:	04230200 	strteq	r0, [r3], #-512	; 0xfffffe00
    1e34:	0008d005 	andeq	sp, r8, r5
    1e38:	258a0300 	strcs	r0, [sl, #768]	; 0x300
    1e3c:	02000000 	andeq	r0, r0, #0
    1e40:	db050823 	blle	143ed4 <_start-0x43abc12c>
    1e44:	03000008 	movweq	r0, #8
    1e48:	0000258b 	andeq	r2, r0, fp, lsl #11
    1e4c:	0c230200 	sfmeq	f0, 4, [r3], #-0
    1e50:	0008e605 	andeq	lr, r8, r5, lsl #12
    1e54:	258c0300 	strcs	r0, [ip, #768]	; 0x300
    1e58:	02000000 	andeq	r0, r0, #0
    1e5c:	f1051023 			; <UNDEFINED> instruction: 0xf1051023
    1e60:	03000008 	movweq	r0, #8
    1e64:	0000258d 	andeq	r2, r0, sp, lsl #11
    1e68:	14230200 	strtne	r0, [r3], #-512	; 0xfffffe00
    1e6c:	0008fc05 	andeq	pc, r8, r5, lsl #24
    1e70:	258e0300 	strcs	r0, [lr, #768]	; 0x300
    1e74:	02000000 	andeq	r0, r0, #0
    1e78:	07051823 	streq	r1, [r5, -r3, lsr #16]
    1e7c:	03000009 	movweq	r0, #9
    1e80:	0000258f 	andeq	r2, r0, pc, lsl #11
    1e84:	1c230200 	sfmne	f0, 4, [r3], #-0
    1e88:	00091205 	andeq	r1, r9, r5, lsl #4
    1e8c:	25900300 	ldrcs	r0, [r0, #768]	; 0x300
    1e90:	02000000 	andeq	r0, r0, #0
    1e94:	1d052023 	stcne	0, cr2, [r5, #-140]	; 0xffffff74
    1e98:	03000009 	movweq	r0, #9
    1e9c:	00002591 	muleq	r0, r1, r5
    1ea0:	24230200 	strtcs	r0, [r3], #-512	; 0xfffffe00
    1ea4:	000ada05 	andeq	sp, sl, r5, lsl #20
    1ea8:	25920300 	ldrcs	r0, [r2, #768]	; 0x300
    1eac:	02000000 	andeq	r0, r0, #0
    1eb0:	c2052823 	andgt	r2, r5, #2293760	; 0x230000
    1eb4:	0300000a 	movweq	r0, #10
    1eb8:	00002593 	muleq	r0, r3, r5
    1ebc:	2c230200 	sfmcs	f0, 4, [r3], #-0
    1ec0:	000ae605 	andeq	lr, sl, r5, lsl #12
    1ec4:	25940300 	ldrcs	r0, [r4, #768]	; 0x300
    1ec8:	02000000 	andeq	r0, r0, #0
    1ecc:	f2053023 	vhadd.s8	d3, d5, d19
    1ed0:	0300000a 	movweq	r0, #10
    1ed4:	00002595 	muleq	r0, r5, r5
    1ed8:	34230200 	strtcc	r0, [r3], #-512	; 0xfffffe00
    1edc:	000afe05 	andeq	pc, sl, r5, lsl #28
    1ee0:	25960300 	ldrcs	r0, [r6, #768]	; 0x300
    1ee4:	02000000 	andeq	r0, r0, #0
    1ee8:	0a053823 	beq	14ff7c <_start-0x43ab0084>
    1eec:	0300000b 	movweq	r0, #11
    1ef0:	00002597 	muleq	r0, r7, r5
    1ef4:	3c230200 	sfmcc	f0, 4, [r3], #-0
    1ef8:	000ace05 	andeq	ip, sl, r5, lsl #28
    1efc:	25980300 	ldrcs	r0, [r8, #768]	; 0x300
    1f00:	02000000 	andeq	r0, r0, #0
    1f04:	16054023 	strne	r4, [r5], -r3, lsr #32
    1f08:	0300000b 	movweq	r0, #11
    1f0c:	00002599 	muleq	r0, r9, r5
    1f10:	44230200 	strtmi	r0, [r3], #-512	; 0xfffffe00
    1f14:	000ba205 	andeq	sl, fp, r5, lsl #4
    1f18:	259a0300 	ldrcs	r0, [sl, #768]	; 0x300
    1f1c:	02000000 	andeq	r0, r0, #0
    1f20:	ae054823 	cdpge	8, 0, cr4, cr5, cr3, {1}
    1f24:	0300000b 	movweq	r0, #11
    1f28:	0000259b 	muleq	r0, fp, r5
    1f2c:	4c230200 	sfmmi	f0, 4, [r3], #-0
    1f30:	00077e05 	andeq	r7, r7, r5, lsl #28
    1f34:	259c0300 	ldrcs	r0, [ip, #768]	; 0x300
    1f38:	02000000 	andeq	r0, r0, #0
    1f3c:	8a055023 	bhi	155fd0 <_start-0x43aaa030>
    1f40:	03000007 	movweq	r0, #7
    1f44:	0000259d 	muleq	r0, sp, r5
    1f48:	54230200 	strtpl	r0, [r3], #-512	; 0xfffffe00
    1f4c:	00079605 	andeq	r9, r7, r5, lsl #12
    1f50:	259e0300 	ldrcs	r0, [lr, #768]	; 0x300
    1f54:	02000000 	andeq	r0, r0, #0
    1f58:	a2055823 	andge	r5, r5, #2293760	; 0x230000
    1f5c:	03000007 	movweq	r0, #7
    1f60:	0000259f 	muleq	r0, pc, r5	; <UNPREDICTABLE>
    1f64:	5c230200 	sfmpl	f0, 4, [r3], #-0
    1f68:	0007ae05 	andeq	sl, r7, r5, lsl #28
    1f6c:	25a00300 	strcs	r0, [r0, #768]!	; 0x300
    1f70:	02000000 	andeq	r0, r0, #0
    1f74:	ba056023 	blt	15a008 <_start-0x43aa5ff8>
    1f78:	03000007 	movweq	r0, #7
    1f7c:	000025a1 	andeq	r2, r0, r1, lsr #11
    1f80:	64230200 	strtvs	r0, [r3], #-512	; 0xfffffe00
    1f84:	0007c605 	andeq	ip, r7, r5, lsl #12
    1f88:	25a20300 	strcs	r0, [r2, #768]!	; 0x300
    1f8c:	02000000 	andeq	r0, r0, #0
    1f90:	d2056823 	andle	r6, r5, #2293760	; 0x230000
    1f94:	03000007 	movweq	r0, #7
    1f98:	000025a3 	andeq	r2, r0, r3, lsr #11
    1f9c:	6c230200 	sfmvs	f0, 4, [r3], #-0
    1fa0:	0007de05 	andeq	sp, r7, r5, lsl #28
    1fa4:	25a40300 	strcs	r0, [r4, #768]!	; 0x300
    1fa8:	02000000 	andeq	r0, r0, #0
    1fac:	ea057023 	b	15e040 <_start-0x43aa1fc0>
    1fb0:	03000007 	movweq	r0, #7
    1fb4:	000025a5 	andeq	r2, r0, r5, lsr #11
    1fb8:	74230200 	strtvc	r0, [r3], #-512	; 0xfffffe00
    1fbc:	00084e05 	andeq	r4, r8, r5, lsl #28
    1fc0:	25a60300 	strcs	r0, [r6, #768]!	; 0x300
    1fc4:	02000000 	andeq	r0, r0, #0
    1fc8:	5a057823 	bpl	16005c <_start-0x43a9ffa4>
    1fcc:	03000008 	movweq	r0, #8
    1fd0:	000025a7 	andeq	r2, r0, r7, lsr #11
    1fd4:	7c230200 	sfmvc	f0, 4, [r3], #-0
    1fd8:	00086605 	andeq	r6, r8, r5, lsl #12
    1fdc:	25a80300 	strcs	r0, [r8, #768]!	; 0x300
    1fe0:	03000000 	movweq	r0, #0
    1fe4:	05018023 	streq	r8, [r1, #-35]	; 0xffffffdd
    1fe8:	00000872 	andeq	r0, r0, r2, ror r8
    1fec:	0025a903 	eoreq	sl, r5, r3, lsl #18
    1ff0:	23030000 	movwcs	r0, #12288	; 0x3000
    1ff4:	7e050184 	adfvcd	f0, f5, f4
    1ff8:	03000008 	movweq	r0, #8
    1ffc:	000025aa 	andeq	r2, r0, sl, lsr #11
    2000:	88230300 	stmdahi	r3!, {r8, r9}
    2004:	088a0501 	stmeq	sl, {r0, r8, sl}
    2008:	ab030000 	blge	c2010 <_start-0x43b3dff0>
    200c:	00000025 	andeq	r0, r0, r5, lsr #32
    2010:	018c2303 	orreq	r2, ip, r3, lsl #6
    2014:	00089605 	andeq	r9, r8, r5, lsl #12
    2018:	25ac0300 	strcs	r0, [ip, #768]!	; 0x300
    201c:	03000000 	movweq	r0, #0
    2020:	05019023 	streq	r9, [r1, #-35]	; 0xffffffdd
    2024:	0000097c 	andeq	r0, r0, ip, ror r9
    2028:	0025ad03 	eoreq	sl, r5, r3, lsl #26
    202c:	23030000 	movwcs	r0, #12288	; 0x3000
    2030:	a2050194 	andge	r0, r5, #148, 2	; 0x25
    2034:	03000008 	movweq	r0, #8
    2038:	000025ae 	andeq	r2, r0, lr, lsr #11
    203c:	98230300 	stmdals	r3!, {r8, r9}
    2040:	08ae0501 	stmiaeq	lr!, {r0, r8, sl}
    2044:	af030000 	svcge	0x00030000
    2048:	00000025 	andeq	r0, r0, r5, lsr #32
    204c:	019c2303 	orrseq	r2, ip, r3, lsl #6
    2050:	0a190600 	beq	643858 <_start-0x435bc7a8>
    2054:	b0030000 	andlt	r0, r3, r0
    2058:	00000452 	andeq	r0, r0, r2, asr r4
    205c:	0a280107 	beq	a02480 <_start-0x431fdb80>
    2060:	02010000 	andeq	r0, r1, #0
    2064:	c02c0001 	eorgt	r0, ip, r1
    2068:	c02d4443 	eorgt	r4, sp, r3, asr #8
    206c:	00059843 	andeq	r9, r5, r3, asr #16
    2070:	63010700 	movwvs	r0, #5888	; 0x1700
    2074:	01000009 	tsteq	r0, r9
    2078:	2d440124 	stfcse	f0, [r4, #-144]	; 0xffffff70
    207c:	2fa043c0 	svccs	0x00a043c0
    2080:	05c443c0 	strbeq	r4, [r4, #960]	; 0x3c0
    2084:	64000000 	strvs	r0, [r0], #-0
    2088:	02000000 	andeq	r0, r0, #0
    208c:	0005e600 	andeq	lr, r5, r0, lsl #12
    2090:	33010400 	movwcc	r0, #5120	; 0x1400
    2094:	01000001 	tsteq	r0, r1
    2098:	00000bba 			; <UNDEFINED> instruction: 0x00000bba
    209c:	00000038 	andeq	r0, r0, r8, lsr r0
    20a0:	43c02fa0 	bicmi	r2, r0, #160, 30	; 0x280
    20a4:	43c03010 	bicmi	r3, r0, #16
    20a8:	0000089c 	muleq	r0, ip, r8
    20ac:	74070402 	strvc	r0, [r7], #-1026	; 0xfffffbfe
    20b0:	03000000 	movweq	r0, #0
    20b4:	000bc601 	andeq	ip, fp, r1, lsl #12
    20b8:	01040100 	tsteq	r4, r0, lsl #2
    20bc:	43c02fa0 	bicmi	r2, r0, #160, 30	; 0x280
    20c0:	43c03010 	bicmi	r3, r0, #16
    20c4:	000005f0 	strdeq	r0, [r0], -r0	; <UNPREDICTABLE>
    20c8:	00736d04 	rsbseq	r6, r3, r4, lsl #26
    20cc:	00250401 	eoreq	r0, r5, r1, lsl #8
    20d0:	91020000 	tstls	r2, r0
    20d4:	00690570 	rsbeq	r0, r9, r0, ror r5
    20d8:	00250601 	eoreq	r0, r5, r1, lsl #12
    20dc:	91020000 	tstls	r2, r0
    20e0:	006a0578 	rsbeq	r0, sl, r8, ror r5
    20e4:	00250601 	eoreq	r0, r5, r1, lsl #12
    20e8:	91020000 	tstls	r2, r0
    20ec:	bf000074 	svclt	0x00000074
    20f0:	02000005 	andeq	r0, r0, #5
    20f4:	00063800 	andeq	r3, r6, r0, lsl #16
    20f8:	33010400 	movwcc	r0, #5120	; 0x1400
    20fc:	01000001 	tsteq	r0, r1
    2100:	00000c32 	andeq	r0, r0, r2, lsr ip
    2104:	00000038 	andeq	r0, r0, r8, lsr r0
    2108:	43c03010 	bicmi	r3, r0, #16
    210c:	43c03324 	bicmi	r3, r0, #36, 6	; 0x90000000
    2110:	000008ec 	andeq	r0, r0, ip, ror #17
    2114:	0e026802 	cdpeq	8, 0, cr6, cr2, cr2, {0}
    2118:	0000019a 	muleq	r0, sl, r1
    211c:	54554f03 	ldrbpl	r4, [r5], #-3843	; 0xfffff0fd
    2120:	9a0f0200 	bls	3c2928 <_start-0x4383d6d8>
    2124:	02000001 	andeq	r0, r0, #1
    2128:	b1040023 	tstlt	r4, r3, lsr #32
    212c:	02000001 	andeq	r0, r0, #1
    2130:	00019a10 	andeq	r9, r1, r0, lsl sl
    2134:	04230200 	strteq	r0, [r3], #-512	; 0xfffffe00
    2138:	0001bd04 	andeq	fp, r1, r4, lsl #26
    213c:	9a110200 	bls	442944 <_start-0x437bd6bc>
    2140:	02000001 	andeq	r0, r0, #1
    2144:	c6040823 	strgt	r0, [r4], -r3, lsr #16
    2148:	02000001 	andeq	r0, r0, #1
    214c:	00019a12 	andeq	r9, r1, r2, lsl sl
    2150:	0c230200 	sfmeq	f0, 4, [r3], #-0
    2154:	0002a104 	andeq	sl, r2, r4, lsl #2
    2158:	9a130200 	bls	4c2960 <_start-0x4373d6a0>
    215c:	02000001 	andeq	r0, r0, #1
    2160:	44031023 	strmi	r1, [r3], #-35	; 0xffffffdd
    2164:	02005445 	andeq	r5, r0, #1157627904	; 0x45000000
    2168:	00019a14 	andeq	r9, r1, r4, lsl sl
    216c:	14230200 	strtne	r0, [r3], #-512	; 0xfffffe00
    2170:	44415003 	strbmi	r5, [r1], #-3
    2174:	9a150200 	bls	54297c <_start-0x436bd684>
    2178:	02000001 	andeq	r0, r0, #1
    217c:	5d041823 	stcpl	8, cr1, [r4, #-140]	; 0xffffff74
    2180:	02000002 	andeq	r0, r0, #2
    2184:	00019a16 	andeq	r9, r1, r6, lsl sl
    2188:	1c230200 	sfmne	f0, 4, [r3], #-0
    218c:	0002e004 	andeq	lr, r2, r4
    2190:	9a170200 	bls	5c2998 <_start-0x4363d668>
    2194:	02000001 	andeq	r0, r0, #1
    2198:	e7042023 	str	r2, [r4, -r3, lsr #32]
    219c:	02000002 	andeq	r0, r0, #2
    21a0:	00019a18 	andeq	r9, r1, r8, lsl sl
    21a4:	24230200 	strtcs	r0, [r3], #-512	; 0xfffffe00
    21a8:	00028f04 	andeq	r8, r2, r4, lsl #30
    21ac:	9a190200 	bls	6429b4 <_start-0x435bd64c>
    21b0:	02000001 	andeq	r0, r0, #1
    21b4:	67042823 	strvs	r2, [r4, -r3, lsr #16]
    21b8:	02000002 	andeq	r0, r0, #2
    21bc:	00019a1a 	andeq	r9, r1, sl, lsl sl
    21c0:	2c230200 	sfmcs	f0, 4, [r3], #-0
    21c4:	00027104 	andeq	r7, r2, r4, lsl #2
    21c8:	9a1b0200 	bls	6c29d0 <_start-0x4353d630>
    21cc:	02000001 	andeq	r0, r0, #1
    21d0:	7b043023 	blvc	10e264 <_start-0x43af1d9c>
    21d4:	02000002 	andeq	r0, r0, #2
    21d8:	00019a1c 	andeq	r9, r1, ip, lsl sl
    21dc:	34230200 	strtcc	r0, [r3], #-512	; 0xfffffe00
    21e0:	00028504 	andeq	r8, r2, r4, lsl #10
    21e4:	9a1d0200 	bls	7429ec <_start-0x434bd614>
    21e8:	02000001 	andeq	r0, r0, #1
    21ec:	ee043823 	cdp	8, 0, cr3, cr4, cr3, {1}
    21f0:	02000002 	andeq	r0, r0, #2
    21f4:	00019a1e 	andeq	r9, r1, lr, lsl sl
    21f8:	3c230200 	sfmcc	f0, 4, [r3], #-0
    21fc:	00024604 	andeq	r4, r2, r4, lsl #12
    2200:	9a1f0200 	bls	7c2a08 <_start-0x4343d5f8>
    2204:	02000001 	andeq	r0, r0, #1
    2208:	f1044023 			; <UNDEFINED> instruction: 0xf1044023
    220c:	02000001 	andeq	r0, r0, #1
    2210:	00019a20 	andeq	r9, r1, r0, lsr #20
    2214:	44230200 	strtmi	r0, [r3], #-512	; 0xfffffe00
    2218:	00015e04 	andeq	r5, r1, r4, lsl #28
    221c:	9a210200 	bls	842a24 <_start-0x433bd5dc>
    2220:	02000001 	andeq	r0, r0, #1
    2224:	a8044823 	stmdage	r4, {r0, r1, r5, fp, lr}
    2228:	02000002 	andeq	r0, r0, #2
    222c:	00019a22 	andeq	r9, r1, r2, lsr #20
    2230:	4c230200 	sfmmi	f0, 4, [r3], #-0
    2234:	00015904 	andeq	r5, r1, r4, lsl #18
    2238:	9a230200 	bls	8c2a40 <_start-0x4333d5c0>
    223c:	02000001 	andeq	r0, r0, #1
    2240:	6f045023 	svcvs	0x00045023
    2244:	02000001 	andeq	r0, r0, #1
    2248:	00019a24 	andeq	r9, r1, r4, lsr #20
    224c:	54230200 	strtpl	r0, [r3], #-512	; 0xfffffe00
    2250:	00029904 	andeq	r9, r2, r4, lsl #18
    2254:	9a250200 	bls	942a5c <_start-0x432bd5a4>
    2258:	02000001 	andeq	r0, r0, #1
    225c:	19045823 	stmdbne	r4, {r0, r1, r5, fp, ip, lr}
    2260:	02000002 	andeq	r0, r0, #2
    2264:	00019a26 	andeq	r9, r1, r6, lsr #20
    2268:	5c230200 	sfmpl	f0, 4, [r3], #-0
    226c:	00023e04 	andeq	r3, r2, r4, lsl #28
    2270:	9a270200 	bls	9c2a78 <_start-0x4323d588>
    2274:	02000001 	andeq	r0, r0, #1
    2278:	cf046023 	svcgt	0x00046023
    227c:	02000001 	andeq	r0, r0, #1
    2280:	00019a28 	andeq	r9, r1, r8, lsr #20
    2284:	64230200 	strtvs	r0, [r3], #-512	; 0xfffffe00
    2288:	07040500 	streq	r0, [r4, -r0, lsl #10]
    228c:	00000074 	andeq	r0, r0, r4, ror r0
    2290:	000c1b06 	andeq	r1, ip, r6, lsl #22
    2294:	25290200 	strcs	r0, [r9, #-512]!	; 0xfffffe00
    2298:	02000000 	andeq	r0, r0, #0
    229c:	212e0268 	teqcs	lr, r8, ror #4
    22a0:	03000003 	movweq	r0, #3
    22a4:	0054554f 	subseq	r5, r4, pc, asr #10
    22a8:	019a2f02 	orrseq	r2, sl, r2, lsl #30
    22ac:	23020000 	movwcs	r0, #8192	; 0x2000
    22b0:	01b10400 			; <UNDEFINED> instruction: 0x01b10400
    22b4:	30020000 	andcc	r0, r2, r0
    22b8:	0000019a 	muleq	r0, sl, r1
    22bc:	04042302 	streq	r2, [r4], #-770	; 0xfffffcfe
    22c0:	000001bd 			; <UNDEFINED> instruction: 0x000001bd
    22c4:	019a3102 	orrseq	r3, sl, r2, lsl #2
    22c8:	23020000 	movwcs	r0, #8192	; 0x2000
    22cc:	01c60408 	biceq	r0, r6, r8, lsl #8
    22d0:	32020000 	andcc	r0, r2, #0
    22d4:	0000019a 	muleq	r0, sl, r1
    22d8:	040c2302 	streq	r2, [ip], #-770	; 0xfffffcfe
    22dc:	000002a1 	andeq	r0, r0, r1, lsr #5
    22e0:	019a3302 	orrseq	r3, sl, r2, lsl #6
    22e4:	23020000 	movwcs	r0, #8192	; 0x2000
    22e8:	45440310 	strbmi	r0, [r4, #-784]	; 0xfffffcf0
    22ec:	34020054 	strcc	r0, [r2], #-84	; 0xffffffac
    22f0:	0000019a 	muleq	r0, sl, r1
    22f4:	03142302 	tsteq	r4, #134217728	; 0x8000000
    22f8:	00444150 	subeq	r4, r4, r0, asr r1
    22fc:	019a3502 	orrseq	r3, sl, r2, lsl #10
    2300:	23020000 	movwcs	r0, #8192	; 0x2000
    2304:	025d0418 	subseq	r0, sp, #24, 8	; 0x18000000
    2308:	36020000 	strcc	r0, [r2], -r0
    230c:	0000019a 	muleq	r0, sl, r1
    2310:	041c2302 	ldreq	r2, [ip], #-770	; 0xfffffcfe
    2314:	000002e0 	andeq	r0, r0, r0, ror #5
    2318:	019a3702 	orrseq	r3, sl, r2, lsl #14
    231c:	23020000 	movwcs	r0, #8192	; 0x2000
    2320:	02e70420 	rsceq	r0, r7, #32, 8	; 0x20000000
    2324:	38020000 	stmdacc	r2, {}	; <UNPREDICTABLE>
    2328:	0000019a 	muleq	r0, sl, r1
    232c:	04242302 	strteq	r2, [r4], #-770	; 0xfffffcfe
    2330:	0000028f 	andeq	r0, r0, pc, lsl #5
    2334:	019a3902 	orrseq	r3, sl, r2, lsl #18
    2338:	23020000 	movwcs	r0, #8192	; 0x2000
    233c:	02670428 	rsbeq	r0, r7, #40, 8	; 0x28000000
    2340:	3a020000 	bcc	82348 <_start-0x43b7dcb8>
    2344:	0000019a 	muleq	r0, sl, r1
    2348:	042c2302 	strteq	r2, [ip], #-770	; 0xfffffcfe
    234c:	00000271 	andeq	r0, r0, r1, ror r2
    2350:	019a3b02 	orrseq	r3, sl, r2, lsl #22
    2354:	23020000 	movwcs	r0, #8192	; 0x2000
    2358:	027b0430 	rsbseq	r0, fp, #48, 8	; 0x30000000
    235c:	3c020000 	stccc	0, cr0, [r2], {-0}
    2360:	0000019a 	muleq	r0, sl, r1
    2364:	04342302 	ldrteq	r2, [r4], #-770	; 0xfffffcfe
    2368:	00000285 	andeq	r0, r0, r5, lsl #5
    236c:	019a3d02 	orrseq	r3, sl, r2, lsl #26
    2370:	23020000 	movwcs	r0, #8192	; 0x2000
    2374:	02ee0438 	rsceq	r0, lr, #56, 8	; 0x38000000
    2378:	3e020000 	cdpcc	0, 0, cr0, cr2, cr0, {0}
    237c:	0000019a 	muleq	r0, sl, r1
    2380:	043c2302 	ldrteq	r2, [ip], #-770	; 0xfffffcfe
    2384:	00000246 	andeq	r0, r0, r6, asr #4
    2388:	019a3f02 	orrseq	r3, sl, r2, lsl #30
    238c:	23020000 	movwcs	r0, #8192	; 0x2000
    2390:	01f10440 	mvnseq	r0, r0, asr #8
    2394:	40020000 	andmi	r0, r2, r0
    2398:	0000019a 	muleq	r0, sl, r1
    239c:	04442302 	strbeq	r2, [r4], #-770	; 0xfffffcfe
    23a0:	0000015e 	andeq	r0, r0, lr, asr r1
    23a4:	019a4102 	orrseq	r4, sl, r2, lsl #2
    23a8:	23020000 	movwcs	r0, #8192	; 0x2000
    23ac:	02a80448 	adceq	r0, r8, #72, 8	; 0x48000000
    23b0:	42020000 	andmi	r0, r2, #0
    23b4:	0000019a 	muleq	r0, sl, r1
    23b8:	044c2302 	strbeq	r2, [ip], #-770	; 0xfffffcfe
    23bc:	00000159 	andeq	r0, r0, r9, asr r1
    23c0:	019a4302 	orrseq	r4, sl, r2, lsl #6
    23c4:	23020000 	movwcs	r0, #8192	; 0x2000
    23c8:	016f0450 	cmneq	pc, r0, asr r4	; <UNPREDICTABLE>
    23cc:	44020000 	strmi	r0, [r2], #-0
    23d0:	0000019a 	muleq	r0, sl, r1
    23d4:	04542302 	ldrbeq	r2, [r4], #-770	; 0xfffffcfe
    23d8:	00000299 	muleq	r0, r9, r2
    23dc:	019a4502 	orrseq	r4, sl, r2, lsl #10
    23e0:	23020000 	movwcs	r0, #8192	; 0x2000
    23e4:	02190458 	andseq	r0, r9, #88, 8	; 0x58000000
    23e8:	46020000 	strmi	r0, [r2], -r0
    23ec:	0000019a 	muleq	r0, sl, r1
    23f0:	045c2302 	ldrbeq	r2, [ip], #-770	; 0xfffffcfe
    23f4:	0000023e 	andeq	r0, r0, lr, lsr r2
    23f8:	019a4702 	orrseq	r4, sl, r2, lsl #14
    23fc:	23020000 	movwcs	r0, #8192	; 0x2000
    2400:	01cf0460 	biceq	r0, pc, r0, ror #8
    2404:	48020000 	stmdami	r2, {}	; <UNPREDICTABLE>
    2408:	0000019a 	muleq	r0, sl, r1
    240c:	00642302 	rsbeq	r2, r4, r2, lsl #6
    2410:	00068e06 	andeq	r8, r6, r6, lsl #28
    2414:	ac490200 	sfmge	f0, 2, [r9], {-0}
    2418:	02000001 	andeq	r0, r0, #1
    241c:	a18e0268 	orrge	r0, lr, r8, ror #4
    2420:	03000004 	movweq	r0, #4
    2424:	0054554f 	subseq	r5, r4, pc, asr #10
    2428:	019a8f02 	orrseq	r8, sl, r2, lsl #30
    242c:	23020000 	movwcs	r0, #8192	; 0x2000
    2430:	01b10400 			; <UNDEFINED> instruction: 0x01b10400
    2434:	90020000 	andls	r0, r2, r0
    2438:	0000019a 	muleq	r0, sl, r1
    243c:	04042302 	streq	r2, [r4], #-770	; 0xfffffcfe
    2440:	000001bd 			; <UNDEFINED> instruction: 0x000001bd
    2444:	019a9102 	orrseq	r9, sl, r2, lsl #2
    2448:	23020000 	movwcs	r0, #8192	; 0x2000
    244c:	01c60408 	biceq	r0, r6, r8, lsl #8
    2450:	92020000 	andls	r0, r2, #0
    2454:	0000019a 	muleq	r0, sl, r1
    2458:	040c2302 	streq	r2, [ip], #-770	; 0xfffffcfe
    245c:	000002a1 	andeq	r0, r0, r1, lsr #5
    2460:	019a9302 	orrseq	r9, sl, r2, lsl #6
    2464:	23020000 	movwcs	r0, #8192	; 0x2000
    2468:	45440310 	strbmi	r0, [r4, #-784]	; 0xfffffcf0
    246c:	94020054 	strls	r0, [r2], #-84	; 0xffffffac
    2470:	0000019a 	muleq	r0, sl, r1
    2474:	03142302 	tsteq	r4, #134217728	; 0x8000000
    2478:	00444150 	subeq	r4, r4, r0, asr r1
    247c:	019a9502 	orrseq	r9, sl, r2, lsl #10
    2480:	23020000 	movwcs	r0, #8192	; 0x2000
    2484:	025d0418 	subseq	r0, sp, #24, 8	; 0x18000000
    2488:	96020000 	strls	r0, [r2], -r0
    248c:	0000019a 	muleq	r0, sl, r1
    2490:	041c2302 	ldreq	r2, [ip], #-770	; 0xfffffcfe
    2494:	000002e0 	andeq	r0, r0, r0, ror #5
    2498:	019a9702 	orrseq	r9, sl, r2, lsl #14
    249c:	23020000 	movwcs	r0, #8192	; 0x2000
    24a0:	02e70420 	rsceq	r0, r7, #32, 8	; 0x20000000
    24a4:	98020000 	stmdals	r2, {}	; <UNPREDICTABLE>
    24a8:	0000019a 	muleq	r0, sl, r1
    24ac:	04242302 	strteq	r2, [r4], #-770	; 0xfffffcfe
    24b0:	0000028f 	andeq	r0, r0, pc, lsl #5
    24b4:	019a9902 	orrseq	r9, sl, r2, lsl #18
    24b8:	23020000 	movwcs	r0, #8192	; 0x2000
    24bc:	02670428 	rsbeq	r0, r7, #40, 8	; 0x28000000
    24c0:	9a020000 	bls	824c8 <_start-0x43b7db38>
    24c4:	0000019a 	muleq	r0, sl, r1
    24c8:	042c2302 	strteq	r2, [ip], #-770	; 0xfffffcfe
    24cc:	00000271 	andeq	r0, r0, r1, ror r2
    24d0:	019a9b02 	orrseq	r9, sl, r2, lsl #22
    24d4:	23020000 	movwcs	r0, #8192	; 0x2000
    24d8:	027b0430 	rsbseq	r0, fp, #48, 8	; 0x30000000
    24dc:	9c020000 	stcls	0, cr0, [r2], {-0}
    24e0:	0000019a 	muleq	r0, sl, r1
    24e4:	04342302 	ldrteq	r2, [r4], #-770	; 0xfffffcfe
    24e8:	00000285 	andeq	r0, r0, r5, lsl #5
    24ec:	019a9d02 	orrseq	r9, sl, r2, lsl #26
    24f0:	23020000 	movwcs	r0, #8192	; 0x2000
    24f4:	02ee0438 	rsceq	r0, lr, #56, 8	; 0x38000000
    24f8:	9e020000 	cdpls	0, 0, cr0, cr2, cr0, {0}
    24fc:	0000019a 	muleq	r0, sl, r1
    2500:	043c2302 	ldrteq	r2, [ip], #-770	; 0xfffffcfe
    2504:	00000246 	andeq	r0, r0, r6, asr #4
    2508:	019a9f02 	orrseq	r9, sl, r2, lsl #30
    250c:	23020000 	movwcs	r0, #8192	; 0x2000
    2510:	01f10440 	mvnseq	r0, r0, asr #8
    2514:	a0020000 	andge	r0, r2, r0
    2518:	0000019a 	muleq	r0, sl, r1
    251c:	04442302 	strbeq	r2, [r4], #-770	; 0xfffffcfe
    2520:	0000015e 	andeq	r0, r0, lr, asr r1
    2524:	019aa102 	orrseq	sl, sl, r2, lsl #2
    2528:	23020000 	movwcs	r0, #8192	; 0x2000
    252c:	02a80448 	adceq	r0, r8, #72, 8	; 0x48000000
    2530:	a2020000 	andge	r0, r2, #0
    2534:	0000019a 	muleq	r0, sl, r1
    2538:	044c2302 	strbeq	r2, [ip], #-770	; 0xfffffcfe
    253c:	00000159 	andeq	r0, r0, r9, asr r1
    2540:	019aa302 	orrseq	sl, sl, r2, lsl #6
    2544:	23020000 	movwcs	r0, #8192	; 0x2000
    2548:	016f0450 	cmneq	pc, r0, asr r4	; <UNPREDICTABLE>
    254c:	a4020000 	strge	r0, [r2], #-0
    2550:	0000019a 	muleq	r0, sl, r1
    2554:	04542302 	ldrbeq	r2, [r4], #-770	; 0xfffffcfe
    2558:	00000299 	muleq	r0, r9, r2
    255c:	019aa502 	orrseq	sl, sl, r2, lsl #10
    2560:	23020000 	movwcs	r0, #8192	; 0x2000
    2564:	02190458 	andseq	r0, r9, #88, 8	; 0x58000000
    2568:	a6020000 	strge	r0, [r2], -r0
    256c:	0000019a 	muleq	r0, sl, r1
    2570:	045c2302 	ldrbeq	r2, [ip], #-770	; 0xfffffcfe
    2574:	0000023e 	andeq	r0, r0, lr, lsr r2
    2578:	019aa702 	orrseq	sl, sl, r2, lsl #14
    257c:	23020000 	movwcs	r0, #8192	; 0x2000
    2580:	01cf0460 	biceq	r0, pc, r0, ror #8
    2584:	a8020000 	stmdage	r2, {}	; <UNPREDICTABLE>
    2588:	0000019a 	muleq	r0, sl, r1
    258c:	00642302 	rsbeq	r2, r4, r2, lsl #6
    2590:	000c2106 	andeq	r2, ip, r6, lsl #2
    2594:	2ca90200 	sfmcs	f0, 4, [r9]
    2598:	07000003 	streq	r0, [r0, -r3]
    259c:	c1070304 	tstgt	r7, r4, lsl #6
    25a0:	08000004 	stmdaeq	r0, {r2}
    25a4:	00000c00 	andeq	r0, r0, r0, lsl #24
    25a8:	0c3f0800 	ldceq	8, cr0, [pc], #-0	; 25b0 <_start-0x43bfda50>
    25ac:	00010000 	andeq	r0, r1, r0
    25b0:	000bef06 	andeq	lr, fp, r6, lsl #30
    25b4:	ac0a0300 	stcge	3, cr0, [sl], {-0}
    25b8:	09000004 	stmdbeq	r0, {r2}
    25bc:	000c5301 	andeq	r5, ip, r1, lsl #6
    25c0:	01040100 	tsteq	r4, r0, lsl #2
    25c4:	43c03010 	bicmi	r3, r0, #16
    25c8:	43c030f8 	bicmi	r3, r0, #248	; 0xf8
    25cc:	0000061c 	andeq	r0, r0, ip, lsl r6
    25d0:	0c08010a 	stfeqs	f0, [r8], {10}
    25d4:	1b010000 	blne	425dc <_start-0x43bbda24>
    25d8:	c030f801 	eorsgt	pc, r0, r1, lsl #16
    25dc:	c0315043 	eorsgt	r5, r1, r3, asr #32
    25e0:	00064843 	andeq	r4, r6, r3, asr #16
    25e4:	00050900 	andeq	r0, r5, r0, lsl #18
    25e8:	74730b00 	ldrbtvc	r0, [r3], #-2816	; 0xfffff500
    25ec:	1b010075 	blne	427c8 <_start-0x43bbd838>
    25f0:	000004c1 	andeq	r0, r0, r1, asr #9
    25f4:	00789102 	rsbseq	r9, r8, r2, lsl #2
    25f8:	0c6d010a 	stfeqe	f0, [sp], #-40	; 0xffffffd8
    25fc:	26010000 	strcs	r0, [r1], -r0
    2600:	c0315001 	eorsgt	r5, r1, r1
    2604:	c031a843 	eorsgt	sl, r1, r3, asr #16
    2608:	00067443 	andeq	r7, r6, r3, asr #8
    260c:	00053100 	andeq	r3, r5, r0, lsl #2
    2610:	74730b00 	ldrbtvc	r0, [r3], #-2816	; 0xfffff500
    2614:	26010075 			; <UNDEFINED> instruction: 0x26010075
    2618:	000004c1 	andeq	r0, r0, r1, asr #9
    261c:	00789102 	rsbseq	r9, r8, r2, lsl #2
    2620:	0bdb010a 	bleq	ff6c2a50 <__bss_end__+0xbbabe254>
    2624:	31010000 	tstcc	r1, r0
    2628:	c031a801 	eorsgt	sl, r1, r1, lsl #16
    262c:	c0320043 	eorsgt	r0, r2, r3, asr #32
    2630:	0006a043 	andeq	sl, r6, r3, asr #32
    2634:	00055900 	andeq	r5, r5, r0, lsl #18
    2638:	74730b00 	ldrbtvc	r0, [r3], #-2816	; 0xfffff500
    263c:	31010075 	tstcc	r1, r5, ror r0
    2640:	000004c1 	andeq	r0, r0, r1, asr #9
    2644:	00789102 	rsbseq	r9, r8, r2, lsl #2
    2648:	0bf50109 	bleq	ffd42a74 <__bss_end__+0xbc13e278>
    264c:	3d010000 	stccc	0, cr0, [r1, #-0]
    2650:	c0320001 	eorsgt	r0, r2, r1
    2654:	c0322c43 	eorsgt	r2, r2, r3, asr #24
    2658:	0006cc43 	andeq	ip, r6, r3, asr #24
    265c:	46010900 	strmi	r0, [r1], -r0, lsl #18
    2660:	0100000c 	tsteq	r0, ip
    2664:	322c0146 	eorcc	r0, ip, #-2147483631	; 0x80000011
    2668:	325843c0 	subscc	r4, r8, #192, 6
    266c:	06f843c0 	ldrbteq	r4, [r8], r0, asr #7
    2670:	01090000 	tsteq	r9, r0
    2674:	00000bcf 	andeq	r0, r0, pc, asr #23
    2678:	58014e01 	stmdapl	r1, {r0, r9, sl, fp, lr}
    267c:	8443c032 	strbhi	ip, [r3], #-50	; 0xffffffce
    2680:	2443c032 	strbcs	ip, [r3], #-50	; 0xffffffce
    2684:	09000007 	stmdbeq	r0, {r0, r1, r2}
    2688:	000c2701 	andeq	r2, ip, r1, lsl #14
    268c:	01560100 	cmpeq	r6, r0, lsl #2
    2690:	43c03284 	bicmi	r3, r0, #132, 4	; 0x40000008
    2694:	43c032d8 	bicmi	r3, r0, #216, 4	; 0x8000000d
    2698:	00000750 	andeq	r0, r0, r0, asr r7
    269c:	0c600109 	stfeqe	f0, [r0], #-36	; 0xffffffdc
    26a0:	65010000 	strvs	r0, [r1, #-0]
    26a4:	c032d801 	eorsgt	sp, r2, r1, lsl #16
    26a8:	c0332443 	eorsgt	r2, r3, r3, asr #8
    26ac:	00077c43 	andeq	r7, r7, r3, asr #24
    26b0:	01ef0000 	mvneq	r0, r0
    26b4:	00020000 	andeq	r0, r2, r0
    26b8:	000006e0 	andeq	r0, r0, r0, ror #13
    26bc:	01330104 	teqeq	r3, r4, lsl #2
    26c0:	5c010000 	stcpl	0, cr0, [r1], {-0}
    26c4:	3800000d 	stmdacc	r0, {r0, r2, r3}
    26c8:	24000000 	strcs	r0, [r0], #-0
    26cc:	3043c033 	subcc	ip, r3, r3, lsr r0
    26d0:	a043c039 	subge	ip, r3, r9, lsr r0
    26d4:	02000009 	andeq	r0, r0, #9
    26d8:	00740704 	rsbseq	r0, r4, r4, lsl #14
    26dc:	04030000 	streq	r0, [r3], #-0
    26e0:	00530e02 	subseq	r0, r3, r2, lsl #28
    26e4:	c9040000 	stmdbgt	r4, {}	; <UNPREDICTABLE>
    26e8:	0100000c 	tsteq	r0, ip
    26ec:	000ca204 	andeq	sl, ip, r4, lsl #4
    26f0:	14040200 	strne	r0, [r4], #-512	; 0xfffffe00
    26f4:	0300000d 	movweq	r0, #13
    26f8:	000ced04 	andeq	lr, ip, r4, lsl #26
    26fc:	3c040400 	cfstrscc	mvf0, [r4], {-0}
    2700:	0500000d 	streq	r0, [r0, #-13]
    2704:	0d4f0500 	cfstr64eq	mvdx0, [pc, #-0]	; 270c <_start-0x43bfd8f4>
    2708:	14020000 	strne	r0, [r2], #-0
    270c:	0000002c 	andeq	r0, r0, ip, lsr #32
    2710:	0d7b0106 	ldfeqe	f0, [fp, #-24]!	; 0xffffffe8
    2714:	05010000 	streq	r0, [r1, #-0]
    2718:	c0332401 	eorsgt	r2, r3, r1, lsl #8
    271c:	c0343443 	eorsgt	r3, r4, r3, asr #8
    2720:	0007a843 	andeq	sl, r7, r3, asr #16
    2724:	00008600 	andeq	r8, r0, r0, lsl #12
    2728:	03190700 	tsteq	r9, #0, 14
    272c:	08010000 	stmdaeq	r1, {}	; <UNPREDICTABLE>
    2730:	00000086 	andeq	r0, r0, r6, lsl #1
    2734:	00789102 	rsbseq	r9, r8, r2, lsl #2
    2738:	00250408 	eoreq	r0, r5, r8, lsl #8
    273c:	01090000 	tsteq	r9, r0
    2740:	00000d02 	andeq	r0, r0, r2, lsl #26
    2744:	34012301 	strcc	r2, [r1], #-769	; 0xfffffcff
    2748:	7c43c034 	mcrrvc	0, 3, ip, r3, cr4
    274c:	d443c034 	strble	ip, [r3], #-52	; 0xffffffcc
    2750:	0a000007 	beq	2774 <_start-0x43bfd88c>
    2754:	000c8201 	andeq	r8, ip, r1, lsl #4
    2758:	012b0100 	teqeq	fp, r0, lsl #2
    275c:	000000cd 	andeq	r0, r0, sp, asr #1
    2760:	43c0347c 	bicmi	r3, r0, #124, 8	; 0x7c000000
    2764:	43c0351c 	bicmi	r3, r0, #28, 10	; 0x7000000
    2768:	00000800 	andeq	r0, r0, r0, lsl #16
    276c:	000000cd 	andeq	r0, r0, sp, asr #1
    2770:	000c8a07 	andeq	r8, ip, r7, lsl #20
    2774:	cd3a0100 	ldfgts	f0, [sl, #-0]
    2778:	02000000 	andeq	r0, r0, #0
    277c:	0b007491 	bleq	1f9c8 <_start-0x43be0638>
    2780:	6e690504 	cdpvs	5, 6, cr0, cr9, cr4, {0}
    2784:	010a0074 	tsteq	sl, r4, ror r0
    2788:	00000d66 	andeq	r0, r0, r6, ror #26
    278c:	cd014201 	sfmgt	f4, 4, [r1, #-4]
    2790:	1c000000 	stcne	0, cr0, [r0], {-0}
    2794:	b843c035 	stmdalt	r3, {r0, r2, r4, r5, lr, pc}^
    2798:	2c43c035 	mcrrcs	0, 3, ip, r3, cr5
    279c:	0e000008 	cdpeq	0, 0, cr0, cr0, cr8, {0}
    27a0:	0c000001 	stceq	0, cr0, [r0], {1}
    27a4:	00000c97 	muleq	r0, r7, ip
    27a8:	00534201 	subseq	r4, r3, r1, lsl #4
    27ac:	91020000 	tstls	r2, r0
    27b0:	0d2e0774 	stceq	7, cr0, [lr, #-464]!	; 0xfffffe30
    27b4:	44010000 	strmi	r0, [r1], #-0
    27b8:	000000cd 	andeq	r0, r0, sp, asr #1
    27bc:	00789102 	rsbseq	r9, r8, r2, lsl #2
    27c0:	0cdd0106 	ldfeqe	f0, [sp], {6}
    27c4:	5c010000 	stcpl	0, cr0, [r1], {-0}
    27c8:	c035b801 	eorsgt	fp, r5, r1, lsl #16
    27cc:	c0371443 	eorsgt	r1, r7, r3, asr #8
    27d0:	00085843 	andeq	r5, r8, r3, asr #16
    27d4:	00017c00 	andeq	r7, r1, r0, lsl #24
    27d8:	05c20c00 	strbeq	r0, [r2, #3072]	; 0xc00
    27dc:	5c010000 	stcpl	0, cr0, [r1], {-0}
    27e0:	000000cd 	andeq	r0, r0, sp, asr #1
    27e4:	0c749102 	ldfeqp	f1, [r4], #-8
    27e8:	00000d26 	andeq	r0, r0, r6, lsr #26
    27ec:	00cd5c01 	sbceq	r5, sp, r1, lsl #24
    27f0:	91020000 	tstls	r2, r0
    27f4:	0d9d0c70 	ldceq	12, cr0, [sp, #448]	; 0x1c0
    27f8:	5c010000 	stcpl	0, cr0, [r1], {-0}
    27fc:	000000cd 	andeq	r0, r0, sp, asr #1
    2800:	0c6c9102 	stfeqp	f1, [ip], #-8
    2804:	00000da4 	andeq	r0, r0, r4, lsr #27
    2808:	00cd5c01 	sbceq	r5, sp, r1, lsl #24
    280c:	91020000 	tstls	r2, r0
    2810:	0dab0c68 	stceq	12, cr0, [fp, #416]!	; 0x1a0
    2814:	5c010000 	stcpl	0, cr0, [r1], {-0}
    2818:	000000cd 	andeq	r0, r0, sp, asr #1
    281c:	0c009102 	stfeqd	f1, [r0], {2}
    2820:	00000c90 	muleq	r0, r0, ip
    2824:	00cd5c01 	sbceq	r5, sp, r1, lsl #24
    2828:	91020000 	tstls	r2, r0
    282c:	010a0004 	tsteq	sl, r4
    2830:	00000cb4 			; <UNDEFINED> instruction: 0x00000cb4
    2834:	cd018501 	cfstr32gt	mvfx8, [r1, #-4]
    2838:	14000000 	strne	r0, [r0], #-0
    283c:	3043c037 	subcc	ip, r3, r7, lsr r0
    2840:	8443c039 	strbhi	ip, [r3], #-57	; 0xffffffc7
    2844:	e0000008 	and	r0, r0, r8
    2848:	0c000001 	stceq	0, cr0, [r0], {1}
    284c:	0000059f 	muleq	r0, pc, r5	; <UNPREDICTABLE>
    2850:	01e08501 	mvneq	r8, r1, lsl #10
    2854:	91020000 	tstls	r2, r0
    2858:	03610c6c 	cmneq	r1, #108, 24	; 0x6c00
    285c:	85010000 	strhi	r0, [r1, #-0]
    2860:	000000cd 	andeq	r0, r0, sp, asr #1
    2864:	0c689102 	stfeqp	f1, [r8], #-8
    2868:	00000d88 	andeq	r0, r0, r8, lsl #27
    286c:	00cd8501 	sbceq	r8, sp, r1, lsl #10
    2870:	91020000 	tstls	r2, r0
    2874:	74700d64 	ldrbtvc	r0, [r0], #-3428	; 0xfffff29c
    2878:	87010072 	smlsdxhi	r1, r2, r0, r0
    287c:	000001e0 	andeq	r0, r0, r0, ror #3
    2880:	0d749102 	ldfeqp	f1, [r4, #-8]!
    2884:	006d756e 	rsbeq	r7, sp, lr, ror #10
    2888:	00cd8a01 	sbceq	r8, sp, r1, lsl #20
    288c:	91020000 	tstls	r2, r0
    2890:	04080070 	streq	r0, [r8], #-112	; 0xffffff90
    2894:	000001e6 	andeq	r0, r0, r6, ror #3
    2898:	0001eb0e 	andeq	lr, r1, lr, lsl #22
    289c:	08010200 	stmdaeq	r1, {r9}
    28a0:	0000008a 	andeq	r0, r0, sl, lsl #1
    28a4:	00004800 	andeq	r4, r0, r0, lsl #16
    28a8:	af000200 	svcge	0x00000200
    28ac:	04000007 	streq	r0, [r0], #-7
    28b0:	00013301 	andeq	r3, r1, r1, lsl #6
    28b4:	0db40100 	ldfeqs	f0, [r4]
    28b8:	00380000 	eorseq	r0, r8, r0
    28bc:	39300000 	ldmdbcc	r0!, {}	; <UNPREDICTABLE>
    28c0:	398443c0 	stmibcc	r4, {r6, r7, r8, r9, lr}
    28c4:	0aa143c0 	beq	fe8537cc <__bss_end__+0xbac4efd0>
    28c8:	04020000 	streq	r0, [r2], #-0
    28cc:	00007407 	andeq	r7, r0, r7, lsl #8
    28d0:	bb010300 	bllt	434d8 <_start-0x43bbcb28>
    28d4:	0100000d 	tsteq	r0, sp
    28d8:	0000440a 	andeq	r4, r0, sl, lsl #8
    28dc:	c0393000 	eorsgt	r3, r9, r0
    28e0:	c0398443 	eorsgt	r8, r9, r3, asr #8
    28e4:	0008b043 	andeq	fp, r8, r3, asr #32
    28e8:	05040400 	streq	r0, [r4, #-1024]	; 0xfffffc00
    28ec:	00746e69 	rsbseq	r6, r4, r9, ror #28
	...

Disassembly of section .debug_abbrev:

00000000 <.debug_abbrev>:
   0:	10001101 	andne	r1, r0, r1, lsl #2
   4:	12011106 	andne	r1, r1, #-2147483647	; 0x80000001
   8:	1b080301 	blne	200c14 <_start-0x439ff3ec>
   c:	13082508 	movwne	r2, #34056	; 0x8508
  10:	00000005 	andeq	r0, r0, r5
  14:	10001101 	andne	r1, r0, r1, lsl #2
  18:	12011106 	andne	r1, r1, #-2147483647	; 0x80000001
  1c:	1b080301 	blne	200c28 <_start-0x439ff3d8>
  20:	13082508 	movwne	r2, #34056	; 0x8508
  24:	00000005 	andeq	r0, r0, r5
  28:	10001101 	andne	r1, r0, r1, lsl #2
  2c:	12011106 	andne	r1, r1, #-2147483647	; 0x80000001
  30:	1b080301 	blne	200c3c <_start-0x439ff3c4>
  34:	13082508 	movwne	r2, #34056	; 0x8508
  38:	00000005 	andeq	r0, r0, r5
  3c:	25011101 	strcs	r1, [r1, #-257]	; 0xfffffeff
  40:	030b130e 	movweq	r1, #45838	; 0xb30e
  44:	110e1b0e 	tstne	lr, lr, lsl #22
  48:	10011201 	andne	r1, r1, r1, lsl #4
  4c:	02000006 	andeq	r0, r0, #6
  50:	0b0b0024 	bleq	2c00e8 <_start-0x4393ff18>
  54:	0e030b3e 	vmoveq.16	d3[0], r0
  58:	16030000 	strne	r0, [r3], -r0
  5c:	3a0e0300 	bcc	380c64 <_start-0x4387f39c>
  60:	490b3b0b 	stmdbmi	fp, {r0, r1, r3, r8, r9, fp, ip, sp}
  64:	04000013 	streq	r0, [r0], #-19	; 0xffffffed
  68:	0b0b000f 	bleq	2c00ac <_start-0x4393ff54>
  6c:	00000e03 	andeq	r0, r0, r3, lsl #28
  70:	03012e05 	movweq	r2, #7685	; 0x1e05
  74:	3b0b3a0e 	blcc	2ce8b4 <_start-0x4393174c>
  78:	490c270b 	stmdbmi	ip, {r0, r1, r3, r8, r9, sl, sp}
  7c:	12011113 	andne	r1, r1, #-1073741820	; 0xc0000004
  80:	01064001 	tsteq	r6, r1
  84:	06000013 			; <UNDEFINED> instruction: 0x06000013
  88:	08030005 	stmdaeq	r3, {r0, r2}
  8c:	0b3b0b3a 	bleq	ec2d7c <_start-0x42d3d284>
  90:	0a021349 	beq	84dbc <_start-0x43b7b244>
  94:	2e070000 	cdpcs	0, 0, cr0, cr7, cr0, {0}
  98:	030c3f01 	movweq	r3, #52993	; 0xcf01
  9c:	3b0b3a0e 	blcc	2ce8dc <_start-0x43931724>
  a0:	490c270b 	stmdbmi	ip, {r0, r1, r3, r8, r9, sl, sp}
  a4:	12011113 	andne	r1, r1, #-1073741820	; 0xc0000004
  a8:	01064001 	tsteq	r6, r1
  ac:	08000013 	stmdaeq	r0, {r0, r1, r4}
  b0:	0e030005 	cdpeq	0, 0, cr0, cr3, cr5, {0}
  b4:	0b3b0b3a 	bleq	ec2da4 <_start-0x42d3d25c>
  b8:	0a021349 	beq	84de4 <_start-0x43b7b21c>
  bc:	34090000 	strcc	r0, [r9], #-0
  c0:	3a0e0300 	bcc	380cc8 <_start-0x4387f338>
  c4:	490b3b0b 	stmdbmi	fp, {r0, r1, r3, r8, r9, fp, ip, sp}
  c8:	000a0213 	andeq	r0, sl, r3, lsl r2
  cc:	000f0a00 	andeq	r0, pc, r0, lsl #20
  d0:	13490b0b 	movtne	r0, #39691	; 0x9b0b
  d4:	260b0000 	strcs	r0, [fp], -r0
  d8:	00134900 	andseq	r4, r3, r0, lsl #18
  dc:	00340c00 	eorseq	r0, r4, r0, lsl #24
  e0:	0b3a0803 	bleq	e820f4 <_start-0x42d7df0c>
  e4:	13490b3b 	movtne	r0, #39739	; 0x9b3b
  e8:	00000a02 	andeq	r0, r0, r2, lsl #20
  ec:	0b00240d 	bleq	9128 <_start-0x43bf6ed8>
  f0:	030b3e0b 	movweq	r3, #48651	; 0xbe0b
  f4:	0e000008 	cdpeq	0, 0, cr0, cr0, cr8, {0}
  f8:	0111010b 	tsteq	r1, fp, lsl #2
  fc:	00000112 	andeq	r0, r0, r2, lsl r1
 100:	4901010f 	stmdbmi	r1, {r0, r1, r2, r3, r8}
 104:	00130113 	andseq	r0, r3, r3, lsl r1
 108:	00211000 	eoreq	r1, r1, r0
 10c:	0b2f1349 	bleq	bc4e38 <_start-0x4303b1c8>
 110:	0a110000 	beq	440118 <_start-0x437bfee8>
 114:	3a0e0300 	bcc	380d1c <_start-0x4387f2e4>
 118:	110b3b0b 	tstne	fp, fp, lsl #22
 11c:	12000001 	andne	r0, r0, #1
 120:	0111010b 	tsteq	r1, fp, lsl #2
 124:	13010112 	movwne	r0, #4370	; 0x1112
 128:	34130000 	ldrcc	r0, [r3], #-0
 12c:	3a080300 	bcc	200d34 <_start-0x439ff2cc>
 130:	49053b0b 	stmdbmi	r5, {r0, r1, r3, r8, r9, fp, ip, sp}
 134:	000a0213 	andeq	r0, sl, r3, lsl r2
 138:	012e1400 	teqeq	lr, r0, lsl #8
 13c:	0e030c3f 	mcreq	12, 0, r0, cr3, cr15, {1}
 140:	053b0b3a 	ldreq	r0, [fp, #-2874]!	; 0xfffff4c6
 144:	13490c27 	movtne	r0, #39975	; 0x9c27
 148:	01120111 	tsteq	r2, r1, lsl r1
 14c:	13010640 	movwne	r0, #5696	; 0x1640
 150:	05150000 	ldreq	r0, [r5, #-0]
 154:	3a080300 	bcc	200d5c <_start-0x439ff2a4>
 158:	49053b0b 	stmdbmi	r5, {r0, r1, r3, r8, r9, fp, ip, sp}
 15c:	000a0213 	andeq	r0, sl, r3, lsl r2
 160:	00181600 	andseq	r1, r8, r0, lsl #12
 164:	34170000 	ldrcc	r0, [r7], #-0
 168:	3a0e0300 	bcc	380d70 <_start-0x4387f290>
 16c:	49053b0b 	stmdbmi	r5, {r0, r1, r3, r8, r9, fp, ip, sp}
 170:	000a0213 	andeq	r0, sl, r3, lsl r2
 174:	012e1800 	teqeq	lr, r0, lsl #16
 178:	0e030c3f 	mcreq	12, 0, r0, cr3, cr15, {1}
 17c:	053b0b3a 	ldreq	r0, [fp, #-2874]!	; 0xfffff4c6
 180:	01110c27 	tsteq	r1, r7, lsr #24
 184:	06400112 			; <UNDEFINED> instruction: 0x06400112
 188:	00001301 	andeq	r1, r0, r1, lsl #6
 18c:	03003419 	movweq	r3, #1049	; 0x419
 190:	3b0b3a0e 	blcc	2ce9d0 <_start-0x43931630>
 194:	3f13490b 	svccc	0x0013490b
 198:	000c3c0c 	andeq	r3, ip, ip, lsl #24
 19c:	00341a00 	eorseq	r1, r4, r0, lsl #20
 1a0:	0b3a0e03 	bleq	e839b4 <_start-0x42d7c64c>
 1a4:	13490b3b 	movtne	r0, #39739	; 0x9b3b
 1a8:	0a020c3f 	beq	832ac <_start-0x43b7cd54>
 1ac:	01000000 	tsteq	r0, r0
 1b0:	0e250111 	mcreq	1, 1, r0, cr5, cr1, {0}
 1b4:	0e030b13 	vmoveq.32	d3[0], r0
 1b8:	01110e1b 	tsteq	r1, fp, lsl lr
 1bc:	06100112 			; <UNDEFINED> instruction: 0x06100112
 1c0:	24020000 	strcs	r0, [r2], #-0
 1c4:	3e0b0b00 	vmlacc.f64	d0, d11, d0
 1c8:	000e030b 	andeq	r0, lr, fp, lsl #6
 1cc:	01130300 	tsteq	r3, r0, lsl #6
 1d0:	0b3a0b0b 	bleq	e82e04 <_start-0x42d7d1fc>
 1d4:	13010b3b 	movwne	r0, #6971	; 0x1b3b
 1d8:	0d040000 	stceq	0, cr0, [r4, #-0]
 1dc:	3a080300 	bcc	200de4 <_start-0x439ff21c>
 1e0:	490b3b0b 	stmdbmi	fp, {r0, r1, r3, r8, r9, fp, ip, sp}
 1e4:	000a3813 	andeq	r3, sl, r3, lsl r8
 1e8:	000d0500 	andeq	r0, sp, r0, lsl #10
 1ec:	0b3a0e03 	bleq	e83a00 <_start-0x42d7c600>
 1f0:	13490b3b 	movtne	r0, #39739	; 0x9b3b
 1f4:	00000a38 	andeq	r0, r0, r8, lsr sl
 1f8:	03001606 	movweq	r1, #1542	; 0x606
 1fc:	3b0b3a0e 	blcc	2cea3c <_start-0x439315c4>
 200:	0013490b 	andseq	r4, r3, fp, lsl #18
 204:	002e0700 	eoreq	r0, lr, r0, lsl #14
 208:	0e030c3f 	mcreq	12, 0, r0, cr3, cr15, {1}
 20c:	0b3b0b3a 	bleq	ec2efc <_start-0x42d3d104>
 210:	01110c27 	tsteq	r1, r7, lsr #24
 214:	06400112 			; <UNDEFINED> instruction: 0x06400112
 218:	2e080000 	cdpcs	0, 0, cr0, cr8, cr0, {0}
 21c:	030c3f01 	movweq	r3, #52993	; 0xcf01
 220:	3b0b3a0e 	blcc	2cea60 <_start-0x439315a0>
 224:	110c270b 	tstne	ip, fp, lsl #14
 228:	40011201 	andmi	r1, r1, r1, lsl #4
 22c:	00130106 	andseq	r0, r3, r6, lsl #2
 230:	00050900 	andeq	r0, r5, r0, lsl #18
 234:	0b3a0e03 	bleq	e83a48 <_start-0x42d7c5b8>
 238:	13490b3b 	movtne	r0, #39739	; 0x9b3b
 23c:	00000a02 	andeq	r0, r0, r2, lsl #20
 240:	4900260a 	stmdbmi	r0, {r1, r3, r9, sl, sp}
 244:	0b000013 	bleq	298 <_start-0x43bffd68>
 248:	0b0b000f 	bleq	2c028c <_start-0x4393fd74>
 24c:	00001349 	andeq	r1, r0, r9, asr #6
 250:	3f012e0c 	svccc	0x00012e0c
 254:	3a0e030c 	bcc	380e8c <_start-0x4387f174>
 258:	270b3b0b 	strcs	r3, [fp, -fp, lsl #22]
 25c:	1113490c 	tstne	r3, ip, lsl #18
 260:	40011201 	andmi	r1, r1, r1, lsl #4
 264:	0d000006 	stceq	0, cr0, [r0, #-24]	; 0xffffffe8
 268:	0e030034 	mcreq	0, 0, r0, cr3, cr4, {1}
 26c:	0b3b0b3a 	bleq	ec2f5c <_start-0x42d3d0a4>
 270:	0a021349 	beq	84f9c <_start-0x43b7b064>
 274:	01000000 	tsteq	r0, r0
 278:	0e250111 	mcreq	1, 1, r0, cr5, cr1, {0}
 27c:	0e030b13 	vmoveq.32	d3[0], r0
 280:	01110e1b 	tsteq	r1, fp, lsl lr
 284:	06100112 			; <UNDEFINED> instruction: 0x06100112
 288:	24020000 	strcs	r0, [r2], #-0
 28c:	3e0b0b00 	vmlacc.f64	d0, d11, d0
 290:	000e030b 	andeq	r0, lr, fp, lsl #6
 294:	012e0300 	teqeq	lr, r0, lsl #6
 298:	0e030c3f 	mcreq	12, 0, r0, cr3, cr15, {1}
 29c:	0b3b0b3a 	bleq	ec2f8c <_start-0x42d3d074>
 2a0:	01110c27 	tsteq	r1, r7, lsr #24
 2a4:	06400112 			; <UNDEFINED> instruction: 0x06400112
 2a8:	00001301 	andeq	r1, r0, r1, lsl #6
 2ac:	03003404 	movweq	r3, #1028	; 0x404
 2b0:	3b0b3a0e 	blcc	2ceaf0 <_start-0x43931510>
 2b4:	0213490b 	andseq	r4, r3, #180224	; 0x2c000
 2b8:	0500000a 	streq	r0, [r0, #-10]
 2bc:	0b0b000f 	bleq	2c0300 <_start-0x4393fd00>
 2c0:	00001349 	andeq	r1, r0, r9, asr #6
 2c4:	0b002406 	bleq	92e4 <_start-0x43bf6d1c>
 2c8:	030b3e0b 	movweq	r3, #48651	; 0xbe0b
 2cc:	07000008 	streq	r0, [r0, -r8]
 2d0:	0c3f002e 	ldceq	0, cr0, [pc], #-184	; 220 <_start-0x43bffde0>
 2d4:	0b3a0e03 	bleq	e83ae8 <_start-0x42d7c518>
 2d8:	0c270b3b 	stceq	11, cr0, [r7], #-236	; 0xffffff14
 2dc:	01120111 	tsteq	r2, r1, lsl r1
 2e0:	00000640 	andeq	r0, r0, r0, asr #12
 2e4:	01110100 	tsteq	r1, r0, lsl #2
 2e8:	0b130e25 	bleq	4c3b84 <_start-0x4373c47c>
 2ec:	0e1b0e03 	cdpeq	14, 1, cr0, cr11, cr3, {0}
 2f0:	01120111 	tsteq	r2, r1, lsl r1
 2f4:	00000610 	andeq	r0, r0, r0, lsl r6
 2f8:	0b002402 	bleq	9308 <_start-0x43bf6cf8>
 2fc:	030b3e0b 	movweq	r3, #48651	; 0xbe0b
 300:	0300000e 	movweq	r0, #14
 304:	0b0b0113 	bleq	2c0758 <_start-0x4393f8a8>
 308:	0b3b0b3a 	bleq	ec2ff8 <_start-0x42d3d008>
 30c:	00001301 	andeq	r1, r0, r1, lsl #6
 310:	03000d04 	movweq	r0, #3332	; 0xd04
 314:	3b0b3a08 	blcc	2ceb3c <_start-0x439314c4>
 318:	3813490b 	ldmdacc	r3, {r0, r1, r3, r8, fp, lr}
 31c:	0500000a 	streq	r0, [r0, #-10]
 320:	0e03000d 	cdpeq	0, 0, cr0, cr3, cr13, {0}
 324:	0b3b0b3a 	bleq	ec3014 <_start-0x42d3cfec>
 328:	0a381349 	beq	e05054 <_start-0x42dfafac>
 32c:	16060000 	strne	r0, [r6], -r0
 330:	3a0e0300 	bcc	380f38 <_start-0x4387f0c8>
 334:	490b3b0b 	stmdbmi	fp, {r0, r1, r3, r8, r9, fp, ip, sp}
 338:	07000013 	smladeq	r0, r3, r0, r0
 33c:	0b0b0104 	bleq	2c0754 <_start-0x4393f8ac>
 340:	0b3b0b3a 	bleq	ec3030 <_start-0x42d3cfd0>
 344:	00001301 	andeq	r1, r0, r1, lsl #6
 348:	03002808 	movweq	r2, #2056	; 0x808
 34c:	000d1c0e 	andeq	r1, sp, lr, lsl #24
 350:	012e0900 	teqeq	lr, r0, lsl #18
 354:	0e030c3f 	mcreq	12, 0, r0, cr3, cr15, {1}
 358:	0b3b0b3a 	bleq	ec3048 <_start-0x42d3cfb8>
 35c:	01110c27 	tsteq	r1, r7, lsr #24
 360:	06400112 			; <UNDEFINED> instruction: 0x06400112
 364:	00001301 	andeq	r1, r0, r1, lsl #6
 368:	0300050a 	movweq	r0, #1290	; 0x50a
 36c:	3b0b3a0e 	blcc	2cebac <_start-0x43931454>
 370:	0213490b 	andseq	r4, r3, #180224	; 0x2c000
 374:	0b00000a 	bleq	3a4 <_start-0x43bffc5c>
 378:	0e030034 	mcreq	0, 0, r0, cr3, cr4, {1}
 37c:	0b3b0b3a 	bleq	ec306c <_start-0x42d3cf94>
 380:	0a021349 	beq	850ac <_start-0x43b7af54>
 384:	240c0000 	strcs	r0, [ip], #-0
 388:	3e0b0b00 	vmlacc.f64	d0, d11, d0
 38c:	0008030b 	andeq	r0, r8, fp, lsl #6
 390:	012e0d00 	teqeq	lr, r0, lsl #26
 394:	0e030c3f 	mcreq	12, 0, r0, cr3, cr15, {1}
 398:	0b3b0b3a 	bleq	ec3088 <_start-0x42d3cf78>
 39c:	13490c27 	movtne	r0, #39975	; 0x9c27
 3a0:	01120111 	tsteq	r2, r1, lsl r1
 3a4:	13010640 	movwne	r0, #5696	; 0x1640
 3a8:	050e0000 	streq	r0, [lr, #-0]
 3ac:	3a080300 	bcc	200fb4 <_start-0x439ff04c>
 3b0:	490b3b0b 	stmdbmi	fp, {r0, r1, r3, r8, r9, fp, ip, sp}
 3b4:	000a0213 	andeq	r0, sl, r3, lsl r2
 3b8:	00340f00 	eorseq	r0, r4, r0, lsl #30
 3bc:	0b3a0803 	bleq	e823d0 <_start-0x42d7dc30>
 3c0:	13490b3b 	movtne	r0, #39739	; 0x9b3b
 3c4:	00000a02 	andeq	r0, r0, r2, lsl #20
 3c8:	0b000f10 	bleq	4010 <_start-0x43bfbff0>
 3cc:	0013490b 	andseq	r4, r3, fp, lsl #18
 3d0:	00261100 	eoreq	r1, r6, r0, lsl #2
 3d4:	00001349 	andeq	r1, r0, r9, asr #6
 3d8:	03003412 	movweq	r3, #1042	; 0x412
 3dc:	3b0b3a0e 	blcc	2cec1c <_start-0x439313e4>
 3e0:	02134905 	andseq	r4, r3, #81920	; 0x14000
 3e4:	1300000a 	movwne	r0, #10
 3e8:	13490101 	movtne	r0, #37121	; 0x9101
 3ec:	00001301 	andeq	r1, r0, r1, lsl #6
 3f0:	49002114 	stmdbmi	r0, {r2, r4, r8, sp}
 3f4:	000b2f13 	andeq	r2, fp, r3, lsl pc
 3f8:	012e1500 	teqeq	lr, r0, lsl #10
 3fc:	0e030c3f 	mcreq	12, 0, r0, cr3, cr15, {1}
 400:	053b0b3a 	ldreq	r0, [fp, #-2874]!	; 0xfffff4c6
 404:	13490c27 	movtne	r0, #39975	; 0x9c27
 408:	01120111 	tsteq	r2, r1, lsl r1
 40c:	13010640 	movwne	r0, #5696	; 0x1640
 410:	05160000 	ldreq	r0, [r6, #-0]
 414:	3a0e0300 	bcc	38101c <_start-0x4387efe4>
 418:	49053b0b 	stmdbmi	r5, {r0, r1, r3, r8, r9, fp, ip, sp}
 41c:	000a0213 	andeq	r0, sl, r3, lsl r2
 420:	00341700 	eorseq	r1, r4, r0, lsl #14
 424:	0b3a0803 	bleq	e82438 <_start-0x42d7dbc8>
 428:	1349053b 	movtne	r0, #38203	; 0x953b
 42c:	00000a02 	andeq	r0, r0, r2, lsl #20
 430:	3f012e18 	svccc	0x00012e18
 434:	3a0e030c 	bcc	38106c <_start-0x4387ef94>
 438:	27053b0b 	strcs	r3, [r5, -fp, lsl #22]
 43c:	1113490c 	tstne	r3, ip, lsl #18
 440:	40011201 	andmi	r1, r1, r1, lsl #4
 444:	00000006 	andeq	r0, r0, r6
 448:	25011101 	strcs	r1, [r1, #-257]	; 0xfffffeff
 44c:	030b130e 	movweq	r1, #45838	; 0xb30e
 450:	110e1b0e 	tstne	lr, lr, lsl #22
 454:	10011201 	andne	r1, r1, r1, lsl #4
 458:	02000006 	andeq	r0, r0, #6
 45c:	0b0b0024 	bleq	2c04f4 <_start-0x4393fb0c>
 460:	0e030b3e 	vmoveq.16	d3[0], r0
 464:	13030000 	movwne	r0, #12288	; 0x3000
 468:	3a0b0b01 	bcc	2c3074 <_start-0x4393cf8c>
 46c:	010b3b0b 	tsteq	fp, fp, lsl #22
 470:	04000013 	streq	r0, [r0], #-19	; 0xffffffed
 474:	0803000d 	stmdaeq	r3, {r0, r2, r3}
 478:	0b3b0b3a 	bleq	ec3168 <_start-0x42d3ce98>
 47c:	0a381349 	beq	e051a8 <_start-0x42dfae58>
 480:	0d050000 	stceq	0, cr0, [r5, #-0]
 484:	3a0e0300 	bcc	38108c <_start-0x4387ef74>
 488:	490b3b0b 	stmdbmi	fp, {r0, r1, r3, r8, r9, fp, ip, sp}
 48c:	000a3813 	andeq	r3, sl, r3, lsl r8
 490:	00160600 	andseq	r0, r6, r0, lsl #12
 494:	0b3a0e03 	bleq	e83ca8 <_start-0x42d7c358>
 498:	13490b3b 	movtne	r0, #39739	; 0x9b3b
 49c:	16070000 	strne	r0, [r7], -r0
 4a0:	3a080300 	bcc	2010a8 <_start-0x439fef58>
 4a4:	490b3b0b 	stmdbmi	fp, {r0, r1, r3, r8, r9, fp, ip, sp}
 4a8:	08000013 	stmdaeq	r0, {r0, r1, r4}
 4ac:	0c3f012e 	ldfeqs	f0, [pc], #-184	; 3fc <_start-0x43bffc04>
 4b0:	0b3a0e03 	bleq	e83cc4 <_start-0x42d7c33c>
 4b4:	0c270b3b 	stceq	11, cr0, [r7], #-236	; 0xffffff14
 4b8:	01120111 	tsteq	r2, r1, lsl r1
 4bc:	13010640 	movwne	r0, #5696	; 0x1640
 4c0:	34090000 	strcc	r0, [r9], #-0
 4c4:	3a0e0300 	bcc	3810cc <_start-0x4387ef34>
 4c8:	490b3b0b 	stmdbmi	fp, {r0, r1, r3, r8, r9, fp, ip, sp}
 4cc:	000a0213 	andeq	r0, sl, r3, lsl r2
 4d0:	00240a00 	eoreq	r0, r4, r0, lsl #20
 4d4:	0b3e0b0b 	bleq	f83108 <_start-0x42c7cef8>
 4d8:	00000803 	andeq	r0, r0, r3, lsl #16
 4dc:	01110100 	tsteq	r1, r0, lsl #2
 4e0:	0b130e25 	bleq	4c3d7c <_start-0x4373c284>
 4e4:	0e1b0e03 	cdpeq	14, 1, cr0, cr11, cr3, {0}
 4e8:	01120111 	tsteq	r2, r1, lsl r1
 4ec:	00000610 	andeq	r0, r0, r0, lsl r6
 4f0:	0b002402 	bleq	9500 <_start-0x43bf6b00>
 4f4:	030b3e0b 	movweq	r3, #48651	; 0xbe0b
 4f8:	0300000e 	movweq	r0, #14
 4fc:	0b0b0113 	bleq	2c0950 <_start-0x4393f6b0>
 500:	0b3b0b3a 	bleq	ec31f0 <_start-0x42d3ce10>
 504:	00001301 	andeq	r1, r0, r1, lsl #6
 508:	03000d04 	movweq	r0, #3332	; 0xd04
 50c:	3b0b3a08 	blcc	2ced34 <_start-0x439312cc>
 510:	3813490b 	ldmdacc	r3, {r0, r1, r3, r8, fp, lr}
 514:	0500000a 	streq	r0, [r0, #-10]
 518:	0e03000d 	cdpeq	0, 0, cr0, cr3, cr13, {0}
 51c:	0b3b0b3a 	bleq	ec320c <_start-0x42d3cdf4>
 520:	0a381349 	beq	e0524c <_start-0x42dfadb4>
 524:	16060000 	strne	r0, [r6], -r0
 528:	3a0e0300 	bcc	381130 <_start-0x4387eed0>
 52c:	490b3b0b 	stmdbmi	fp, {r0, r1, r3, r8, r9, fp, ip, sp}
 530:	07000013 	smladeq	r0, r3, r0, r0
 534:	08030016 	stmdaeq	r3, {r1, r2, r4}
 538:	0b3b0b3a 	bleq	ec3228 <_start-0x42d3cdd8>
 53c:	00001349 	andeq	r1, r0, r9, asr #6
 540:	3f012e08 	svccc	0x00012e08
 544:	3a0e030c 	bcc	38117c <_start-0x4387ee84>
 548:	270b3b0b 	strcs	r3, [fp, -fp, lsl #22]
 54c:	1201110c 	andne	r1, r1, #12, 2
 550:	01064001 	tsteq	r6, r1
 554:	09000013 	stmdbeq	r0, {r0, r1, r4}
 558:	0e030005 	cdpeq	0, 0, cr0, cr3, cr5, {0}
 55c:	0b3b0b3a 	bleq	ec324c <_start-0x42d3cdb4>
 560:	0a021349 	beq	8528c <_start-0x43b7ad74>
 564:	2e0a0000 	cdpcs	0, 0, cr0, cr10, cr0, {0}
 568:	030c3f00 	movweq	r3, #52992	; 0xcf00
 56c:	3b0b3a0e 	blcc	2cedac <_start-0x43931254>
 570:	1201110b 	andne	r1, r1, #-1073741822	; 0xc0000002
 574:	00064001 	andeq	r4, r6, r1
 578:	11010000 	tstne	r1, r0
 57c:	130e2501 	movwne	r2, #58625	; 0xe501
 580:	1b0e030b 	blne	3811b4 <_start-0x4387ee4c>
 584:	1201110e 	andne	r1, r1, #-2147483645	; 0x80000003
 588:	00061001 	andeq	r1, r6, r1
 58c:	00240200 	eoreq	r0, r4, r0, lsl #4
 590:	0b3e0b0b 	bleq	f831c4 <_start-0x42c7ce3c>
 594:	00000e03 	andeq	r0, r0, r3, lsl #28
 598:	0b011303 	bleq	451ac <_start-0x43bbae54>
 59c:	3b0b3a0b 	blcc	2cedd0 <_start-0x43931230>
 5a0:	0013010b 	andseq	r0, r3, fp, lsl #2
 5a4:	000d0400 	andeq	r0, sp, r0, lsl #8
 5a8:	0b3a0803 	bleq	e825bc <_start-0x42d7da44>
 5ac:	13490b3b 	movtne	r0, #39739	; 0x9b3b
 5b0:	00000a38 	andeq	r0, r0, r8, lsr sl
 5b4:	03000d05 	movweq	r0, #3333	; 0xd05
 5b8:	3b0b3a0e 	blcc	2cedf8 <_start-0x43931208>
 5bc:	3813490b 	ldmdacc	r3, {r0, r1, r3, r8, fp, lr}
 5c0:	0600000a 	streq	r0, [r0], -sl
 5c4:	0e030016 	mcreq	0, 0, r0, cr3, cr6, {0}
 5c8:	0b3b0b3a 	bleq	ec32b8 <_start-0x42d3cd48>
 5cc:	00001349 	andeq	r1, r0, r9, asr #6
 5d0:	3f002e07 	svccc	0x00002e07
 5d4:	3a0e030c 	bcc	38120c <_start-0x4387edf4>
 5d8:	270b3b0b 	strcs	r3, [fp, -fp, lsl #22]
 5dc:	1201110c 	andne	r1, r1, #12, 2
 5e0:	00064001 	andeq	r4, r6, r1
 5e4:	11010000 	tstne	r1, r0
 5e8:	130e2501 	movwne	r2, #58625	; 0xe501
 5ec:	1b0e030b 	blne	381220 <_start-0x4387ede0>
 5f0:	1201110e 	andne	r1, r1, #-2147483645	; 0x80000003
 5f4:	00061001 	andeq	r1, r6, r1
 5f8:	00240200 	eoreq	r0, r4, r0, lsl #4
 5fc:	0b3e0b0b 	bleq	f83230 <_start-0x42c7cdd0>
 600:	00000e03 	andeq	r0, r0, r3, lsl #28
 604:	3f012e03 	svccc	0x00012e03
 608:	3a0e030c 	bcc	381240 <_start-0x4387edc0>
 60c:	270b3b0b 	strcs	r3, [fp, -fp, lsl #22]
 610:	1201110c 	andne	r1, r1, #12, 2
 614:	00064001 	andeq	r4, r6, r1
 618:	00050400 	andeq	r0, r5, r0, lsl #8
 61c:	0b3a0803 	bleq	e82630 <_start-0x42d7d9d0>
 620:	13490b3b 	movtne	r0, #39739	; 0x9b3b
 624:	00000a02 	andeq	r0, r0, r2, lsl #20
 628:	03003405 	movweq	r3, #1029	; 0x405
 62c:	3b0b3a08 	blcc	2cee54 <_start-0x439311ac>
 630:	0213490b 	andseq	r4, r3, #180224	; 0x2c000
 634:	0000000a 	andeq	r0, r0, sl
 638:	25011101 	strcs	r1, [r1, #-257]	; 0xfffffeff
 63c:	030b130e 	movweq	r1, #45838	; 0xb30e
 640:	110e1b0e 	tstne	lr, lr, lsl #22
 644:	10011201 	andne	r1, r1, r1, lsl #4
 648:	02000006 	andeq	r0, r0, #6
 64c:	0b0b0113 	bleq	2c0aa0 <_start-0x4393f560>
 650:	0b3b0b3a 	bleq	ec3340 <_start-0x42d3ccc0>
 654:	00001301 	andeq	r1, r0, r1, lsl #6
 658:	03000d03 	movweq	r0, #3331	; 0xd03
 65c:	3b0b3a08 	blcc	2cee84 <_start-0x4393117c>
 660:	3813490b 	ldmdacc	r3, {r0, r1, r3, r8, fp, lr}
 664:	0400000a 	streq	r0, [r0], #-10
 668:	0e03000d 	cdpeq	0, 0, cr0, cr3, cr13, {0}
 66c:	0b3b0b3a 	bleq	ec335c <_start-0x42d3cca4>
 670:	0a381349 	beq	e0539c <_start-0x42dfac64>
 674:	24050000 	strcs	r0, [r5], #-0
 678:	3e0b0b00 	vmlacc.f64	d0, d11, d0
 67c:	000e030b 	andeq	r0, lr, fp, lsl #6
 680:	00160600 	andseq	r0, r6, r0, lsl #12
 684:	0b3a0e03 	bleq	e83e98 <_start-0x42d7c168>
 688:	13490b3b 	movtne	r0, #39739	; 0x9b3b
 68c:	04070000 	streq	r0, [r7], #-0
 690:	3a0b0b01 	bcc	2c329c <_start-0x4393cd64>
 694:	010b3b0b 	tsteq	fp, fp, lsl #22
 698:	08000013 	stmdaeq	r0, {r0, r1, r4}
 69c:	0e030028 	cdpeq	0, 0, cr0, cr3, cr8, {1}
 6a0:	00000d1c 	andeq	r0, r0, ip, lsl sp
 6a4:	3f002e09 	svccc	0x00002e09
 6a8:	3a0e030c 	bcc	3812e0 <_start-0x4387ed20>
 6ac:	270b3b0b 	strcs	r3, [fp, -fp, lsl #22]
 6b0:	1201110c 	andne	r1, r1, #12, 2
 6b4:	00064001 	andeq	r4, r6, r1
 6b8:	012e0a00 	teqeq	lr, r0, lsl #20
 6bc:	0e030c3f 	mcreq	12, 0, r0, cr3, cr15, {1}
 6c0:	0b3b0b3a 	bleq	ec33b0 <_start-0x42d3cc50>
 6c4:	01110c27 	tsteq	r1, r7, lsr #24
 6c8:	06400112 			; <UNDEFINED> instruction: 0x06400112
 6cc:	00001301 	andeq	r1, r0, r1, lsl #6
 6d0:	0300050b 	movweq	r0, #1291	; 0x50b
 6d4:	3b0b3a08 	blcc	2ceefc <_start-0x43931104>
 6d8:	0213490b 	andseq	r4, r3, #180224	; 0x2c000
 6dc:	0000000a 	andeq	r0, r0, sl
 6e0:	25011101 	strcs	r1, [r1, #-257]	; 0xfffffeff
 6e4:	030b130e 	movweq	r1, #45838	; 0xb30e
 6e8:	110e1b0e 	tstne	lr, lr, lsl #22
 6ec:	10011201 	andne	r1, r1, r1, lsl #4
 6f0:	02000006 	andeq	r0, r0, #6
 6f4:	0b0b0024 	bleq	2c078c <_start-0x4393f874>
 6f8:	0e030b3e 	vmoveq.16	d3[0], r0
 6fc:	04030000 	streq	r0, [r3], #-0
 700:	3a0b0b01 	bcc	2c330c <_start-0x4393ccf4>
 704:	010b3b0b 	tsteq	fp, fp, lsl #22
 708:	04000013 	streq	r0, [r0], #-19	; 0xffffffed
 70c:	0e030028 	cdpeq	0, 0, cr0, cr3, cr8, {1}
 710:	00000d1c 	andeq	r0, r0, ip, lsl sp
 714:	03001605 	movweq	r1, #1541	; 0x605
 718:	3b0b3a0e 	blcc	2cef58 <_start-0x439310a8>
 71c:	0013490b 	andseq	r4, r3, fp, lsl #18
 720:	012e0600 	teqeq	lr, r0, lsl #12
 724:	0e030c3f 	mcreq	12, 0, r0, cr3, cr15, {1}
 728:	0b3b0b3a 	bleq	ec3418 <_start-0x42d3cbe8>
 72c:	01110c27 	tsteq	r1, r7, lsr #24
 730:	06400112 			; <UNDEFINED> instruction: 0x06400112
 734:	00001301 	andeq	r1, r0, r1, lsl #6
 738:	03003407 	movweq	r3, #1031	; 0x407
 73c:	3b0b3a0e 	blcc	2cef7c <_start-0x43931084>
 740:	0213490b 	andseq	r4, r3, #180224	; 0x2c000
 744:	0800000a 	stmdaeq	r0, {r1, r3}
 748:	0b0b000f 	bleq	2c078c <_start-0x4393f874>
 74c:	00001349 	andeq	r1, r0, r9, asr #6
 750:	3f002e09 	svccc	0x00002e09
 754:	3a0e030c 	bcc	38138c <_start-0x4387ec74>
 758:	270b3b0b 	strcs	r3, [fp, -fp, lsl #22]
 75c:	1201110c 	andne	r1, r1, #12, 2
 760:	00064001 	andeq	r4, r6, r1
 764:	012e0a00 	teqeq	lr, r0, lsl #20
 768:	0e030c3f 	mcreq	12, 0, r0, cr3, cr15, {1}
 76c:	0b3b0b3a 	bleq	ec345c <_start-0x42d3cba4>
 770:	13490c27 	movtne	r0, #39975	; 0x9c27
 774:	01120111 	tsteq	r2, r1, lsl r1
 778:	13010640 	movwne	r0, #5696	; 0x1640
 77c:	240b0000 	strcs	r0, [fp], #-0
 780:	3e0b0b00 	vmlacc.f64	d0, d11, d0
 784:	0008030b 	andeq	r0, r8, fp, lsl #6
 788:	00050c00 	andeq	r0, r5, r0, lsl #24
 78c:	0b3a0e03 	bleq	e83fa0 <_start-0x42d7c060>
 790:	13490b3b 	movtne	r0, #39739	; 0x9b3b
 794:	00000a02 	andeq	r0, r0, r2, lsl #20
 798:	0300340d 	movweq	r3, #1037	; 0x40d
 79c:	3b0b3a08 	blcc	2cefc4 <_start-0x4393103c>
 7a0:	0213490b 	andseq	r4, r3, #180224	; 0x2c000
 7a4:	0e00000a 	cdpeq	0, 0, cr0, cr0, cr10, {0}
 7a8:	13490026 	movtne	r0, #36902	; 0x9026
 7ac:	01000000 	tsteq	r0, r0
 7b0:	0e250111 	mcreq	1, 1, r0, cr5, cr1, {0}
 7b4:	0e030b13 	vmoveq.32	d3[0], r0
 7b8:	01110e1b 	tsteq	r1, fp, lsl lr
 7bc:	06100112 			; <UNDEFINED> instruction: 0x06100112
 7c0:	24020000 	strcs	r0, [r2], #-0
 7c4:	3e0b0b00 	vmlacc.f64	d0, d11, d0
 7c8:	000e030b 	andeq	r0, lr, fp, lsl #6
 7cc:	002e0300 	eoreq	r0, lr, r0, lsl #6
 7d0:	0e030c3f 	mcreq	12, 0, r0, cr3, cr15, {1}
 7d4:	0b3b0b3a 	bleq	ec34c4 <_start-0x42d3cb3c>
 7d8:	01111349 	tsteq	r1, r9, asr #6
 7dc:	06400112 			; <UNDEFINED> instruction: 0x06400112
 7e0:	24040000 	strcs	r0, [r4], #-0
 7e4:	3e0b0b00 	vmlacc.f64	d0, d11, d0
 7e8:	0008030b 	andeq	r0, r8, fp, lsl #6
	...

Disassembly of section .debug_aranges:

00000000 <.debug_aranges>:
   0:	0000001c 	andeq	r0, r0, ip, lsl r0
   4:	00000002 	andeq	r0, r0, r2
   8:	00040000 	andeq	r0, r4, r0
   c:	00000000 	andeq	r0, r0, r0
  10:	43c00000 	bicmi	r0, r0, #0
  14:	0000021c 	andeq	r0, r0, ip, lsl r2
	...
  20:	0000001c 	andeq	r0, r0, ip, lsl r0
  24:	005f0002 	subseq	r0, pc, r2
  28:	00040000 	andeq	r0, r4, r0
  2c:	00000000 	andeq	r0, r0, r0
  30:	43c00220 	bicmi	r0, r0, #32, 4
  34:	000000b0 	strheq	r0, [r0], -r0	; <UNPREDICTABLE>
	...
  40:	0000001c 	andeq	r0, r0, ip, lsl r0
  44:	00c60002 	sbceq	r0, r6, r2
  48:	00040000 	andeq	r0, r4, r0
  4c:	00000000 	andeq	r0, r0, r0
  50:	43c002d0 	bicmi	r0, r0, #208, 4
  54:	00000094 	muleq	r0, r4, r0
	...
  60:	0000001c 	andeq	r0, r0, ip, lsl r0
  64:	012d0002 	teqeq	sp, r2
  68:	00040000 	andeq	r0, r4, r0
  6c:	00000000 	andeq	r0, r0, r0
  70:	43c00364 	bicmi	r0, r0, #100, 6	; 0x90000001
  74:	000011d8 	ldrdeq	r1, [r0], -r8
	...
  80:	0000001c 	andeq	r0, r0, ip, lsl r0
  84:	05e20002 	strbeq	r0, [r2, #2]!
  88:	00040000 	andeq	r0, r4, r0
  8c:	00000000 	andeq	r0, r0, r0
  90:	43c0153c 	bicmi	r1, r0, #60, 10	; 0xf000000
  94:	000001a8 	andeq	r0, r0, r8, lsr #3
	...
  a0:	0000001c 	andeq	r0, r0, ip, lsl r0
  a4:	09140002 	ldmdbeq	r4, {r1}
  a8:	00040000 	andeq	r0, r4, r0
  ac:	00000000 	andeq	r0, r0, r0
  b0:	43c016e4 	bicmi	r1, r0, #228, 12	; 0xe400000
  b4:	00000128 	andeq	r0, r0, r8, lsr #2
	...
  c0:	0000001c 	andeq	r0, r0, ip, lsl r0
  c4:	09bc0002 	ldmibeq	ip!, {r1}
  c8:	00040000 	andeq	r0, r4, r0
  cc:	00000000 	andeq	r0, r0, r0
  d0:	43c0180c 	bicmi	r1, r0, #12, 16	; 0xc0000
  d4:	00000cf0 	strdeq	r0, [r0], -r0	; <UNPREDICTABLE>
	...
  e0:	0000001c 	andeq	r0, r0, ip, lsl r0
  e4:	11850002 	orrne	r0, r5, r2
  e8:	00040000 	andeq	r0, r4, r0
  ec:	00000000 	andeq	r0, r0, r0
  f0:	43c024fc 	bicmi	r2, r0, #252, 8	; 0xfc000000
  f4:	000002c8 	andeq	r0, r0, r8, asr #5
	...
 100:	0000001c 	andeq	r0, r0, ip, lsl r0
 104:	14cb0002 	strbne	r0, [fp], #2
 108:	00040000 	andeq	r0, r4, r0
 10c:	00000000 	andeq	r0, r0, r0
 110:	43c027c4 	bicmi	r2, r0, #196, 14	; 0x3100000
 114:	0000043c 	andeq	r0, r0, ip, lsr r4
	...
 120:	0000001c 	andeq	r0, r0, ip, lsl r0
 124:	19be0002 	ldmibne	lr!, {r1}
 128:	00040000 	andeq	r0, r4, r0
 12c:	00000000 	andeq	r0, r0, r0
 130:	43c02c00 	bicmi	r2, r0, #0, 24
 134:	000003a0 	andeq	r0, r0, r0, lsr #7
	...
 140:	0000001c 	andeq	r0, r0, ip, lsl r0
 144:	20870002 	addcs	r0, r7, r2
 148:	00040000 	andeq	r0, r4, r0
 14c:	00000000 	andeq	r0, r0, r0
 150:	43c02fa0 	bicmi	r2, r0, #160, 30	; 0x280
 154:	00000070 	andeq	r0, r0, r0, ror r0
	...
 160:	0000001c 	andeq	r0, r0, ip, lsl r0
 164:	20ef0002 	rsccs	r0, pc, r2
 168:	00040000 	andeq	r0, r4, r0
 16c:	00000000 	andeq	r0, r0, r0
 170:	43c03010 	bicmi	r3, r0, #16
 174:	00000314 	andeq	r0, r0, r4, lsl r3
	...
 180:	0000001c 	andeq	r0, r0, ip, lsl r0
 184:	26b20002 	ldrtcs	r0, [r2], r2
 188:	00040000 	andeq	r0, r4, r0
 18c:	00000000 	andeq	r0, r0, r0
 190:	43c03324 	bicmi	r3, r0, #36, 6	; 0x90000000
 194:	0000060c 	andeq	r0, r0, ip, lsl #12
	...
 1a0:	0000001c 	andeq	r0, r0, ip, lsl r0
 1a4:	28a50002 	stmiacs	r5!, {r1}
 1a8:	00040000 	andeq	r0, r4, r0
 1ac:	00000000 	andeq	r0, r0, r0
 1b0:	43c03930 	bicmi	r3, r0, #48, 18	; 0xc0000
 1b4:	00000054 	andeq	r0, r0, r4, asr r0
	...

Disassembly of section .debug_loc:

00000000 <.debug_loc>:
   0:	00000000 	andeq	r0, r0, r0
   4:	00000004 	andeq	r0, r0, r4
   8:	007d0002 	rsbseq	r0, sp, r2
   c:	00000004 	andeq	r0, r0, r4
  10:	00000008 	andeq	r0, r0, r8
  14:	047d0002 	ldrbteq	r0, [sp], #-2
  18:	00000008 	andeq	r0, r0, r8
  1c:	00000050 	andeq	r0, r0, r0, asr r0
  20:	047b0002 	ldrbteq	r0, [fp], #-2
	...
  2c:	00000050 	andeq	r0, r0, r0, asr r0
  30:	00000054 	andeq	r0, r0, r4, asr r0
  34:	007d0002 	rsbseq	r0, sp, r2
  38:	00000054 	andeq	r0, r0, r4, asr r0
  3c:	00000058 	andeq	r0, r0, r8, asr r0
  40:	087d0002 	ldmdaeq	sp!, {r1}^
  44:	00000058 	andeq	r0, r0, r8, asr r0
  48:	000001f4 	strdeq	r0, [r0], -r4
  4c:	047b0002 	ldrbteq	r0, [fp], #-2
	...
  58:	000001f4 	strdeq	r0, [r0], -r4
  5c:	000001f8 	strdeq	r0, [r0], -r8
  60:	007d0002 	rsbseq	r0, sp, r2
  64:	000001f8 	strdeq	r0, [r0], -r8
  68:	000001fc 	strdeq	r0, [r0], -ip
  6c:	087d0002 	ldmdaeq	sp!, {r1}^
  70:	000001fc 	strdeq	r0, [r0], -ip
  74:	00000260 	andeq	r0, r0, r0, ror #4
  78:	047b0002 	ldrbteq	r0, [fp], #-2
	...
  84:	00000260 	andeq	r0, r0, r0, ror #4
  88:	00000264 	andeq	r0, r0, r4, ror #4
  8c:	007d0002 	rsbseq	r0, sp, r2
  90:	00000264 	andeq	r0, r0, r4, ror #4
  94:	00000268 	andeq	r0, r0, r8, ror #4
  98:	047d0002 	ldrbteq	r0, [sp], #-2
  9c:	00000268 	andeq	r0, r0, r8, ror #4
  a0:	000002f4 	strdeq	r0, [r0], -r4
  a4:	047b0002 	ldrbteq	r0, [fp], #-2
	...
  b0:	000002f4 	strdeq	r0, [r0], -r4
  b4:	000002f8 	strdeq	r0, [r0], -r8
  b8:	007d0002 	rsbseq	r0, sp, r2
  bc:	000002f8 	strdeq	r0, [r0], -r8
  c0:	000002fc 	strdeq	r0, [r0], -ip
  c4:	087d0002 	ldmdaeq	sp!, {r1}^
  c8:	000002fc 	strdeq	r0, [r0], -ip
  cc:	0000078c 	andeq	r0, r0, ip, lsl #15
  d0:	047b0002 	ldrbteq	r0, [fp], #-2
	...
  dc:	0000078c 	andeq	r0, r0, ip, lsl #15
  e0:	00000790 	muleq	r0, r0, r7
  e4:	007d0002 	rsbseq	r0, sp, r2
  e8:	00000790 	muleq	r0, r0, r7
  ec:	00000794 	muleq	r0, r4, r7
  f0:	047d0002 	ldrbteq	r0, [sp], #-2
  f4:	00000794 	muleq	r0, r4, r7
  f8:	0000080c 	andeq	r0, r0, ip, lsl #16
  fc:	047b0002 	ldrbteq	r0, [fp], #-2
	...
 108:	0000080c 	andeq	r0, r0, ip, lsl #16
 10c:	00000810 	andeq	r0, r0, r0, lsl r8
 110:	007d0002 	rsbseq	r0, sp, r2
 114:	00000810 	andeq	r0, r0, r0, lsl r8
 118:	00000814 	andeq	r0, r0, r4, lsl r8
 11c:	087d0002 	ldmdaeq	sp!, {r1}^
 120:	00000814 	andeq	r0, r0, r4, lsl r8
 124:	00001140 	andeq	r1, r0, r0, asr #2
 128:	047b0002 	ldrbteq	r0, [fp], #-2
	...
 134:	00001140 	andeq	r1, r0, r0, asr #2
 138:	00001144 	andeq	r1, r0, r4, asr #2
 13c:	007d0002 	rsbseq	r0, sp, r2
 140:	00001144 	andeq	r1, r0, r4, asr #2
 144:	00001148 	andeq	r1, r0, r8, asr #2
 148:	0c7d0002 	ldcleq	0, cr0, [sp], #-8
 14c:	00001148 	andeq	r1, r0, r8, asr #2
 150:	0000114c 	andeq	r1, r0, ip, asr #2
 154:	147d0002 	ldrbtne	r0, [sp], #-2
 158:	0000114c 	andeq	r1, r0, ip, asr #2
 15c:	0000118c 	andeq	r1, r0, ip, lsl #3
 160:	107b0002 	rsbsne	r0, fp, r2
	...
 16c:	0000118c 	andeq	r1, r0, ip, lsl #3
 170:	00001190 	muleq	r0, r0, r1
 174:	007d0002 	rsbseq	r0, sp, r2
 178:	00001190 	muleq	r0, r0, r1
 17c:	00001194 	muleq	r0, r4, r1
 180:	107d0002 	rsbsne	r0, sp, r2
 184:	00001194 	muleq	r0, r4, r1
 188:	00001198 	muleq	r0, r8, r1
 18c:	187d0002 	ldmdane	sp!, {r1}^
 190:	00001198 	muleq	r0, r8, r1
 194:	000011d8 	ldrdeq	r1, [r0], -r8
 198:	147b0002 	ldrbtne	r0, [fp], #-2
	...
 1a8:	00000004 	andeq	r0, r0, r4
 1ac:	007d0002 	rsbseq	r0, sp, r2
 1b0:	00000004 	andeq	r0, r0, r4
 1b4:	00000008 	andeq	r0, r0, r8
 1b8:	047d0002 	ldrbteq	r0, [sp], #-2
 1bc:	00000008 	andeq	r0, r0, r8
 1c0:	000000c0 	andeq	r0, r0, r0, asr #1
 1c4:	047b0002 	ldrbteq	r0, [fp], #-2
	...
 1d0:	000000c0 	andeq	r0, r0, r0, asr #1
 1d4:	000000c4 	andeq	r0, r0, r4, asr #1
 1d8:	007d0002 	rsbseq	r0, sp, r2
 1dc:	000000c4 	andeq	r0, r0, r4, asr #1
 1e0:	000000c8 	andeq	r0, r0, r8, asr #1
 1e4:	087d0002 	ldmdaeq	sp!, {r1}^
 1e8:	000000c8 	andeq	r0, r0, r8, asr #1
 1ec:	00000118 	andeq	r0, r0, r8, lsl r1
 1f0:	047b0002 	ldrbteq	r0, [fp], #-2
	...
 1fc:	00000118 	andeq	r0, r0, r8, lsl r1
 200:	0000011c 	andeq	r0, r0, ip, lsl r1
 204:	007d0002 	rsbseq	r0, sp, r2
 208:	0000011c 	andeq	r0, r0, ip, lsl r1
 20c:	00000120 	andeq	r0, r0, r0, lsr #2
 210:	087d0002 	ldmdaeq	sp!, {r1}^
 214:	00000120 	andeq	r0, r0, r0, lsr #2
 218:	00000160 	andeq	r0, r0, r0, ror #2
 21c:	047b0002 	ldrbteq	r0, [fp], #-2
	...
 228:	00000160 	andeq	r0, r0, r0, ror #2
 22c:	00000164 	andeq	r0, r0, r4, ror #2
 230:	007d0002 	rsbseq	r0, sp, r2
 234:	00000164 	andeq	r0, r0, r4, ror #2
 238:	00000168 	andeq	r0, r0, r8, ror #2
 23c:	047d0002 	ldrbteq	r0, [sp], #-2
 240:	00000168 	andeq	r0, r0, r8, ror #2
 244:	000001a8 	andeq	r0, r0, r8, lsr #3
 248:	047b0002 	ldrbteq	r0, [fp], #-2
	...
 258:	00000004 	andeq	r0, r0, r4
 25c:	007d0002 	rsbseq	r0, sp, r2
 260:	00000004 	andeq	r0, r0, r4
 264:	00000008 	andeq	r0, r0, r8
 268:	087d0002 	ldmdaeq	sp!, {r1}^
 26c:	00000008 	andeq	r0, r0, r8
 270:	00000104 	andeq	r0, r0, r4, lsl #2
 274:	047b0002 	ldrbteq	r0, [fp], #-2
	...
 280:	00000104 	andeq	r0, r0, r4, lsl #2
 284:	00000108 	andeq	r0, r0, r8, lsl #2
 288:	007d0002 	rsbseq	r0, sp, r2
 28c:	00000108 	andeq	r0, r0, r8, lsl #2
 290:	0000010c 	andeq	r0, r0, ip, lsl #2
 294:	047d0002 	ldrbteq	r0, [sp], #-2
 298:	0000010c 	andeq	r0, r0, ip, lsl #2
 29c:	00000128 	andeq	r0, r0, r8, lsr #2
 2a0:	047b0002 	ldrbteq	r0, [fp], #-2
	...
 2b0:	00000004 	andeq	r0, r0, r4
 2b4:	007d0002 	rsbseq	r0, sp, r2
 2b8:	00000004 	andeq	r0, r0, r4
 2bc:	00000008 	andeq	r0, r0, r8
 2c0:	047d0002 	ldrbteq	r0, [sp], #-2
 2c4:	00000008 	andeq	r0, r0, r8
 2c8:	000001a0 	andeq	r0, r0, r0, lsr #3
 2cc:	047b0002 	ldrbteq	r0, [fp], #-2
	...
 2d8:	000001a0 	andeq	r0, r0, r0, lsr #3
 2dc:	000001a4 	andeq	r0, r0, r4, lsr #3
 2e0:	007d0002 	rsbseq	r0, sp, r2
 2e4:	000001a4 	andeq	r0, r0, r4, lsr #3
 2e8:	000001a8 	andeq	r0, r0, r8, lsr #3
 2ec:	047d0002 	ldrbteq	r0, [sp], #-2
 2f0:	000001a8 	andeq	r0, r0, r8, lsr #3
 2f4:	000001f8 	strdeq	r0, [r0], -r8
 2f8:	047b0002 	ldrbteq	r0, [fp], #-2
	...
 304:	000001f8 	strdeq	r0, [r0], -r8
 308:	000001fc 	strdeq	r0, [r0], -ip
 30c:	007d0002 	rsbseq	r0, sp, r2
 310:	000001fc 	strdeq	r0, [r0], -ip
 314:	00000200 	andeq	r0, r0, r0, lsl #4
 318:	087d0002 	ldmdaeq	sp!, {r1}^
 31c:	00000200 	andeq	r0, r0, r0, lsl #4
 320:	00000254 	andeq	r0, r0, r4, asr r2
 324:	047b0002 	ldrbteq	r0, [fp], #-2
	...
 330:	00000254 	andeq	r0, r0, r4, asr r2
 334:	00000258 	andeq	r0, r0, r8, asr r2
 338:	007d0002 	rsbseq	r0, sp, r2
 33c:	00000258 	andeq	r0, r0, r8, asr r2
 340:	0000025c 	andeq	r0, r0, ip, asr r2
 344:	087d0002 	ldmdaeq	sp!, {r1}^
 348:	0000025c 	andeq	r0, r0, ip, asr r2
 34c:	000002d4 	ldrdeq	r0, [r0], -r4
 350:	047b0002 	ldrbteq	r0, [fp], #-2
	...
 35c:	000002d4 	ldrdeq	r0, [r0], -r4
 360:	000002d8 	ldrdeq	r0, [r0], -r8
 364:	007d0002 	rsbseq	r0, sp, r2
 368:	000002d8 	ldrdeq	r0, [r0], -r8
 36c:	000002dc 	ldrdeq	r0, [r0], -ip
 370:	087d0002 	ldmdaeq	sp!, {r1}^
 374:	000002dc 	ldrdeq	r0, [r0], -ip
 378:	00000324 	andeq	r0, r0, r4, lsr #6
 37c:	047b0002 	ldrbteq	r0, [fp], #-2
	...
 388:	00000324 	andeq	r0, r0, r4, lsr #6
 38c:	00000328 	andeq	r0, r0, r8, lsr #6
 390:	007d0002 	rsbseq	r0, sp, r2
 394:	00000328 	andeq	r0, r0, r8, lsr #6
 398:	0000032c 	andeq	r0, r0, ip, lsr #6
 39c:	087d0002 	ldmdaeq	sp!, {r1}^
 3a0:	0000032c 	andeq	r0, r0, ip, lsr #6
 3a4:	000003f0 	strdeq	r0, [r0], -r0	; <UNPREDICTABLE>
 3a8:	047b0002 	ldrbteq	r0, [fp], #-2
	...
 3b4:	000003f0 	strdeq	r0, [r0], -r0	; <UNPREDICTABLE>
 3b8:	000003f4 	strdeq	r0, [r0], -r4
 3bc:	007d0002 	rsbseq	r0, sp, r2
 3c0:	000003f4 	strdeq	r0, [r0], -r4
 3c4:	000003f8 	strdeq	r0, [r0], -r8
 3c8:	047d0002 	ldrbteq	r0, [sp], #-2
 3cc:	000003f8 	strdeq	r0, [r0], -r8
 3d0:	000004a4 	andeq	r0, r0, r4, lsr #9
 3d4:	047b0002 	ldrbteq	r0, [fp], #-2
	...
 3e0:	000004a4 	andeq	r0, r0, r4, lsr #9
 3e4:	000004a8 	andeq	r0, r0, r8, lsr #9
 3e8:	007d0002 	rsbseq	r0, sp, r2
 3ec:	000004a8 	andeq	r0, r0, r8, lsr #9
 3f0:	000004ac 	andeq	r0, r0, ip, lsr #9
 3f4:	087d0002 	ldmdaeq	sp!, {r1}^
 3f8:	000004ac 	andeq	r0, r0, ip, lsr #9
 3fc:	00000628 	andeq	r0, r0, r8, lsr #12
 400:	047b0002 	ldrbteq	r0, [fp], #-2
	...
 40c:	00000628 	andeq	r0, r0, r8, lsr #12
 410:	0000062c 	andeq	r0, r0, ip, lsr #12
 414:	007d0002 	rsbseq	r0, sp, r2
 418:	0000062c 	andeq	r0, r0, ip, lsr #12
 41c:	00000630 	andeq	r0, r0, r0, lsr r6
 420:	047d0002 	ldrbteq	r0, [sp], #-2
 424:	00000630 	andeq	r0, r0, r0, lsr r6
 428:	000007b8 			; <UNDEFINED> instruction: 0x000007b8
 42c:	047b0002 	ldrbteq	r0, [fp], #-2
	...
 438:	000007b8 			; <UNDEFINED> instruction: 0x000007b8
 43c:	000007bc 			; <UNDEFINED> instruction: 0x000007bc
 440:	007d0002 	rsbseq	r0, sp, r2
 444:	000007bc 			; <UNDEFINED> instruction: 0x000007bc
 448:	000007c0 	andeq	r0, r0, r0, asr #15
 44c:	047d0002 	ldrbteq	r0, [sp], #-2
 450:	000007c0 	andeq	r0, r0, r0, asr #15
 454:	000008f4 	strdeq	r0, [r0], -r4
 458:	047b0002 	ldrbteq	r0, [fp], #-2
	...
 464:	000008f4 	strdeq	r0, [r0], -r4
 468:	000008f8 	strdeq	r0, [r0], -r8
 46c:	007d0002 	rsbseq	r0, sp, r2
 470:	000008f8 	strdeq	r0, [r0], -r8
 474:	000008fc 	strdeq	r0, [r0], -ip
 478:	087d0002 	ldmdaeq	sp!, {r1}^
 47c:	000008fc 	strdeq	r0, [r0], -ip
 480:	00000c74 	andeq	r0, r0, r4, ror ip
 484:	047b0002 	ldrbteq	r0, [fp], #-2
	...
 490:	00000c74 	andeq	r0, r0, r4, ror ip
 494:	00000c78 	andeq	r0, r0, r8, ror ip
 498:	007d0002 	rsbseq	r0, sp, r2
 49c:	00000c78 	andeq	r0, r0, r8, ror ip
 4a0:	00000c7c 	andeq	r0, r0, ip, ror ip
 4a4:	047d0002 	ldrbteq	r0, [sp], #-2
 4a8:	00000c7c 	andeq	r0, r0, ip, ror ip
 4ac:	00000cf0 	strdeq	r0, [r0], -r0	; <UNPREDICTABLE>
 4b0:	047b0002 	ldrbteq	r0, [fp], #-2
	...
 4c0:	00000004 	andeq	r0, r0, r4
 4c4:	007d0002 	rsbseq	r0, sp, r2
 4c8:	00000004 	andeq	r0, r0, r4
 4cc:	00000008 	andeq	r0, r0, r8
 4d0:	087d0002 	ldmdaeq	sp!, {r1}^
 4d4:	00000008 	andeq	r0, r0, r8
 4d8:	000002c8 	andeq	r0, r0, r8, asr #5
 4dc:	047b0002 	ldrbteq	r0, [fp], #-2
	...
 4ec:	00000004 	andeq	r0, r0, r4
 4f0:	007d0002 	rsbseq	r0, sp, r2
 4f4:	00000004 	andeq	r0, r0, r4
 4f8:	00000008 	andeq	r0, r0, r8
 4fc:	087d0002 	ldmdaeq	sp!, {r1}^
 500:	00000008 	andeq	r0, r0, r8
 504:	00000158 	andeq	r0, r0, r8, asr r1
 508:	047b0002 	ldrbteq	r0, [fp], #-2
	...
 514:	00000158 	andeq	r0, r0, r8, asr r1
 518:	0000015c 	andeq	r0, r0, ip, asr r1
 51c:	007d0002 	rsbseq	r0, sp, r2
 520:	0000015c 	andeq	r0, r0, ip, asr r1
 524:	00000160 	andeq	r0, r0, r0, ror #2
 528:	087d0002 	ldmdaeq	sp!, {r1}^
 52c:	00000160 	andeq	r0, r0, r0, ror #2
 530:	000002ac 	andeq	r0, r0, ip, lsr #5
 534:	047b0002 	ldrbteq	r0, [fp], #-2
	...
 540:	000002ac 	andeq	r0, r0, ip, lsr #5
 544:	000002b0 			; <UNDEFINED> instruction: 0x000002b0
 548:	007d0002 	rsbseq	r0, sp, r2
 54c:	000002b0 			; <UNDEFINED> instruction: 0x000002b0
 550:	000002b4 			; <UNDEFINED> instruction: 0x000002b4
 554:	087d0002 	ldmdaeq	sp!, {r1}^
 558:	000002b4 			; <UNDEFINED> instruction: 0x000002b4
 55c:	000003fc 	strdeq	r0, [r0], -ip
 560:	047b0002 	ldrbteq	r0, [fp], #-2
	...
 56c:	000003fc 	strdeq	r0, [r0], -ip
 570:	00000400 	andeq	r0, r0, r0, lsl #8
 574:	007d0002 	rsbseq	r0, sp, r2
 578:	00000400 	andeq	r0, r0, r0, lsl #8
 57c:	00000404 	andeq	r0, r0, r4, lsl #8
 580:	047d0002 	ldrbteq	r0, [sp], #-2
 584:	00000404 	andeq	r0, r0, r4, lsl #8
 588:	0000043c 	andeq	r0, r0, ip, lsr r4
 58c:	047b0002 	ldrbteq	r0, [fp], #-2
	...
 59c:	00000004 	andeq	r0, r0, r4
 5a0:	007d0002 	rsbseq	r0, sp, r2
 5a4:	00000004 	andeq	r0, r0, r4
 5a8:	00000008 	andeq	r0, r0, r8
 5ac:	047d0002 	ldrbteq	r0, [sp], #-2
 5b0:	00000008 	andeq	r0, r0, r8
 5b4:	00000144 	andeq	r0, r0, r4, asr #2
 5b8:	047b0002 	ldrbteq	r0, [fp], #-2
	...
 5c4:	00000144 	andeq	r0, r0, r4, asr #2
 5c8:	00000148 	andeq	r0, r0, r8, asr #2
 5cc:	007d0002 	rsbseq	r0, sp, r2
 5d0:	00000148 	andeq	r0, r0, r8, asr #2
 5d4:	0000014c 	andeq	r0, r0, ip, asr #2
 5d8:	047d0002 	ldrbteq	r0, [sp], #-2
 5dc:	0000014c 	andeq	r0, r0, ip, asr #2
 5e0:	000003a0 	andeq	r0, r0, r0, lsr #7
 5e4:	047b0002 	ldrbteq	r0, [fp], #-2
	...
 5f4:	00000004 	andeq	r0, r0, r4
 5f8:	007d0002 	rsbseq	r0, sp, r2
 5fc:	00000004 	andeq	r0, r0, r4
 600:	00000008 	andeq	r0, r0, r8
 604:	047d0002 	ldrbteq	r0, [sp], #-2
 608:	00000008 	andeq	r0, r0, r8
 60c:	00000070 	andeq	r0, r0, r0, ror r0
 610:	047b0002 	ldrbteq	r0, [fp], #-2
	...
 620:	00000004 	andeq	r0, r0, r4
 624:	007d0002 	rsbseq	r0, sp, r2
 628:	00000004 	andeq	r0, r0, r4
 62c:	00000008 	andeq	r0, r0, r8
 630:	047d0002 	ldrbteq	r0, [sp], #-2
 634:	00000008 	andeq	r0, r0, r8
 638:	000000e8 	andeq	r0, r0, r8, ror #1
 63c:	047b0002 	ldrbteq	r0, [fp], #-2
	...
 648:	000000e8 	andeq	r0, r0, r8, ror #1
 64c:	000000ec 	andeq	r0, r0, ip, ror #1
 650:	007d0002 	rsbseq	r0, sp, r2
 654:	000000ec 	andeq	r0, r0, ip, ror #1
 658:	000000f0 	strdeq	r0, [r0], -r0	; <UNPREDICTABLE>
 65c:	047d0002 	ldrbteq	r0, [sp], #-2
 660:	000000f0 	strdeq	r0, [r0], -r0	; <UNPREDICTABLE>
 664:	00000140 	andeq	r0, r0, r0, asr #2
 668:	047b0002 	ldrbteq	r0, [fp], #-2
	...
 674:	00000140 	andeq	r0, r0, r0, asr #2
 678:	00000144 	andeq	r0, r0, r4, asr #2
 67c:	007d0002 	rsbseq	r0, sp, r2
 680:	00000144 	andeq	r0, r0, r4, asr #2
 684:	00000148 	andeq	r0, r0, r8, asr #2
 688:	047d0002 	ldrbteq	r0, [sp], #-2
 68c:	00000148 	andeq	r0, r0, r8, asr #2
 690:	00000198 	muleq	r0, r8, r1
 694:	047b0002 	ldrbteq	r0, [fp], #-2
	...
 6a0:	00000198 	muleq	r0, r8, r1
 6a4:	0000019c 	muleq	r0, ip, r1
 6a8:	007d0002 	rsbseq	r0, sp, r2
 6ac:	0000019c 	muleq	r0, ip, r1
 6b0:	000001a0 	andeq	r0, r0, r0, lsr #3
 6b4:	047d0002 	ldrbteq	r0, [sp], #-2
 6b8:	000001a0 	andeq	r0, r0, r0, lsr #3
 6bc:	000001f0 	strdeq	r0, [r0], -r0	; <UNPREDICTABLE>
 6c0:	047b0002 	ldrbteq	r0, [fp], #-2
	...
 6cc:	000001f0 	strdeq	r0, [r0], -r0	; <UNPREDICTABLE>
 6d0:	000001f4 	strdeq	r0, [r0], -r4
 6d4:	007d0002 	rsbseq	r0, sp, r2
 6d8:	000001f4 	strdeq	r0, [r0], -r4
 6dc:	000001f8 	strdeq	r0, [r0], -r8
 6e0:	087d0002 	ldmdaeq	sp!, {r1}^
 6e4:	000001f8 	strdeq	r0, [r0], -r8
 6e8:	0000021c 	andeq	r0, r0, ip, lsl r2
 6ec:	047b0002 	ldrbteq	r0, [fp], #-2
	...
 6f8:	0000021c 	andeq	r0, r0, ip, lsl r2
 6fc:	00000220 	andeq	r0, r0, r0, lsr #4
 700:	007d0002 	rsbseq	r0, sp, r2
 704:	00000220 	andeq	r0, r0, r0, lsr #4
 708:	00000224 	andeq	r0, r0, r4, lsr #4
 70c:	087d0002 	ldmdaeq	sp!, {r1}^
 710:	00000224 	andeq	r0, r0, r4, lsr #4
 714:	00000248 	andeq	r0, r0, r8, asr #4
 718:	047b0002 	ldrbteq	r0, [fp], #-2
	...
 724:	00000248 	andeq	r0, r0, r8, asr #4
 728:	0000024c 	andeq	r0, r0, ip, asr #4
 72c:	007d0002 	rsbseq	r0, sp, r2
 730:	0000024c 	andeq	r0, r0, ip, asr #4
 734:	00000250 	andeq	r0, r0, r0, asr r2
 738:	087d0002 	ldmdaeq	sp!, {r1}^
 73c:	00000250 	andeq	r0, r0, r0, asr r2
 740:	00000274 	andeq	r0, r0, r4, ror r2
 744:	047b0002 	ldrbteq	r0, [fp], #-2
	...
 750:	00000274 	andeq	r0, r0, r4, ror r2
 754:	00000278 	andeq	r0, r0, r8, ror r2
 758:	007d0002 	rsbseq	r0, sp, r2
 75c:	00000278 	andeq	r0, r0, r8, ror r2
 760:	0000027c 	andeq	r0, r0, ip, ror r2
 764:	087d0002 	ldmdaeq	sp!, {r1}^
 768:	0000027c 	andeq	r0, r0, ip, ror r2
 76c:	000002c8 	andeq	r0, r0, r8, asr #5
 770:	047b0002 	ldrbteq	r0, [fp], #-2
	...
 77c:	000002c8 	andeq	r0, r0, r8, asr #5
 780:	000002cc 	andeq	r0, r0, ip, asr #5
 784:	007d0002 	rsbseq	r0, sp, r2
 788:	000002cc 	andeq	r0, r0, ip, asr #5
 78c:	000002d0 	ldrdeq	r0, [r0], -r0	; <UNPREDICTABLE>
 790:	087d0002 	ldmdaeq	sp!, {r1}^
 794:	000002d0 	ldrdeq	r0, [r0], -r0	; <UNPREDICTABLE>
 798:	00000314 	andeq	r0, r0, r4, lsl r3
 79c:	047b0002 	ldrbteq	r0, [fp], #-2
	...
 7ac:	00000004 	andeq	r0, r0, r4
 7b0:	007d0002 	rsbseq	r0, sp, r2
 7b4:	00000004 	andeq	r0, r0, r4
 7b8:	00000008 	andeq	r0, r0, r8
 7bc:	047d0002 	ldrbteq	r0, [sp], #-2
 7c0:	00000008 	andeq	r0, r0, r8
 7c4:	00000110 	andeq	r0, r0, r0, lsl r1
 7c8:	047b0002 	ldrbteq	r0, [fp], #-2
	...
 7d4:	00000110 	andeq	r0, r0, r0, lsl r1
 7d8:	00000114 	andeq	r0, r0, r4, lsl r1
 7dc:	007d0002 	rsbseq	r0, sp, r2
 7e0:	00000114 	andeq	r0, r0, r4, lsl r1
 7e4:	00000118 	andeq	r0, r0, r8, lsl r1
 7e8:	047d0002 	ldrbteq	r0, [sp], #-2
 7ec:	00000118 	andeq	r0, r0, r8, lsl r1
 7f0:	00000158 	andeq	r0, r0, r8, asr r1
 7f4:	047b0002 	ldrbteq	r0, [fp], #-2
	...
 800:	00000158 	andeq	r0, r0, r8, asr r1
 804:	0000015c 	andeq	r0, r0, ip, asr r1
 808:	007d0002 	rsbseq	r0, sp, r2
 80c:	0000015c 	andeq	r0, r0, ip, asr r1
 810:	00000160 	andeq	r0, r0, r0, ror #2
 814:	087d0002 	ldmdaeq	sp!, {r1}^
 818:	00000160 	andeq	r0, r0, r0, ror #2
 81c:	000001f8 	strdeq	r0, [r0], -r8
 820:	047b0002 	ldrbteq	r0, [fp], #-2
	...
 82c:	000001f8 	strdeq	r0, [r0], -r8
 830:	000001fc 	strdeq	r0, [r0], -ip
 834:	007d0002 	rsbseq	r0, sp, r2
 838:	000001fc 	strdeq	r0, [r0], -ip
 83c:	00000200 	andeq	r0, r0, r0, lsl #4
 840:	047d0002 	ldrbteq	r0, [sp], #-2
 844:	00000200 	andeq	r0, r0, r0, lsl #4
 848:	00000294 	muleq	r0, r4, r2
 84c:	047b0002 	ldrbteq	r0, [fp], #-2
	...
 858:	00000294 	muleq	r0, r4, r2
 85c:	00000298 	muleq	r0, r8, r2
 860:	007d0002 	rsbseq	r0, sp, r2
 864:	00000298 	muleq	r0, r8, r2
 868:	0000029c 	muleq	r0, ip, r2
 86c:	087d0002 	ldmdaeq	sp!, {r1}^
 870:	0000029c 	muleq	r0, ip, r2
 874:	000003f0 	strdeq	r0, [r0], -r0	; <UNPREDICTABLE>
 878:	047b0002 	ldrbteq	r0, [fp], #-2
	...
 884:	000003f0 	strdeq	r0, [r0], -r0	; <UNPREDICTABLE>
 888:	000003f4 	strdeq	r0, [r0], -r4
 88c:	007d0002 	rsbseq	r0, sp, r2
 890:	000003f4 	strdeq	r0, [r0], -r4
 894:	000003f8 	strdeq	r0, [r0], -r8
 898:	087d0002 	ldmdaeq	sp!, {r1}^
 89c:	000003f8 	strdeq	r0, [r0], -r8
 8a0:	0000060c 	andeq	r0, r0, ip, lsl #12
 8a4:	047b0002 	ldrbteq	r0, [fp], #-2
	...
 8b4:	00000004 	andeq	r0, r0, r4
 8b8:	007d0002 	rsbseq	r0, sp, r2
 8bc:	00000004 	andeq	r0, r0, r4
 8c0:	00000008 	andeq	r0, r0, r8
 8c4:	087d0002 	ldmdaeq	sp!, {r1}^
 8c8:	00000008 	andeq	r0, r0, r8
 8cc:	00000054 	andeq	r0, r0, r4, asr r0
 8d0:	047b0002 	ldrbteq	r0, [fp], #-2
	...

Disassembly of section .debug_pubnames:

00000000 <.debug_pubnames>:
   0:	0000006e 	andeq	r0, r0, lr, rrx
   4:	012d0002 	teqeq	sp, r2
   8:	04b50000 	ldrteq	r0, [r5], #0
   c:	00780000 	rsbseq	r0, r8, r0
  10:	69730000 	ldmdbvs	r3!, {}^	; <UNPREDICTABLE>
  14:	656c706d 	strbvs	r7, [ip, #-109]!	; 0xffffff93
  18:	7274735f 	rsbsvc	r7, r4, #2080374785	; 0x7c000001
  1c:	6c756f74 	ldclvs	15, cr6, [r5], #-464	; 0xfffffe30
  20:	00010000 	andeq	r0, r1, r0
  24:	6d697300 	stclvs	3, cr7, [r9, #-0]
  28:	5f656c70 	svcpl	0x00656c70
  2c:	74727473 	ldrbtvc	r7, [r2], #-1139	; 0xfffffb8d
  30:	70006c6f 	andvc	r6, r0, pc, ror #24
  34:	73000002 	movwvc	r0, #2
  38:	6c6e7274 	sfmvs	f7, 2, [lr], #-464	; 0xfffffe30
  3c:	b5006e65 	strlt	r6, [r0, #-3685]	; 0xfffff19b
  40:	76000002 	strvc	r0, [r0], -r2
  44:	69727073 	ldmdbvs	r2!, {r0, r1, r4, r5, r6, ip, sp, lr}^
  48:	0066746e 	rsbeq	r7, r6, lr, ror #8
  4c:	000003d1 	ldrdeq	r0, [r0], -r1
  50:	69727073 	ldmdbvs	r2!, {r0, r1, r4, r5, r6, ip, sp, lr}^
  54:	0066746e 	rsbeq	r7, r6, lr, ror #8
  58:	0000042b 	andeq	r0, r0, fp, lsr #8
  5c:	6e697270 	mcrvs	2, 3, r7, cr9, cr0, {3}
  60:	a2006674 	andge	r6, r0, #116, 12	; 0x7400000
  64:	5f000004 	svcpl	0x00000004
  68:	70797463 	rsbsvc	r7, r9, r3, ror #8
  6c:	00000065 	andeq	r0, r0, r5, rrx
  70:	004e0000 	subeq	r0, lr, r0
  74:	00020000 	andeq	r0, r2, r0
  78:	000005e2 	andeq	r0, r0, r2, ror #11
  7c:	00000332 	andeq	r0, r0, r2, lsr r3
  80:	00000292 	muleq	r0, r2, r2
  84:	61755f5f 	cmnvs	r5, pc, asr pc
  88:	695f7472 	ldmdbvs	pc, {r1, r4, r5, r6, sl, ip, sp, lr}^	; <UNPREDICTABLE>
  8c:	0074696e 	rsbseq	r6, r4, lr, ror #18
  90:	000002a7 	andeq	r0, r0, r7, lsr #5
  94:	61755f5f 	cmnvs	r5, pc, asr pc
  98:	705f7472 	subsvc	r7, pc, r2, ror r4	; <UNPREDICTABLE>
  9c:	00637475 	rsbeq	r7, r3, r5, ror r4
  a0:	000002db 	ldrdeq	r0, [r0], -fp
  a4:	61755f5f 	cmnvs	r5, pc, asr pc
  a8:	705f7472 	subsvc	r7, pc, r2, ror r4	; <UNPREDICTABLE>
  ac:	00737475 	rsbseq	r7, r3, r5, ror r4
  b0:	00000309 	andeq	r0, r0, r9, lsl #6
  b4:	61755f5f 	cmnvs	r5, pc, asr pc
  b8:	675f7472 			; <UNDEFINED> instruction: 0x675f7472
  bc:	00637465 	rsbeq	r7, r3, r5, ror #8
  c0:	00000000 	andeq	r0, r0, r0
  c4:	00000031 	andeq	r0, r0, r1, lsr r0
  c8:	09140002 	ldmdbeq	r4, {r1}
  cc:	00a80000 	adceq	r0, r8, r0
  d0:	002c0000 	eoreq	r0, ip, r0
  d4:	61680000 	cmnvs	r8, r0
  d8:	61775f6c 	cmnvs	r7, ip, ror #30
  dc:	64686374 	strbtvs	r6, [r8], #-884	; 0xfffffc8c
  e0:	695f676f 	ldmdbvs	pc, {r0, r1, r2, r3, r5, r6, r8, r9, sl, sp, lr}^	; <UNPREDICTABLE>
  e4:	0074696e 	rsbseq	r6, r4, lr, ror #18
  e8:	00000092 	muleq	r0, r2, r0
  ec:	5f544457 	svcpl	0x00544457
  f0:	64656546 	strbtvs	r6, [r5], #-1350	; 0xfffffaba
  f4:	00000000 	andeq	r0, r0, r0
  f8:	0000f100 	andeq	pc, r0, r0, lsl #2
  fc:	bc000200 	sfmlt	f0, 4, [r0], {-0}
 100:	c9000009 	stmdbgt	r0, {r0, r3}
 104:	0b000007 	bleq	128 <_start-0x43bffed8>
 108:	68000003 	stmdavs	r0, {r0, r1}
 10c:	755f6c61 	ldrbvc	r6, [pc, #-3169]	; fffff4b3 <__bss_end__+0xbc3facb7>
 110:	5f747261 	svcpl	0x00747261
 114:	74696e69 	strbtvc	r6, [r9], #-3689	; 0xfffff197
 118:	00037900 	andeq	r7, r3, r0, lsl #18
 11c:	72747300 	rsbsvc	r7, r4, #0, 6
 120:	006e656c 	rsbeq	r6, lr, ip, ror #10
 124:	000003c5 	andeq	r0, r0, r5, asr #7
 128:	6e617254 	mcrvs	2, 3, r7, cr1, cr4, {2}
 12c:	74696d73 	strbtvc	r6, [r9], #-3443	; 0xfffff28d
 130:	7479425f 	ldrbtvc	r4, [r9], #-607	; 0xfffffda1
 134:	03ec0065 	mvneq	r0, #101	; 0x65
 138:	65520000 	ldrbvs	r0, [r2, #-0]
 13c:	76696563 	strbtvc	r6, [r9], -r3, ror #10
 140:	79425f65 	stmdbvc	r2, {r0, r2, r5, r6, r8, r9, sl, fp, ip, lr}^
 144:	6c006574 	cfstr32vs	mvfx6, [r0], {116}	; 0x74
 148:	54000004 	strpl	r0, [r0], #-4
 14c:	736e6172 	cmnvc	lr, #-2147483620	; 0x8000001c
 150:	5f74696d 	svcpl	0x0074696d
 154:	69727453 	ldmdbvs	r2!, {r0, r1, r4, r6, sl, ip, sp, lr}^
 158:	a200676e 	andge	r6, r0, #28835840	; 0x1b80000
 15c:	52000004 	andpl	r0, r0, #4
 160:	69656365 	stmdbvs	r5!, {r0, r2, r5, r6, r8, r9, sp, lr}^
 164:	535f6576 	cmppl	pc, #494927872	; 0x1d800000
 168:	6e697274 	mcrvs	2, 3, r7, cr9, cr4, {3}
 16c:	05590067 	ldrbeq	r0, [r9, #-103]	; 0xffffff99
 170:	74530000 	ldrbvc	r0, [r3], #-0
 174:	676e6972 			; <UNDEFINED> instruction: 0x676e6972
 178:	00706d43 	rsbseq	r6, r0, r3, asr #26
 17c:	000005af 	andeq	r0, r0, pc, lsr #11
 180:	63657845 	cmnvs	r5, #4521984	; 0x450000
 184:	6d6d6f43 	stclvs	15, cr6, [sp, #-268]!	; 0xfffffef4
 188:	42646e61 	rsbmi	r6, r4, #1552	; 0x610
 18c:	72615579 	rsbvc	r5, r1, #507510784	; 0x1e400000
 190:	06390074 			; <UNDEFINED> instruction: 0x06390074
 194:	65670000 	strbvs	r0, [r7, #-0]!
 198:	6d6f4374 	stclvs	3, cr4, [pc, #-464]!	; ffffffd0 <__bss_end__+0xbc3fb7d4>
 19c:	646e616d 	strbtvs	r6, [lr], #-365	; 0xfffffe93
 1a0:	656d614e 	strbvs	r6, [sp, #-334]!	; 0xfffffeb2
 1a4:	61557942 	cmpvs	r5, r2, asr #18
 1a8:	bc007472 	cfstrslt	mvf7, [r0], {114}	; 0x72
 1ac:	67000006 	strvs	r0, [r0, -r6]
 1b0:	6f437465 	svcvs	0x00437465
 1b4:	6e616d6d 	cdpvs	13, 6, cr6, cr1, cr13, {3}
 1b8:	6c615664 	stclvs	6, cr5, [r1], #-400	; 0xfffffe70
 1bc:	79426575 	stmdbvc	r2, {r0, r2, r4, r5, r6, r8, sl, sp, lr}^
 1c0:	74726155 	ldrbtvc	r6, [r2], #-341	; 0xfffffeab
 1c4:	00074300 	andeq	r4, r7, r0, lsl #6
 1c8:	74656700 	strbtvc	r6, [r5], #-1792	; 0xfffff900
 1cc:	6d6d6f43 	stclvs	15, cr6, [sp, #-268]!	; 0xfffffef4
 1d0:	4e646e61 	cdpmi	14, 6, cr6, cr4, cr1, {3}
 1d4:	79426d75 	stmdbvc	r2, {r0, r2, r4, r5, r6, r8, sl, fp, sp, lr}^
 1d8:	74726155 	ldrbtvc	r6, [r2], #-341	; 0xfffffeab
 1dc:	00078000 	andeq	r8, r7, r0
 1e0:	73796d00 	cmnvc	r9, #0, 26
 1e4:	70637274 	rsbvc	r7, r3, r4, ror r2
 1e8:	00000079 	andeq	r0, r0, r9, ror r0
 1ec:	00190000 	andseq	r0, r9, r0
 1f0:	00020000 	andeq	r0, r2, r0
 1f4:	00001185 	andeq	r1, r0, r5, lsl #3
 1f8:	00000346 	andeq	r0, r0, r6, asr #6
 1fc:	00000316 	andeq	r0, r0, r6, lsl r3
 200:	695f6f64 	ldmdbvs	pc, {r2, r5, r6, r8, r9, sl, fp, sp, lr}^	; <UNPREDICTABLE>
 204:	00007172 	andeq	r7, r0, r2, ror r1
 208:	4e000000 	cdpmi	0, 0, cr0, cr0, cr0, {0}
 20c:	02000000 	andeq	r0, r0, #0
 210:	0014cb00 	andseq	ip, r4, r0, lsl #22
 214:	0004f300 	andeq	pc, r4, r0, lsl #6
 218:	00043c00 	andeq	r3, r4, r0, lsl #24
 21c:	6c616800 	stclvs	8, cr6, [r1], #-0
 220:	6d77705f 	ldclvs	0, cr7, [r7, #-380]!	; 0xfffffe84
 224:	6e6f5f30 	mcrvs	15, 3, r5, cr15, cr0, {1}
 228:	00047200 	andeq	r7, r4, r0, lsl #4
 22c:	6c616800 	stclvs	8, cr6, [r1], #-0
 230:	6d77705f 	ldclvs	0, cr7, [r7, #-380]!	; 0xfffffe84
 234:	6e6f5f31 	mcrvs	15, 3, r5, cr15, cr1, {1}
 238:	0004a800 	andeq	sl, r4, r0, lsl #16
 23c:	6c616800 	stclvs	8, cr6, [r1], #-0
 240:	6d77705f 	ldclvs	0, cr7, [r7, #-380]!	; 0xfffffe84
 244:	6e6f5f32 	mcrvs	15, 3, r5, cr15, cr2, {1}
 248:	0004de00 	andeq	sp, r4, r0, lsl #28
 24c:	6c616800 	stclvs	8, cr6, [r1], #-0
 250:	6d77705f 	ldclvs	0, cr7, [r7, #-380]!	; 0xfffffe84
 254:	66666f5f 	uqsaxvs	r6, r6, pc	; <UNPREDICTABLE>
 258:	00000000 	andeq	r0, r0, r0
 25c:	00003b00 	andeq	r3, r0, r0, lsl #22
 260:	be000200 	cdplt	2, 0, cr0, cr0, cr0, {0}
 264:	c9000019 	stmdbgt	r0, {r0, r3, r4}
 268:	9e000006 	cdpls	0, 0, cr0, cr0, cr6, {0}
 26c:	68000006 	stmdavs	r0, {r1, r2}
 270:	675f6c61 	ldrbvs	r6, [pc, -r1, ror #24]
 274:	5f6f6970 	svcpl	0x006f6970
 278:	65746e69 	ldrbvs	r6, [r4, #-3689]!	; 0xfffff197
 27c:	70757272 	rsbsvc	r7, r5, r2, ror r2
 280:	6e695f74 	mcrvs	15, 3, r5, cr9, cr4, {3}
 284:	b3007469 	movwlt	r7, #1129	; 0x469
 288:	68000006 	stmdavs	r0, {r1, r2}
 28c:	675f6c61 	ldrbvs	r6, [pc, -r1, ror #24]
 290:	695f6369 	ldmdbvs	pc, {r0, r3, r5, r6, r8, r9, sp, lr}^	; <UNPREDICTABLE>
 294:	0074696e 	rsbseq	r6, r4, lr, ror #18
 298:	00000000 	andeq	r0, r0, r0
 29c:	0000001b 	andeq	r0, r0, fp, lsl r0
 2a0:	20870002 	addcs	r0, r7, r2
 2a4:	00680000 	rsbeq	r0, r8, r0
 2a8:	002c0000 	eoreq	r0, ip, r0
 2ac:	65640000 	strbvs	r0, [r4, #-0]!
 2b0:	5f79616c 	svcpl	0x0079616c
 2b4:	0000736d 	andeq	r7, r0, sp, ror #6
 2b8:	b7000000 	strlt	r0, [r0, -r0]
 2bc:	02000000 	andeq	r0, r0, #0
 2c0:	0020ef00 	eoreq	lr, r0, r0, lsl #30
 2c4:	0005c300 	andeq	ip, r5, r0, lsl #6
 2c8:	0004cc00 	andeq	ip, r4, r0, lsl #24
 2cc:	6c616800 	stclvs	8, cr6, [r1], #-0
 2d0:	64656c5f 	strbtvs	r6, [r5], #-3167	; 0xfffff3a1
 2d4:	696e695f 	stmdbvs	lr!, {r0, r1, r2, r3, r4, r6, r8, fp, sp, lr}^
 2d8:	04e10074 	strbteq	r0, [r1], #116	; 0x74
 2dc:	61680000 	cmnvs	r8, r0
 2e0:	65725f6c 	ldrbvs	r5, [r2, #-3948]!	; 0xfffff094
 2e4:	656c5f64 	strbvs	r5, [ip, #-3940]!	; 0xfffff09c
 2e8:	74735f64 	ldrbtvc	r5, [r3], #-3940	; 0xfffff09c
 2ec:	73657475 	cmnvc	r5, #1962934272	; 0x75000000
 2f0:	00050900 	andeq	r0, r5, r0, lsl #18
 2f4:	6c616800 	stclvs	8, cr6, [r1], #-0
 2f8:	6572675f 	ldrbvs	r6, [r2, #-1887]!	; 0xfffff8a1
 2fc:	6c5f6e65 	mrrcvs	14, 6, r6, pc, cr5	; <UNPREDICTABLE>
 300:	735f6465 	cmpvc	pc, #1694498816	; 0x65000000
 304:	65747574 	ldrbvs	r7, [r4, #-1396]!	; 0xfffffa8c
 308:	05310073 	ldreq	r0, [r1, #-115]!	; 0xffffff8d
 30c:	61680000 	cmnvs	r8, r0
 310:	6c625f6c 	stclvs	15, cr5, [r2], #-432	; 0xfffffe50
 314:	6c5f6575 	cfldr64vs	mvdx6, [pc], {117}	; 0x75
 318:	735f6465 	cmpvc	pc, #1694498816	; 0x65000000
 31c:	65747574 	ldrbvs	r7, [r4, #-1396]!	; 0xfffffa8c
 320:	05590073 	ldrbeq	r0, [r9, #-115]	; 0xffffff8d
 324:	65720000 	ldrbvs	r0, [r2, #-0]!
 328:	656c5f64 	strbvs	r5, [ip, #-3940]!	; 0xfffff09c
 32c:	6e6f5f64 	cdpvs	15, 6, cr5, cr15, cr4, {3}
 330:	00056e00 	andeq	r6, r5, r0, lsl #28
 334:	65726700 	ldrbvs	r6, [r2, #-1792]!	; 0xfffff900
 338:	6c5f6e65 	mrrcvs	14, 6, r6, pc, cr5	; <UNPREDICTABLE>
 33c:	6f5f6465 	svcvs	0x005f6465
 340:	0583006e 	streq	r0, [r3, #110]	; 0x6e
 344:	6c620000 	stclvs	0, cr0, [r2], #-0
 348:	6c5f6575 	cfldr64vs	mvdx6, [pc], {117}	; 0x75
 34c:	6f5f6465 	svcvs	0x005f6465
 350:	0598006e 	ldreq	r0, [r8, #110]	; 0x6e
 354:	656c0000 	strbvs	r0, [ip, #-0]!
 358:	68635f64 	stmdavs	r3!, {r2, r5, r6, r8, r9, sl, fp, ip, lr}^
 35c:	65676e61 	strbvs	r6, [r7, #-3681]!	; 0xfffff19f
 360:	0005ad00 	andeq	sl, r5, r0, lsl #26
 364:	69687700 	stmdbvs	r8!, {r8, r9, sl, ip, sp, lr}^
 368:	6c5f6574 	cfldr64vs	mvdx6, [pc], {116}	; 0x74
 36c:	6f5f6465 	svcvs	0x005f6465
 370:	0000006e 	andeq	r0, r0, lr, rrx
 374:	008d0000 	addeq	r0, sp, r0
 378:	00020000 	andeq	r0, r2, r0
 37c:	000026b2 			; <UNDEFINED> instruction: 0x000026b2
 380:	000001f3 	strdeq	r0, [r0], -r3
 384:	0000005e 	andeq	r0, r0, lr, asr r0
 388:	5f6c6168 	svcpl	0x006c6168
 38c:	5f636461 	svcpl	0x00636461
 390:	74696e69 	strbtvc	r6, [r9], #-3689	; 0xfffff197
 394:	00008c00 	andeq	r8, r0, r0, lsl #24
 398:	74656700 	strbtvc	r6, [r5], #-1792	; 0xfffff900
 39c:	6364615f 	cmnvs	r4, #-1073741801	; 0xc0000017
 3a0:	746e695f 	strbtvc	r6, [lr], #-2399	; 0xfffff6a1
 3a4:	75727265 	ldrbvc	r7, [r2, #-613]!	; 0xfffffd9b
 3a8:	a1007470 	tstge	r0, r0, ror r4
 3ac:	67000000 	strvs	r0, [r0, -r0]
 3b0:	615f7465 	cmpvs	pc, r5, ror #8
 3b4:	765f6364 	ldrbvc	r6, [pc], -r4, ror #6
 3b8:	65756c61 	ldrbvs	r6, [r5, #-3169]!	; 0xfffff39f
 3bc:	0000d400 	andeq	sp, r0, r0, lsl #8
 3c0:	6c6f7600 	stclvs	6, cr7, [pc], #-0	; 3c8 <_start-0x43bffc38>
 3c4:	65676174 	strbvs	r6, [r7, #-372]!	; 0xfffffe8c
 3c8:	6e6f635f 	mcrvs	3, 3, r6, cr15, cr15, {2}
 3cc:	6c6f7274 	sfmvs	f7, 2, [pc], #-464	; 204 <_start-0x43bffdfc>
 3d0:	696e695f 	stmdbvs	lr!, {r0, r1, r2, r3, r4, r6, r8, fp, sp, lr}^
 3d4:	010e0074 	tsteq	lr, r4, ror r0
 3d8:	6f760000 	svcvs	0x00760000
 3dc:	6761746c 	strbvs	r7, [r1, -ip, ror #8]!
 3e0:	6f635f65 	svcvs	0x00635f65
 3e4:	6f72746e 	svcvs	0x0072746e
 3e8:	017c006c 	cmneq	ip, ip, rrx
 3ec:	6f760000 	svcvs	0x00760000
 3f0:	6761746c 	strbvs	r7, [r1, -ip, ror #8]!
 3f4:	68635f65 	stmdavs	r3!, {r0, r2, r5, r6, r8, r9, sl, fp, ip, lr}^
 3f8:	65676e61 	strbvs	r6, [r7, #-3681]!	; 0xfffff19f
 3fc:	61557942 	cmpvs	r5, r2, asr #18
 400:	00007472 	andeq	r7, r0, r2, ror r4
 404:	17000000 	strne	r0, [r0, -r0]
 408:	02000000 	andeq	r0, r0, #0
 40c:	0028a500 	eoreq	sl, r8, r0, lsl #10
 410:	00004c00 	andeq	r4, r0, r0, lsl #24
 414:	00002c00 	andeq	r2, r0, r0, lsl #24
 418:	69616d00 	stmdbvs	r1!, {r8, sl, fp, sp, lr}^
 41c:	0000006e 	andeq	r0, r0, lr, rrx
	...

Disassembly of section .debug_pubtypes:

00000000 <.debug_pubtypes>:
   0:	0000002d 	andeq	r0, r0, sp, lsr #32
   4:	012d0002 	teqeq	sp, r2
   8:	04b50000 	ldrteq	r0, [r5], #0
   c:	002c0000 	eoreq	r0, ip, r0
  10:	5f5f0000 	svcpl	0x005f0000
  14:	63756e67 	cmnvs	r5, #1648	; 0x670
  18:	5f61765f 	svcpl	0x0061765f
  1c:	7473696c 	ldrbtvc	r6, [r3], #-2412	; 0xfffff694
  20:	00003d00 	andeq	r3, r0, r0, lsl #26
  24:	5f617600 	svcpl	0x00617600
  28:	7473696c 	ldrbtvc	r6, [r3], #-2412	; 0xfffff694
  2c:	00000000 	andeq	r0, r0, r0
  30:	00002100 	andeq	r2, r0, r0, lsl #2
  34:	e2000200 	and	r0, r0, #0, 4
  38:	32000005 	andcc	r0, r0, #5
  3c:	a1000003 	tstge	r0, r3
  40:	67000001 	strvs	r0, [r0, -r1]
  44:	646f6970 	strbtvs	r6, [pc], #-2416	; 4c <_start-0x43bfffb4>
  48:	00028700 	andeq	r8, r2, r0, lsl #14
  4c:	72617500 	rsbvc	r7, r1, #0, 10
  50:	00000074 	andeq	r0, r0, r4, ror r0
  54:	000e0000 	andeq	r0, lr, r0
  58:	00020000 	andeq	r0, r2, r0
  5c:	00000914 	andeq	r0, r0, r4, lsl r9
  60:	000000a8 	andeq	r0, r0, r8, lsr #1
  64:	00000000 	andeq	r0, r0, r0
  68:	0000003f 	andeq	r0, r0, pc, lsr r0
  6c:	09bc0002 	ldmibeq	ip!, {r1}
  70:	07c90000 	strbeq	r0, [r9, r0]
  74:	01a10000 			; <UNDEFINED> instruction: 0x01a10000
  78:	70670000 	rsbvc	r0, r7, r0
  7c:	00646f69 	rsbeq	r6, r4, r9, ror #30
  80:	00000287 	andeq	r0, r0, r7, lsl #5
  84:	74726175 	ldrbtvc	r6, [r2], #-373	; 0xfffffe8b
  88:	0002f500 	andeq	pc, r2, r0, lsl #10
  8c:	6d6f6300 	stclvs	3, cr6, [pc, #-0]	; 94 <_start-0x43bfff6c>
  90:	646e616d 	strbtvs	r6, [lr], #-365	; 0xfffffe93
  94:	6d756e5f 	ldclvs	14, cr6, [r5, #-380]!	; 0xfffffe84
  98:	0000745f 	andeq	r7, r0, pc, asr r4
  9c:	5f000003 	svcpl	0x00000003
  a0:	746e6975 	strbtvc	r6, [lr], #-2421	; 0xfffff68b
  a4:	00003233 	andeq	r3, r0, r3, lsr r2
  a8:	32000000 	andcc	r0, r0, #0
  ac:	02000000 	andeq	r0, r0, #0
  b0:	00118500 	andseq	r8, r1, r0, lsl #10
  b4:	00034600 	andeq	r4, r3, r0, lsl #12
  b8:	0001a100 	andeq	sl, r1, r0, lsl #2
  bc:	69706700 	ldmdbvs	r0!, {r8, r9, sl, sp, lr}^
  c0:	fb00626f 	blx	18a86 <_start-0x43be757a>
  c4:	67000001 	strvs	r0, [r0, -r1]
  c8:	5f646369 	svcpl	0x00646369
  cc:	65706369 	ldrbvs	r6, [r0, #-873]!	; 0xfffffc97
  d0:	7265646e 	rsbvc	r6, r5, #1845493760	; 0x6e000000
  d4:	00030b00 	andeq	r0, r3, r0, lsl #22
  d8:	6d777000 	ldclvs	0, cr7, [r7, #-0]
  dc:	00000000 	andeq	r0, r0, r0
  e0:	00002a00 	andeq	r2, r0, r0, lsl #20
  e4:	cb000200 	blgt	8ec <_start-0x43bff714>
  e8:	f3000014 	vqadd.u8	d0, d0, d4
  ec:	a1000004 	tstge	r0, r4
  f0:	67000001 	strvs	r0, [r0, -r1]
  f4:	636f6970 	cmnvs	pc, #112, 18	; 0x1c0000
  f8:	00032100 	andeq	r2, r3, r0, lsl #2
  fc:	69706700 	ldmdbvs	r0!, {r8, r9, sl, sp, lr}^
 100:	3100646f 	tstcc	r0, pc, ror #8
 104:	70000004 	andvc	r0, r0, r4
 108:	00006d77 	andeq	r6, r0, r7, ror sp
 10c:	52000000 	andpl	r0, r0, #0
 110:	02000000 	andeq	r0, r0, #0
 114:	0019be00 	andseq	fp, r9, r0, lsl #28
 118:	0006c900 	andeq	ip, r6, r0, lsl #18
 11c:	0001a100 	andeq	sl, r1, r0, lsl #2
 120:	69706700 	ldmdbvs	r0!, {r8, r9, sl, sp, lr}^
 124:	fb00626f 	blx	18aea <_start-0x43be7516>
 128:	67000001 	strvs	r0, [r0, -r1]
 12c:	5f646369 	svcpl	0x00646369
 130:	6e657369 	cdpvs	3, 6, cr7, cr5, cr9, {3}
 134:	656c6261 	strbvs	r6, [ip, #-609]!	; 0xfffffd9f
 138:	04470072 	strbeq	r0, [r7], #-114	; 0xffffff8e
 13c:	69670000 	stmdbvs	r7!, {}^	; <UNPREDICTABLE>
 140:	695f6463 	ldmdbvs	pc, {r0, r1, r5, r6, sl, sp, lr}^	; <UNPREDICTABLE>
 144:	6f697270 	svcvs	0x00697270
 148:	79726972 	ldmdbvc	r2!, {r1, r4, r5, r6, r8, fp, sp, lr}^
 14c:	06930072 			; <UNDEFINED> instruction: 0x06930072
 150:	69670000 	stmdbvs	r7!, {}^	; <UNPREDICTABLE>
 154:	695f6463 	ldmdbvs	pc, {r0, r1, r5, r6, sl, sp, lr}^	; <UNPREDICTABLE>
 158:	67726174 			; <UNDEFINED> instruction: 0x67726174
 15c:	72737465 	rsbsvc	r7, r3, #1694498816	; 0x65000000
 160:	00000000 	andeq	r0, r0, r0
 164:	00000e00 	andeq	r0, r0, r0, lsl #28
 168:	87000200 	strhi	r0, [r0, -r0, lsl #4]
 16c:	68000020 	stmdavs	r0, {r5}
 170:	00000000 	andeq	r0, r0, r0
 174:	36000000 	strcc	r0, [r0], -r0
 178:	02000000 	andeq	r0, r0, #0
 17c:	0020ef00 	eoreq	lr, r0, r0, lsl #30
 180:	0005c300 	andeq	ip, r5, r0, lsl #6
 184:	0001a100 	andeq	sl, r1, r0, lsl #2
 188:	69706700 	ldmdbvs	r0!, {r8, r9, sl, sp, lr}^
 18c:	2100616f 	tstcs	r0, pc, ror #2
 190:	67000003 	strvs	r0, [r0, -r3]
 194:	626f6970 	rsbvs	r6, pc, #112, 18	; 0x1c0000
 198:	0004a100 	andeq	sl, r4, r0, lsl #2
 19c:	69706700 	ldmdbvs	r0!, {r8, r9, sl, sp, lr}^
 1a0:	c100656f 	tstgt	r0, pc, ror #10
 1a4:	73000004 	movwvc	r0, #4
 1a8:	745f7574 	ldrbvc	r7, [pc], #-1396	; 1b0 <_start-0x43bffe50>
 1ac:	00000000 	andeq	r0, r0, r0
 1b0:	00001f00 	andeq	r1, r0, r0, lsl #30
 1b4:	b2000200 	andlt	r0, r0, #0, 4
 1b8:	f3000026 	vhadd.u8	d0, d0, d22
 1bc:	53000001 	movwpl	r0, #1
 1c0:	76000000 	strvc	r0, [r0], -r0
 1c4:	61746c6f 	cmnvs	r4, pc, ror #24
 1c8:	6c466567 	cfstr64vs	mvdx6, [r6], {103}	; 0x67
 1cc:	00745f67 	rsbseq	r5, r4, r7, ror #30
 1d0:	00000000 	andeq	r0, r0, r0
 1d4:	0000000e 	andeq	r0, r0, lr
 1d8:	28a50002 	stmiacs	r5!, {r1}
 1dc:	004c0000 	subeq	r0, ip, r0
 1e0:	00000000 	andeq	r0, r0, r0
	...

Disassembly of section .debug_str:

00000000 <.debug_str>:
   0:	69676964 	stmdbvs	r7!, {r2, r5, r6, r8, fp, sp, lr}^
   4:	5f007374 	svcpl	0x00007374
   8:	6975625f 	ldmdbvs	r5!, {r0, r1, r2, r3, r4, r6, r9, sp, lr}^
   c:	6e69746c 	cdpvs	4, 6, cr7, cr9, cr12, {3}
  10:	5f61765f 	svcpl	0x0061765f
  14:	7473696c 	ldrbtvc	r6, [r3], #-2412	; 0xfffff694
  18:	6d697300 	stclvs	3, cr7, [r9, #-0]
  1c:	5f656c70 	svcpl	0x00656c70
  20:	74727473 	ldrbtvc	r7, [r2], #-1139	; 0xfffffb8d
  24:	006c756f 	rsbeq	r7, ip, pc, ror #10
  28:	6e756f63 	cdpvs	15, 7, cr6, cr5, cr3, {3}
  2c:	6b730074 	blvs	1cc0204 <_start-0x41f3fdfc>
  30:	615f7069 	cmpvs	pc, r9, rrx
  34:	00696f74 	rsbeq	r6, r9, r4, ror pc
  38:	6d6f682f 	stclvs	8, cr6, [pc, #-188]!	; ffffff84 <__bss_end__+0xbc3fb788>
  3c:	68632f65 	stmdavs	r3!, {r0, r2, r5, r6, r8, r9, sl, fp, sp}^
  40:	766c6e65 	strbtvc	r6, [ip], -r5, ror #28
  44:	676e6971 			; <UNDEFINED> instruction: 0x676e6971
  48:	6568632f 	strbvs	r6, [r8, #-815]!	; 0xfffffcd1
  4c:	71766c6e 	cmnvc	r6, lr, ror #24
  50:	2f676e69 	svccs	0x00676e69
  54:	2f6d7261 	svccs	0x006d7261
  58:	6a6f7270 	bvs	1bdca20 <_start-0x420235e0>
  5c:	00746365 	rsbseq	r6, r4, r5, ror #6
  60:	6f745f5f 	svcvs	0x00745f5f
  64:	65707075 	ldrbvs	r7, [r0, #-117]!	; 0xffffff8b
  68:	69730072 	ldmdbvs	r3!, {r1, r4, r5, r6}^
  6c:	6c00657a 	cfstr32vs	mvfx6, [r0], {122}	; 0x7a
  70:	20676e6f 	rsbcs	r6, r7, pc, ror #28
  74:	69736e75 	ldmdbvs	r3!, {r0, r2, r4, r5, r6, r9, sl, fp, sp, lr}^
  78:	64656e67 	strbtvs	r6, [r5], #-3687	; 0xfffff199
  7c:	746e6920 	strbtvc	r6, [lr], #-2336	; 0xfffff6e0
  80:	736e7500 	cmnvc	lr, #0, 10
  84:	656e6769 	strbvs	r6, [lr, #-1897]!	; 0xfffff897
  88:	68632064 	stmdavs	r3!, {r2, r5, r6, sp}^
  8c:	65007261 	strvs	r7, [r0, #-609]	; 0xfffffd9f
  90:	0070646e 	rsbseq	r6, r0, lr, ror #8
  94:	6e675f5f 	mcrvs	15, 3, r5, cr7, cr15, {2}
  98:	765f6375 			; <UNDEFINED> instruction: 0x765f6375
  9c:	696c5f61 	stmdbvs	ip!, {r0, r5, r6, r8, r9, sl, fp, ip, lr}^
  a0:	73007473 	movwvc	r7, #1139	; 0x473
  a4:	6c706d69 	ldclvs	13, cr6, [r0], #-420	; 0xfffffe5c
  a8:	74735f65 	ldrbtvc	r5, [r3], #-3941	; 0xfffff09b
  ac:	6c6f7472 	cfstrdvs	mvd7, [pc], #-456	; fffffeec <__bss_end__+0xbc3fb6f0>
  b0:	6d6f6300 	stclvs	3, cr6, [pc, #-0]	; b8 <_start-0x43bfff48>
  b4:	2f6e6f6d 	svccs	0x006e6f6d
  b8:	2f637273 	svccs	0x00637273
  bc:	6e697270 	mcrvs	2, 3, r7, cr9, cr0, {3}
  c0:	632e6674 	teqvs	lr, #116, 12	; 0x7400000
  c4:	73616200 	cmnvc	r1, #0, 4
  c8:	6c660065 	stclvs	0, cr0, [r6], #-404	; 0xfffffe6c
  cc:	00736761 	rsbseq	r6, r3, r1, ror #14
  d0:	6c617571 	cfstr64vs	mvdx7, [r1], #-452	; 0xfffffe3c
  d4:	65696669 	strbvs	r6, [r9, #-1641]!	; 0xfffff997
  d8:	65720072 	ldrbvs	r0, [r2, #-114]!	; 0xffffff8e
  dc:	746c7573 	strbtvc	r7, [ip], #-1395	; 0xfffffa8d
  e0:	70657200 	rsbvc	r7, r5, r0, lsl #4
  e4:	00746165 	rsbseq	r6, r4, r5, ror #2
  e8:	6e727473 	mrcvs	4, 3, r7, cr2, cr3, {3}
  ec:	006e656c 	rsbeq	r6, lr, ip, ror #10
  f0:	626d756e 	rsbvs	r7, sp, #461373440	; 0x1b800000
  f4:	70007265 	andvc	r7, r0, r5, ror #4
  f8:	69636572 	stmdbvs	r3!, {r1, r4, r5, r6, r8, sl, sp, lr}^
  fc:	6e6f6973 	mcrvs	9, 3, r6, cr15, cr3, {3}
 100:	74635f00 	strbtvc	r5, [r3], #-3840	; 0xfffff100
 104:	00657079 	rsbeq	r7, r5, r9, ror r0
 108:	6e697270 	mcrvs	2, 3, r7, cr9, cr0, {3}
 10c:	66756274 			; <UNDEFINED> instruction: 0x66756274
 110:	00726566 	rsbseq	r6, r2, r6, ror #10
 114:	6c656966 	stclvs	9, cr6, [r5], #-408	; 0xfffffe68
 118:	69775f64 	ldmdbvs	r7!, {r2, r5, r6, r8, r9, sl, fp, ip, lr}^
 11c:	00687464 	rsbeq	r7, r8, r4, ror #8
 120:	73677261 	cmnvc	r7, #268435462	; 0x10000006
 124:	6e6f6c00 	cdpvs	12, 6, cr6, cr15, cr0, {0}
 128:	6e692067 	cdpvs	0, 6, cr2, cr9, cr7, {3}
 12c:	69730074 	ldmdbvs	r3!, {r2, r4, r5, r6}^
 130:	47006e67 	strmi	r6, [r0, -r7, ror #28]
 134:	4320554e 	teqmi	r0, #327155712	; 0x13800000
 138:	352e3420 	strcc	r3, [lr, #-1056]!	; 0xfffffbe0
 13c:	5f00312e 	svcpl	0x0000312e
 140:	7365725f 	cmnvc	r5, #-268435451	; 0xf0000005
 144:	70737600 	rsbsvc	r7, r3, r0, lsl #12
 148:	746e6972 	strbtvc	r6, [lr], #-2418	; 0xfffff68e
 14c:	46550066 	ldrbmi	r0, [r5], -r6, rrx
 150:	004e4f43 	subeq	r4, lr, r3, asr #30
 154:	4e4f4355 	mcrmi	3, 2, r4, cr15, cr5, {2}
 158:	56524400 	ldrbpl	r4, [r2], -r0, lsl #8
 15c:	52440030 	subpl	r0, r4, #48	; 0x30
 160:	55003156 	strpl	r3, [r0, #-342]	; 0xfffffeaa
 164:	4d544e49 	ldclmi	14, cr4, [r4, #-292]	; 0xfffffedc
 168:	4e495500 	cdpmi	5, 4, cr5, cr9, cr0, {0}
 16c:	44005054 	strmi	r5, [r0], #-84	; 0xffffffac
 170:	5f305652 	svcpl	0x00305652
 174:	41534944 	cmpmi	r3, r4, asr #18
 178:	5f454c42 	svcpl	0x00454c42
 17c:	41464544 	mrsmi	r4, SPSR
 180:	00544c55 	subseq	r4, r4, r5, asr ip
 184:	61755f5f 	cmnvs	r5, pc, asr pc
 188:	705f7472 	subsvc	r7, pc, r2, ror r4	; <UNPREDICTABLE>
 18c:	00737475 	rsbseq	r7, r3, r5, ror r4
 190:	544e4955 	strbpl	r4, [lr], #-2389	; 0xfffff6ab
 194:	54550053 	ldrbpl	r0, [r5], #-83	; 0xffffffad
 198:	41545352 	cmpmi	r4, r2, asr r3
 19c:	54550054 	ldrbpl	r0, [r5], #-84	; 0xffffffac
 1a0:	55004858 	strpl	r4, [r0, #-2136]	; 0xfffff7a8
 1a4:	4e4f434c 	cdpmi	3, 4, cr4, cr15, cr12, {2}
 1a8:	52455500 	subpl	r5, r5, #0, 10
 1ac:	54415453 	strbpl	r5, [r1], #-1107	; 0xfffffbad
 1b0:	54554f00 	ldrbpl	r4, [r5], #-3840	; 0xfffff100
 1b4:	00424e45 	subeq	r4, r2, r5, asr #28
 1b8:	61746164 	cmnvs	r4, r4, ror #2
 1bc:	54454400 	strbpl	r4, [r5], #-1024	; 0xfffffc00
 1c0:	45444f4d 	strbmi	r4, [r4, #-3917]	; 0xfffff0b3
 1c4:	45440030 	strbmi	r0, [r4, #-48]	; 0xffffffd0
 1c8:	444f4d54 	strbmi	r4, [pc], #-3412	; 1d0 <_start-0x43bffe30>
 1cc:	50003145 	andpl	r3, r0, r5, asr #2
 1d0:	454c4c55 	strbmi	r4, [ip, #-3157]	; 0xfffff3ab
 1d4:	5f44424e 	svcpl	0x0044424e
 1d8:	41534944 	cmpmi	r3, r4, asr #18
 1dc:	5f454c42 	svcpl	0x00454c42
 1e0:	41464544 	mrsmi	r4, SPSR
 1e4:	00544c55 	subseq	r4, r4, r5, asr ip
 1e8:	41524655 	cmpmi	r2, r5, asr r6
 1ec:	4c415643 	mcrrmi	6, 4, r5, r1, cr3
 1f0:	454c5300 	strbmi	r5, [ip, #-768]	; 0xfffffd00
 1f4:	49445f57 	stmdbmi	r4, {r0, r1, r2, r4, r6, r8, r9, sl, fp, ip, lr}^
 1f8:	4c424153 	stfmie	f4, [r2], {83}	; 0x53
 1fc:	45445f45 	strbmi	r5, [r4, #-3909]	; 0xfffff0bb
 200:	4c554146 	ldfmie	f4, [r5], {70}	; 0x46
 204:	42550054 	subsmi	r0, r5, #84	; 0x54
 208:	56494452 			; <UNDEFINED> instruction: 0x56494452
 20c:	755f5f00 	ldrbvc	r5, [pc, #-3840]	; fffff314 <__bss_end__+0xbc3fab18>
 210:	5f747261 	svcpl	0x00747261
 214:	74696e69 	strbtvc	r6, [r9], #-3689	; 0xfffff197
 218:	4c555000 	mrami	r5, r5, acc0
 21c:	4c45534c 	mcrrmi	3, 4, r5, r5, cr12
 220:	5349445f 	movtpl	r4, #37983	; 0x945f
 224:	454c4241 	strbmi	r4, [ip, #-577]	; 0xfffffdbf
 228:	4645445f 			; <UNDEFINED> instruction: 0x4645445f
 22c:	544c5541 	strbpl	r5, [ip], #-1345	; 0xfffffabf
 230:	534d5500 	movtpl	r5, #54528	; 0xd500
 234:	00544154 	subseq	r4, r4, r4, asr r1
 238:	4f434d55 	svcmi	0x00434d55
 23c:	5550004e 	ldrbpl	r0, [r0, #-78]	; 0xffffffb2
 240:	4e454c4c 	cdpmi	12, 4, cr4, cr5, cr12, {2}
 244:	4c530042 	mrrcmi	0, 4, r0, r3, cr2
 248:	5f005745 	svcpl	0x00005745
 24c:	7261755f 	rsbvc	r7, r1, #398458880	; 0x17c00000
 250:	65675f74 	strbvs	r5, [r7, #-3956]!	; 0xfffff08c
 254:	67006374 	smlsdxvs	r0, r4, r3, r6
 258:	646f6970 	strbtvs	r6, [pc], #-2416	; 260 <_start-0x43bffda0>
 25c:	73655200 	cmnvc	r5, #0, 4
 260:	65767265 	ldrbvs	r7, [r6, #-613]!	; 0xfffffd9b
 264:	52003164 	andpl	r3, r0, #100, 2
 268:	72657365 	rsbvc	r7, r5, #-1811939327	; 0x94000001
 26c:	32646576 	rsbcc	r6, r4, #494927872	; 0x1d800000
 270:	73655200 	cmnvc	r5, #0, 4
 274:	65767265 	ldrbvs	r7, [r6, #-613]!	; 0xfffffd9b
 278:	52003364 	andpl	r3, r0, #100, 6	; 0x90000001
 27c:	72657365 	rsbvc	r7, r5, #-1811939327	; 0x94000001
 280:	34646576 	strbtcc	r6, [r4], #-1398	; 0xfffffa8a
 284:	73655200 	cmnvc	r5, #0, 4
 288:	65767265 	ldrbvs	r7, [r6, #-613]!	; 0xfffffd9b
 28c:	44003564 	strmi	r3, [r0], #-1380	; 0xfffffa9c
 290:	4f4d5445 	svcmi	0x004d5445
 294:	58454544 	stmdapl	r5, {r2, r6, r8, sl, lr}^
 298:	4c555000 	mrami	r5, r5, acc0
 29c:	4c45534c 	mcrrmi	3, 4, r5, r5, cr12
 2a0:	544e4900 	strbpl	r4, [lr], #-2304	; 0xfffff700
 2a4:	00424e45 	subeq	r4, r2, r5, asr #28
 2a8:	31565244 	cmpcc	r6, r4, asr #4
 2ac:	5349445f 	movtpl	r4, #37983	; 0x945f
 2b0:	454c4241 	strbmi	r4, [ip, #-577]	; 0xfffffdbf
 2b4:	4645445f 			; <UNDEFINED> instruction: 0x4645445f
 2b8:	544c5541 	strbpl	r5, [ip], #-1345	; 0xfffffabf
 2bc:	53465500 	movtpl	r5, #25856	; 0x6500
 2c0:	00544154 	subseq	r4, r4, r4, asr r1
 2c4:	6d6d6f63 	stclvs	15, cr6, [sp, #-396]!	; 0xfffffe74
 2c8:	732f6e6f 	teqvc	pc, #1776	; 0x6f0
 2cc:	752f6372 	strvc	r6, [pc, #-882]!	; ffffff62 <__bss_end__+0xbc3fb766>
 2d0:	2e747261 	cdpcs	2, 7, cr7, cr4, cr1, {3}
 2d4:	73700063 	cmnvc	r0, #99	; 0x63
 2d8:	55007274 	strpl	r7, [r0, #-628]	; 0xfffffd8c
 2dc:	00485852 	subeq	r5, r8, r2, asr r8
 2e0:	46544c41 	ldrbmi	r4, [r4], -r1, asr #24
 2e4:	4100304e 	tstmi	r0, lr, asr #32
 2e8:	4e46544c 	cdpmi	4, 4, cr5, cr6, cr12, {2}
 2ec:	45440031 	strbmi	r0, [r4, #-49]	; 0xffffffcf
 2f0:	424e4554 	submi	r4, lr, #84, 10	; 0x15000000
 2f4:	755f5f00 	ldrbvc	r5, [pc, #-3840]	; fffff3fc <__bss_end__+0xbc3fac00>
 2f8:	5f747261 	svcpl	0x00747261
 2fc:	63747570 	cmnvs	r4, #112, 10	; 0x1c000000
 300:	6c616800 	stclvs	8, cr6, [r1], #-0
 304:	7461775f 	strbtvc	r7, [r1], #-1887	; 0xfffff8a1
 308:	6f646863 	svcvs	0x00646863
 30c:	6e695f67 	cdpvs	15, 6, cr5, cr9, cr7, {3}
 310:	66007469 	strvs	r7, [r0], -r9, ror #8
 314:	74616f6c 	strbtvc	r6, [r1], #-3948	; 0xfffff094
 318:	5f706900 	svcpl	0x00706900
 31c:	65736572 	ldrbvs	r6, [r3, #-1394]!	; 0xfffffa8e
 320:	57003174 	smlsdxpl	r0, r4, r1, r3
 324:	465f5444 	ldrbmi	r5, [pc], -r4, asr #8
 328:	00646565 	rsbeq	r6, r4, r5, ror #10
 32c:	2f637273 	svccs	0x00637273
 330:	63746177 	cmnvs	r4, #-1073741795	; 0xc000001d
 334:	676f6468 	strbvs	r6, [pc, -r8, ror #8]!
 338:	7400632e 	strvc	r6, [r0], #-814	; 0xfffffcd2
 33c:	7461775f 	strbtvc	r7, [r1], #-1887	; 0xfffff8a1
 340:	6f646863 	svcvs	0x00646863
 344:	745f0067 	ldrbvc	r0, [pc], #-103	; 34c <_start-0x43bffcb4>
 348:	00656d69 	rsbeq	r6, r5, r9, ror #26
 34c:	4d4d4f43 	stclmi	15, cr4, [sp, #-268]	; 0xfffffef4
 350:	5f444e41 	svcpl	0x00444e41
 354:	4e414843 	cdpmi	8, 4, cr4, cr1, cr3, {2}
 358:	4c5f4547 	cfldr64mi	mvdx4, [pc], {71}	; 0x47
 35c:	5055574f 	subspl	r5, r5, pc, asr #14
 360:	6d6f6300 	stclvs	3, cr6, [pc, #-0]	; 368 <_start-0x43bffc98>
 364:	646e616d 	strbtvs	r6, [lr], #-365	; 0xfffffe93
 368:	6d756e5f 	ldclvs	14, cr6, [r5, #-380]!	; 0xfffffe84
 36c:	4d4f4300 	stclmi	3, cr4, [pc, #-0]	; 374 <_start-0x43bffc8c>
 370:	444e414d 	strbmi	r4, [lr], #-333	; 0xfffffeb3
 374:	4552475f 	ldrbmi	r4, [r2, #-1887]	; 0xfffff8a1
 378:	464f4e45 	strbmi	r4, [pc], -r5, asr #28
 37c:	75620046 	strbvc	r0, [r2, #-70]!	; 0xffffffba
 380:	72656666 	rsbvc	r6, r5, #106954752	; 0x6600000
 384:	7261755f 	rsbvc	r7, r1, #398458880	; 0x17c00000
 388:	4f430074 	svcmi	0x00430074
 38c:	4e414d4d 	cdpmi	13, 4, cr4, cr1, cr13, {2}
 390:	4c425f44 	mcrrmi	15, 4, r5, r2, cr4
 394:	464f4555 			; <UNDEFINED> instruction: 0x464f4555
 398:	6f760046 	svcvs	0x00760046
 39c:	6761746c 	strbvs	r7, [r1, -ip, ror #8]!
 3a0:	6f6c5f65 	svcvs	0x006c5f65
 3a4:	70755f77 	rsbsvc	r5, r5, r7, ror pc
 3a8:	6364615f 	cmnvs	r4, #-1073741801	; 0xc0000017
 3ac:	63655200 	cmnvs	r5, #0, 4
 3b0:	65766965 	ldrbvs	r6, [r6, #-2405]!	; 0xfffff69b
 3b4:	7274535f 	rsbsvc	r5, r4, #2080374785	; 0x7c000001
 3b8:	00676e69 	rsbeq	r6, r7, r9, ror #28
 3bc:	4d4d4f43 	stclmi	15, cr4, [sp, #-268]	; 0xfffffef4
 3c0:	5f444e41 	svcpl	0x00444e41
 3c4:	54494e49 	strbpl	r4, [r9], #-3657	; 0xfffff1b7
 3c8:	76696400 	strbtvc	r6, [r9], -r0, lsl #8
 3cc:	6c61765f 	stclvs	6, cr7, [r1], #-380	; 0xfffffe84
 3d0:	4d4f4300 	stclmi	3, cr4, [pc, #-0]	; 3d8 <_start-0x43bffc28>
 3d4:	444e414d 	strbmi	r4, [lr], #-333	; 0xfffffeb3
 3d8:	4d57505f 	ldclmi	0, cr5, [r7, #-380]	; 0xfffffe84
 3dc:	0046464f 	subeq	r4, r6, pc, asr #12
 3e0:	69727453 	ldmdbvs	r2!, {r0, r1, r4, r6, sl, ip, sp, lr}^
 3e4:	6d43676e 	stclvs	7, cr6, [r3, #-440]	; 0xfffffe48
 3e8:	66750070 			; <UNDEFINED> instruction: 0x66750070
 3ec:	76636172 			; <UNDEFINED> instruction: 0x76636172
 3f0:	006e6c61 	rsbeq	r6, lr, r1, ror #24
 3f4:	31727470 	cmncc	r2, r0, ror r4
 3f8:	72747000 	rsbsvc	r7, r4, #0
 3fc:	65670032 	strbvs	r0, [r7, #-50]!	; 0xffffffce
 400:	6d6f4374 	stclvs	3, cr4, [pc, #-464]!	; 238 <_start-0x43bffdc8>
 404:	646e616d 	strbtvs	r6, [lr], #-365	; 0xfffffe93
 408:	756c6156 	strbvc	r6, [ip, #-342]!	; 0xfffffeaa
 40c:	55794265 	ldrbpl	r4, [r9, #-613]!	; 0xfffffd9b
 410:	00747261 	rsbseq	r7, r4, r1, ror #4
 414:	6b6c6373 	blvs	1b191e8 <_start-0x420e6e18>
 418:	7261755f 	rsbvc	r7, r1, #398458880	; 0x17c00000
 41c:	6f760074 	svcvs	0x00760074
 420:	6761746c 	strbvs	r7, [r1, -ip, ror #8]!
 424:	69685f65 	stmdbvs	r8!, {r0, r2, r5, r6, r8, r9, sl, fp, ip, lr}^
 428:	755f6867 	ldrbvc	r6, [pc, #-2151]	; fffffbc9 <__bss_end__+0xbc3fb3cd>
 42c:	64615f70 	strbtvs	r5, [r1], #-3952	; 0xfffff090
 430:	4f430063 	svcmi	0x00430063
 434:	4e414d4d 	cdpmi	13, 4, cr4, cr1, cr13, {2}
 438:	48435f44 	stmdami	r3, {r2, r6, r8, r9, sl, fp, ip, lr}^
 43c:	45474e41 	strbmi	r4, [r7, #-3649]	; 0xfffff1bf
 440:	4749485f 	smlsldmi	r4, r9, pc, r8	; <UNPREDICTABLE>
 444:	574f4448 	strbpl	r4, [pc, -r8, asr #8]
 448:	6f62004e 	svcvs	0x0062004e
 44c:	00646e75 	rsbeq	r6, r4, r5, ror lr
 450:	746c6f76 	strbtvc	r6, [ip], #-3958	; 0xfffff08a
 454:	5f656761 	svcpl	0x00656761
 458:	6464696d 	strbtvs	r6, [r4], #-2413	; 0xfffff693
 45c:	615f656c 	cmpvs	pc, ip, ror #10
 460:	43006364 	movwmi	r6, #868	; 0x364
 464:	414d4d4f 	mrsmi	r4, SPSR
 468:	435f444e 	cmpmi	pc, #1308622848	; 0x4e000000
 46c:	474e4148 	strbmi	r4, [lr, -r8, asr #2]
 470:	4f4c5f45 	svcmi	0x004c5f45
 474:	574f4457 	smlsldpl	r4, pc, r7, r4	; <UNPREDICTABLE>
 478:	7473004e 	ldrbtvc	r0, [r3], #-78	; 0xffffffb2
 47c:	6e656c72 	mcrvs	12, 3, r6, cr5, cr2, {3}
 480:	6c6f7600 	stclvs	6, cr7, [pc], #-0	; 488 <_start-0x43bffb78>
 484:	65676174 	strbvs	r6, [r7, #-372]!	; 0xfffffe8c
 488:	776f6c5f 			; <UNDEFINED> instruction: 0x776f6c5f
 48c:	776f645f 			; <UNDEFINED> instruction: 0x776f645f
 490:	64615f6e 	strbtvs	r5, [r1], #-3950	; 0xfffff092
 494:	4f430063 	svcmi	0x00430063
 498:	4e414d4d 	cdpmi	13, 4, cr4, cr1, cr13, {2}
 49c:	45525f44 	ldrbmi	r5, [r2, #-3908]	; 0xfffff0bc
 4a0:	46464f44 	strbmi	r4, [r6], -r4, asr #30
 4a4:	63655200 	cmnvs	r5, #0, 4
 4a8:	65766965 	ldrbvs	r6, [r6, #-2405]!	; 0xfffff69b
 4ac:	7479425f 	ldrbtvc	r4, [r9], #-607	; 0xfffffda1
 4b0:	4f430065 	svcmi	0x00430065
 4b4:	4e414d4d 	cdpmi	13, 4, cr4, cr1, cr13, {2}
 4b8:	48435f44 	stmdami	r3, {r2, r6, r8, r9, sl, fp, ip, lr}^
 4bc:	45474e41 	strbmi	r4, [r7, #-3649]	; 0xfffff1bf
 4c0:	4749485f 	smlsldmi	r4, r9, pc, r8	; <UNPREDICTABLE>
 4c4:	00505548 	subseq	r5, r0, r8, asr #10
 4c8:	43746567 	cmnmi	r4, #432013312	; 0x19c00000
 4cc:	616d6d6f 	cmnvs	sp, pc, ror #26
 4d0:	614e646e 	mrsvs	r6, SPSR
 4d4:	7942656d 	stmdbvc	r2, {r0, r2, r3, r5, r6, r8, sl, sp, lr}^
 4d8:	74726155 	ldrbtvc	r6, [r2], #-341	; 0xfffffeab
 4dc:	64646100 	strbtvs	r6, [r4], #-256	; 0xffffff00
 4e0:	73736572 	cmnvc	r3, #478150656	; 0x1c800000
 4e4:	4d4f4300 	stclmi	3, cr4, [pc, #-0]	; 4ec <_start-0x43bffb14>
 4e8:	444e414d 	strbmi	r4, [lr], #-333	; 0xfffffeb3
 4ec:	554c425f 	strbpl	r4, [ip, #-607]	; 0xfffffda1
 4f0:	004e4f45 	subeq	r4, lr, r5, asr #30
 4f4:	53727473 	cmnpl	r2, #1929379840	; 0x73000000
 4f8:	43006372 	movwmi	r6, #882	; 0x372
 4fc:	414d4d4f 	mrsmi	r4, SPSR
 500:	525f444e 	subspl	r4, pc, #1308622848	; 0x4e000000
 504:	4e4f4445 	cdpmi	4, 4, cr4, cr15, cr5, {2}
 508:	65784500 	ldrbvs	r4, [r8, #-1280]!	; 0xfffffb00
 50c:	6d6f4363 	stclvs	3, cr4, [pc, #-396]!	; 388 <_start-0x43bffc78>
 510:	646e616d 	strbtvs	r6, [lr], #-365	; 0xfffffe93
 514:	61557942 	cmpvs	r5, r2, asr #18
 518:	43007472 	movwmi	r7, #1138	; 0x472
 51c:	414d4d4f 	mrsmi	r4, SPSR
 520:	475f444e 	ldrbmi	r4, [pc, -lr, asr #8]
 524:	4e454552 	mcrmi	5, 2, r4, cr5, cr2, {2}
 528:	43004e4f 	movwmi	r4, #3663	; 0xe4f
 52c:	414d4d4f 	mrsmi	r4, SPSR
 530:	565f444e 	ldrbpl	r4, [pc], -lr, asr #8
 534:	45554c41 	ldrbmi	r4, [r5, #-3137]	; 0xfffff3bf
 538:	5252455f 	subspl	r4, r2, #398458880	; 0x17c00000
 53c:	4300524f 	movwmi	r5, #591	; 0x24f
 540:	414d4d4f 	mrsmi	r4, SPSR
 544:	505f444e 	subspl	r4, pc, lr, asr #8
 548:	4e4f4d57 	mcrmi	13, 2, r4, cr15, cr7, {2}
 54c:	6c616800 	stclvs	8, cr6, [r1], #-0
 550:	7261755f 	rsbvc	r7, r1, #398458880	; 0x17c00000
 554:	6e695f74 	mcrvs	15, 3, r5, cr9, cr4, {3}
 558:	5f007469 	svcpl	0x00007469
 55c:	746e6975 	strbtvc	r6, [lr], #-2421	; 0xfffff68b
 560:	67003233 	smladxvs	r0, r3, r2, r3
 564:	6f437465 	svcvs	0x00437465
 568:	6e616d6d 	cdpvs	13, 6, cr6, cr1, cr13, {3}
 56c:	6d754e64 	ldclvs	14, cr4, [r5, #-400]!	; 0xfffffe70
 570:	61557942 	cmpvs	r5, r2, asr #18
 574:	54007472 	strpl	r7, [r0], #-1138	; 0xfffffb8e
 578:	736e6172 	cmnvc	lr, #-2147483620	; 0x8000001c
 57c:	5f74696d 	svcpl	0x0074696d
 580:	65747942 	ldrbvs	r7, [r4, #-2370]!	; 0xfffff6be
 584:	72747300 	rsbsvc	r7, r4, #0, 6
 588:	74736544 	ldrbtvc	r6, [r3], #-1348	; 0xfffffabc
 58c:	6d6f6300 	stclvs	3, cr6, [pc, #-0]	; 594 <_start-0x43bffa6c>
 590:	646e616d 	strbtvs	r6, [lr], #-365	; 0xfffffe93
 594:	6d756e5f 	ldclvs	14, cr6, [r5, #-380]!	; 0xfffffe84
 598:	7000745f 	andvc	r7, r0, pc, asr r4
 59c:	435f7274 	cmpmi	pc, #116, 4	; 0x40000007
 5a0:	616d6d6f 	cmnvs	sp, pc, ror #26
 5a4:	6156646e 	cmpvs	r6, lr, ror #8
 5a8:	0065756c 	rsbeq	r7, r5, ip, ror #10
 5ac:	746c6f76 	strbtvc	r6, [ip], #-3958	; 0xfffff08a
 5b0:	5f656761 	svcpl	0x00656761
 5b4:	68676968 	stmdavs	r7!, {r3, r5, r6, r8, fp, sp, lr}^
 5b8:	776f645f 			; <UNDEFINED> instruction: 0x776f645f
 5bc:	64615f6e 	strbtvs	r5, [r1], #-3950	; 0xfffff092
 5c0:	6f760063 	svcvs	0x00760063
 5c4:	6761746c 	strbvs	r7, [r1, -ip, ror #8]!
 5c8:	64615f65 	strbtvs	r5, [r1], #-3941	; 0xfffff09b
 5cc:	4f430063 	svcmi	0x00430063
 5d0:	4e414d4d 	cdpmi	13, 4, cr4, cr1, cr13, {2}
 5d4:	414e5f44 	mrsmi	r5, SPSR
 5d8:	455f454d 	ldrbmi	r4, [pc, #-1357]	; 93 <_start-0x43bfff6d>
 5dc:	524f5252 	subpl	r5, pc, #536870917	; 0x20000005
 5e0:	756f6300 	strbvc	r6, [pc, #-768]!	; 2e8 <_start-0x43bffd18>
 5e4:	625f746e 	subsvs	r7, pc, #1845493760	; 0x6e000000
 5e8:	6b6e616c 	blvs	1b98ba0 <_start-0x42067460>
 5ec:	61725400 	cmnvs	r2, r0, lsl #8
 5f0:	696d736e 	stmdbvs	sp!, {r1, r2, r3, r5, r6, r8, r9, ip, sp, lr}^
 5f4:	74535f74 	ldrbvc	r5, [r3], #-3956	; 0xfffff08c
 5f8:	676e6972 			; <UNDEFINED> instruction: 0x676e6972
 5fc:	72627500 	rsbvc	r7, r2, #0, 10
 600:	6e766964 	cdpvs	9, 7, cr6, cr6, cr4, {3}
 604:	72747000 	rsbsvc	r7, r4, #0
 608:	6d6f435f 	stclvs	3, cr4, [pc, #-380]!	; 494 <_start-0x43bffb6c>
 60c:	646e616d 	strbtvs	r6, [lr], #-365	; 0xfffffe93
 610:	656d614e 	strbvs	r6, [sp, #-334]!	; 0xfffffeb2
 614:	73796d00 	cmnvc	r9, #0, 26
 618:	70637274 	rsbvc	r7, r3, r4, ror r2
 61c:	43490079 	movtmi	r0, #36985	; 0x9079
 620:	444e4550 	strbmi	r4, [lr], #-1360	; 0xfffffab0
 624:	00305245 	eorseq	r5, r0, r5, asr #4
 628:	45504349 	ldrbmi	r4, [r0, #-841]	; 0xfffffcb7
 62c:	5245444e 	subpl	r4, r5, #1308622848	; 0x4e000000
 630:	72730031 	rsbsvc	r0, r3, #49	; 0x31
 634:	6f642f63 	svcvs	0x00642f63
 638:	7172695f 	cmnvc	r2, pc, asr r9
 63c:	5400632e 	strpl	r6, [r0], #-814	; 0xfffffcd2
 640:	42504d43 	subsmi	r4, r0, #4288	; 0x10c0
 644:	43540030 	cmpmi	r4, #48	; 0x30
 648:	3142504d 	mrscc	r5, SPSR
 64c:	4d435400 	cfstrdmi	mvd5, [r3, #-0]
 650:	00324250 	eorseq	r4, r2, r0, asr r2
 654:	504d4354 	subpl	r4, sp, r4, asr r3
 658:	49003342 	stmdbmi	r0, {r1, r6, r8, r9, ip, sp}
 65c:	4e455043 	cdpmi	0, 4, cr5, cr5, cr3, {2}
 660:	32524544 	subscc	r4, r2, #68, 10	; 0x11000000
 664:	50434900 	subpl	r4, r3, r0, lsl #18
 668:	45444e45 	strbmi	r4, [r4, #-3653]	; 0xfffff1bb
 66c:	49003352 	stmdbmi	r0, {r1, r4, r6, r8, r9, ip, sp}
 670:	4e455043 	cdpmi	0, 4, cr5, cr5, cr3, {2}
 674:	34524544 	ldrbcc	r4, [r2], #-1348	; 0xfffffabc
 678:	5f6f6400 	svcpl	0x006f6400
 67c:	00717269 	rsbseq	r7, r1, r9, ror #4
 680:	64636967 	strbtvs	r6, [r3], #-2407	; 0xfffff699
 684:	7063695f 	rsbvc	r6, r3, pc, asr r9
 688:	65646e65 	strbvs	r6, [r4, #-3685]!	; 0xfffff19b
 68c:	70670072 	rsbvc	r0, r7, r2, ror r0
 690:	00626f69 	rsbeq	r6, r2, r9, ror #30
 694:	5f717269 	svcpl	0x00717269
 698:	006d756e 	rsbeq	r7, sp, lr, ror #10
 69c:	47464354 	smlsldmi	r4, r6, r4, r3
 6a0:	43540030 	cmpmi	r4, #48	; 0x30
 6a4:	00314746 	eorseq	r4, r1, r6, asr #14
 6a8:	4e4f4354 	mcrmi	3, 2, r4, cr15, cr4, {2}
 6ac:	4e435400 	cdpmi	4, 4, cr5, cr3, cr0, {0}
 6b0:	00304f54 	eorseq	r4, r0, r4, asr pc
 6b4:	544e4354 	strbpl	r4, [lr], #-852	; 0xfffffcac
 6b8:	5400314f 	strpl	r3, [r0], #-335	; 0xfffffeb1
 6bc:	4f544e43 	svcmi	0x00544e43
 6c0:	43540032 	cmpmi	r4, #50	; 0x32
 6c4:	334f544e 	movtcc	r5, #62542	; 0xf44e
 6c8:	4e435400 	cdpmi	4, 4, cr5, cr3, cr0, {0}
 6cc:	00344f54 	eorseq	r4, r4, r4, asr pc
 6d0:	544e4954 	strbpl	r4, [lr], #-2388	; 0xfffff6ac
 6d4:	5453435f 	ldrbpl	r4, [r3], #-863	; 0xfffffca1
 6d8:	54005441 	strpl	r5, [r0], #-1089	; 0xfffffbbf
 6dc:	42544e43 	subsmi	r4, r4, #1072	; 0x430
 6e0:	43540030 	cmpmi	r4, #48	; 0x30
 6e4:	3142544e 	mrscc	r5, SPSR
 6e8:	4e435400 	cdpmi	4, 4, cr5, cr3, cr0, {0}
 6ec:	00324254 	eorseq	r4, r2, r4, asr r2
 6f0:	544e4354 	strbpl	r4, [lr], #-852	; 0xfffffcac
 6f4:	54003342 	strpl	r3, [r0], #-834	; 0xfffffcbe
 6f8:	42544e43 	subsmi	r4, r4, #1072	; 0x430
 6fc:	61680034 	cmnvs	r8, r4, lsr r0
 700:	77705f6c 	ldrbvc	r5, [r0, -ip, ror #30]!
 704:	6f5f316d 	svcvs	0x005f316d
 708:	6168006e 	cmnvs	r8, lr, rrx
 70c:	77705f6c 	ldrbvc	r5, [r0, -ip, ror #30]!
 710:	6f5f306d 	svcvs	0x005f306d
 714:	7273006e 	rsbsvc	r0, r3, #110	; 0x6e
 718:	77702f63 	ldrbvc	r2, [r0, -r3, ror #30]!
 71c:	6e6f5f6d 	cdpvs	15, 6, cr5, cr15, cr13, {3}
 720:	7000632e 	andvc	r6, r0, lr, lsr #6
 724:	63736572 	cmnvs	r3, #478150656	; 0x1c800000
 728:	72656c61 	rsbvc	r6, r5, #24832	; 0x6100
 72c:	69706700 	ldmdbvs	r0!, {r8, r9, sl, sp, lr}^
 730:	6800636f 	stmdavs	r0, {r0, r1, r2, r3, r5, r6, r8, r9, sp, lr}
 734:	705f6c61 	subsvc	r6, pc, r1, ror #24
 738:	5f326d77 	svcpl	0x00326d77
 73c:	74006e6f 	strvc	r6, [r0], #-3695	; 0xfffff191
 740:	6274636e 	rsbsvs	r6, r4, #-1207959551	; 0xb8000001
 744:	61680032 	cmnvs	r8, r2, lsr r0
 748:	77705f6c 	ldrbvc	r5, [r0, -ip, ror #30]!
 74c:	666f5f6d 	strbtvs	r5, [pc], -sp, ror #30
 750:	53490066 	movtpl	r0, #36966	; 0x9066
 754:	42414e45 	submi	r4, r1, #1104	; 0x450
 758:	3052454c 	subscc	r4, r2, ip, asr #10
 75c:	45534900 	ldrbmi	r4, [r3, #-2304]	; 0xfffff700
 760:	4c42414e 	stfmie	f4, [r2], {78}	; 0x4e
 764:	00315245 	eorseq	r5, r1, r5, asr #4
 768:	4e455349 	cdpmi	3, 4, cr5, cr5, cr9, {2}
 76c:	454c4241 	strbmi	r4, [ip, #-577]	; 0xfffffdbf
 770:	49003252 	stmdbmi	r0, {r1, r4, r6, r9, ip, sp}
 774:	414e4553 	cmpmi	lr, r3, asr r5
 778:	52454c42 	subpl	r4, r5, #16896	; 0x4200
 77c:	54490034 	strbpl	r0, [r9], #-52	; 0xffffffcc
 780:	45475241 	strbmi	r5, [r7, #-577]	; 0xfffffdbf
 784:	32525354 	subscc	r5, r2, #84, 6	; 0x50000001
 788:	54490030 	strbpl	r0, [r9], #-48	; 0xffffffd0
 78c:	45475241 	strbmi	r5, [r7, #-577]	; 0xfffffdbf
 790:	32525354 	subscc	r5, r2, #84, 6	; 0x50000001
 794:	54490031 	strbpl	r0, [r9], #-49	; 0xffffffcf
 798:	45475241 	strbmi	r5, [r7, #-577]	; 0xfffffdbf
 79c:	32525354 	subscc	r5, r2, #84, 6	; 0x50000001
 7a0:	54490032 	strbpl	r0, [r9], #-50	; 0xffffffce
 7a4:	45475241 	strbmi	r5, [r7, #-577]	; 0xfffffdbf
 7a8:	32525354 	subscc	r5, r2, #84, 6	; 0x50000001
 7ac:	54490033 	strbpl	r0, [r9], #-51	; 0xffffffcd
 7b0:	45475241 	strbmi	r5, [r7, #-577]	; 0xfffffdbf
 7b4:	32525354 	subscc	r5, r2, #84, 6	; 0x50000001
 7b8:	54490034 	strbpl	r0, [r9], #-52	; 0xffffffcc
 7bc:	45475241 	strbmi	r5, [r7, #-577]	; 0xfffffdbf
 7c0:	32525354 	subscc	r5, r2, #84, 6	; 0x50000001
 7c4:	54490035 	strbpl	r0, [r9], #-53	; 0xffffffcb
 7c8:	45475241 	strbmi	r5, [r7, #-577]	; 0xfffffdbf
 7cc:	32525354 	subscc	r5, r2, #84, 6	; 0x50000001
 7d0:	54490036 	strbpl	r0, [r9], #-54	; 0xffffffca
 7d4:	45475241 	strbmi	r5, [r7, #-577]	; 0xfffffdbf
 7d8:	32525354 	subscc	r5, r2, #84, 6	; 0x50000001
 7dc:	54490037 	strbpl	r0, [r9], #-55	; 0xffffffc9
 7e0:	45475241 	strbmi	r5, [r7, #-577]	; 0xfffffdbf
 7e4:	32525354 	subscc	r5, r2, #84, 6	; 0x50000001
 7e8:	54490038 	strbpl	r0, [r9], #-56	; 0xffffffc8
 7ec:	45475241 	strbmi	r5, [r7, #-577]	; 0xfffffdbf
 7f0:	32525354 	subscc	r5, r2, #84, 6	; 0x50000001
 7f4:	50490039 	subpl	r0, r9, r9, lsr r0
 7f8:	524f4952 	subpl	r4, pc, #1343488	; 0x148000
 7fc:	52595449 	subspl	r5, r9, #1224736768	; 0x49000000
 800:	50490030 	subpl	r0, r9, r0, lsr r0
 804:	524f4952 	subpl	r4, pc, #1343488	; 0x148000
 808:	52595449 	subspl	r5, r9, #1224736768	; 0x49000000
 80c:	50490031 	subpl	r0, r9, r1, lsr r0
 810:	524f4952 	subpl	r4, pc, #1343488	; 0x148000
 814:	52595449 	subspl	r5, r9, #1224736768	; 0x49000000
 818:	50490032 	subpl	r0, r9, r2, lsr r0
 81c:	524f4952 	subpl	r4, pc, #1343488	; 0x148000
 820:	52595449 	subspl	r5, r9, #1224736768	; 0x49000000
 824:	50490033 	subpl	r0, r9, r3, lsr r0
 828:	524f4952 	subpl	r4, pc, #1343488	; 0x148000
 82c:	52595449 	subspl	r5, r9, #1224736768	; 0x49000000
 830:	50490034 	subpl	r0, r9, r4, lsr r0
 834:	524f4952 	subpl	r4, pc, #1343488	; 0x148000
 838:	52595449 	subspl	r5, r9, #1224736768	; 0x49000000
 83c:	69670035 	stmdbvs	r7!, {r0, r2, r4, r5}^
 840:	695f6463 	ldmdbvs	pc, {r0, r1, r5, r6, sl, sp, lr}^	; <UNPREDICTABLE>
 844:	6f697270 	svcvs	0x00697270
 848:	79726972 	ldmdbvc	r2!, {r1, r4, r5, r6, r8, fp, sp, lr}^
 84c:	54490072 	strbpl	r0, [r9], #-114	; 0xffffff8e
 850:	45475241 	strbmi	r5, [r7, #-577]	; 0xfffffdbf
 854:	33525354 	cmpcc	r2, #84, 6	; 0x50000001
 858:	54490030 	strbpl	r0, [r9], #-48	; 0xffffffd0
 85c:	45475241 	strbmi	r5, [r7, #-577]	; 0xfffffdbf
 860:	33525354 	cmpcc	r2, #84, 6	; 0x50000001
 864:	54490031 	strbpl	r0, [r9], #-49	; 0xffffffcf
 868:	45475241 	strbmi	r5, [r7, #-577]	; 0xfffffdbf
 86c:	33525354 	cmpcc	r2, #84, 6	; 0x50000001
 870:	54490032 	strbpl	r0, [r9], #-50	; 0xffffffce
 874:	45475241 	strbmi	r5, [r7, #-577]	; 0xfffffdbf
 878:	33525354 	cmpcc	r2, #84, 6	; 0x50000001
 87c:	54490033 	strbpl	r0, [r9], #-51	; 0xffffffcd
 880:	45475241 	strbmi	r5, [r7, #-577]	; 0xfffffdbf
 884:	33525354 	cmpcc	r2, #84, 6	; 0x50000001
 888:	54490034 	strbpl	r0, [r9], #-52	; 0xffffffcc
 88c:	45475241 	strbmi	r5, [r7, #-577]	; 0xfffffdbf
 890:	33525354 	cmpcc	r2, #84, 6	; 0x50000001
 894:	54490035 	strbpl	r0, [r9], #-53	; 0xffffffcb
 898:	45475241 	strbmi	r5, [r7, #-577]	; 0xfffffdbf
 89c:	33525354 	cmpcc	r2, #84, 6	; 0x50000001
 8a0:	54490036 	strbpl	r0, [r9], #-54	; 0xffffffca
 8a4:	45475241 	strbmi	r5, [r7, #-577]	; 0xfffffdbf
 8a8:	33525354 	cmpcc	r2, #84, 6	; 0x50000001
 8ac:	54490038 	strbpl	r0, [r9], #-56	; 0xffffffc8
 8b0:	45475241 	strbmi	r5, [r7, #-577]	; 0xfffffdbf
 8b4:	33525354 	cmpcc	r2, #84, 6	; 0x50000001
 8b8:	54490039 	strbpl	r0, [r9], #-57	; 0xffffffc7
 8bc:	45475241 	strbmi	r5, [r7, #-577]	; 0xfffffdbf
 8c0:	30525354 	subscc	r5, r2, r4, asr r3
 8c4:	41544900 	cmpmi	r4, r0, lsl #18
 8c8:	54454752 	strbpl	r4, [r5], #-1874	; 0xfffff8ae
 8cc:	00315253 	eorseq	r5, r1, r3, asr r2
 8d0:	52415449 	subpl	r5, r1, #1224736768	; 0x49000000
 8d4:	53544547 	cmppl	r4, #297795584	; 0x11c00000
 8d8:	49003252 	stmdbmi	r0, {r1, r4, r6, r9, ip, sp}
 8dc:	47524154 			; <UNDEFINED> instruction: 0x47524154
 8e0:	52535445 	subspl	r5, r3, #1157627904	; 0x45000000
 8e4:	54490033 	strbpl	r0, [r9], #-51	; 0xffffffcd
 8e8:	45475241 	strbmi	r5, [r7, #-577]	; 0xfffffdbf
 8ec:	34525354 	ldrbcc	r5, [r2], #-852	; 0xfffffcac
 8f0:	41544900 	cmpmi	r4, r0, lsl #18
 8f4:	54454752 	strbpl	r4, [r5], #-1874	; 0xfffff8ae
 8f8:	00355253 	eorseq	r5, r5, r3, asr r2
 8fc:	52415449 	subpl	r5, r1, #1224736768	; 0x49000000
 900:	53544547 	cmppl	r4, #297795584	; 0x11c00000
 904:	49003652 	stmdbmi	r0, {r1, r4, r6, r9, sl, ip, sp}
 908:	47524154 			; <UNDEFINED> instruction: 0x47524154
 90c:	52535445 	subspl	r5, r3, #1157627904	; 0x45000000
 910:	54490037 	strbpl	r0, [r9], #-55	; 0xffffffc9
 914:	45475241 	strbmi	r5, [r7, #-577]	; 0xfffffdbf
 918:	38525354 	ldmdacc	r2, {r2, r4, r6, r8, r9, ip, lr}^
 91c:	41544900 	cmpmi	r4, r0, lsl #18
 920:	54454752 	strbpl	r4, [r5], #-1874	; 0xfffff8ae
 924:	00395253 	eorseq	r5, r9, r3, asr r2
 928:	49525049 	ldmdbmi	r2, {r0, r3, r6, ip, lr}^
 92c:	5449524f 	strbpl	r5, [r9], #-591	; 0xfffffdb1
 930:	36335259 			; <UNDEFINED> instruction: 0x36335259
 934:	63727300 	cmnvs	r2, #0, 6
 938:	79656b2f 	stmdbvc	r5!, {r0, r1, r2, r3, r5, r8, r9, fp, sp, lr}^
 93c:	4900632e 	stmdbmi	r0, {r1, r2, r3, r5, r8, r9, sp, lr}
 940:	4f495250 	svcmi	0x00495250
 944:	59544952 	ldmdbpl	r4, {r1, r4, r6, r8, fp, lr}^
 948:	49003652 	stmdbmi	r0, {r1, r4, r6, r9, sl, ip, sp}
 94c:	4f495250 	svcmi	0x00495250
 950:	59544952 	ldmdbpl	r4, {r1, r4, r6, r8, fp, lr}^
 954:	49003752 	stmdbmi	r0, {r1, r4, r6, r8, r9, sl, ip, sp}
 958:	4f495250 	svcmi	0x00495250
 95c:	59544952 	ldmdbpl	r4, {r1, r4, r6, r8, fp, lr}^
 960:	68003852 	stmdavs	r0, {r1, r4, r6, fp, ip, sp}
 964:	675f6c61 	ldrbvs	r6, [pc, -r1, ror #24]
 968:	695f6369 	ldmdbvs	pc, {r0, r3, r5, r6, r8, r9, sp, lr}^	; <UNPREDICTABLE>
 96c:	0074696e 	rsbseq	r6, r4, lr, ror #18
 970:	49525049 	ldmdbmi	r2, {r0, r3, r6, ip, lr}^
 974:	5449524f 	strbpl	r5, [r9], #-591	; 0xfffffdb1
 978:	00395259 	eorseq	r5, r9, r9, asr r2
 97c:	52415449 	subpl	r5, r1, #1224736768	; 0x49000000
 980:	53544547 	cmppl	r4, #297795584	; 0x11c00000
 984:	00373352 	eorseq	r3, r7, r2, asr r3
 988:	64636967 	strbtvs	r6, [r3], #-2407	; 0xfffff699
 98c:	6573695f 	ldrbvs	r6, [r3, #-2399]!	; 0xfffff6a1
 990:	6c62616e 	stfvse	f6, [r2], #-440	; 0xfffffe48
 994:	49007265 	stmdbmi	r0, {r0, r2, r5, r6, r9, ip, sp, lr}
 998:	4f495250 	svcmi	0x00495250
 99c:	59544952 	ldmdbpl	r4, {r1, r4, r6, r8, fp, lr}^
 9a0:	00303152 	eorseq	r3, r0, r2, asr r1
 9a4:	49525049 	ldmdbmi	r2, {r0, r3, r6, ip, lr}^
 9a8:	5449524f 	strbpl	r5, [r9], #-591	; 0xfffffdb1
 9ac:	31315259 	teqcc	r1, r9, asr r2
 9b0:	52504900 	subspl	r4, r0, #0, 18
 9b4:	49524f49 	ldmdbmi	r2, {r0, r3, r6, r8, r9, sl, fp, lr}^
 9b8:	31525954 	cmpcc	r2, r4, asr r9
 9bc:	50490032 	subpl	r0, r9, r2, lsr r0
 9c0:	524f4952 	subpl	r4, pc, #1343488	; 0x148000
 9c4:	52595449 	subspl	r5, r9, #1224736768	; 0x49000000
 9c8:	49003331 	stmdbmi	r0, {r0, r4, r5, r8, r9, ip, sp}
 9cc:	4f495250 	svcmi	0x00495250
 9d0:	59544952 	ldmdbpl	r4, {r1, r4, r6, r8, fp, lr}^
 9d4:	00343152 	eorseq	r3, r4, r2, asr r1
 9d8:	49525049 	ldmdbmi	r2, {r0, r3, r6, ip, lr}^
 9dc:	5449524f 	strbpl	r5, [r9], #-591	; 0xfffffdb1
 9e0:	35315259 	ldrcc	r5, [r1, #-601]!	; 0xfffffda7
 9e4:	52504900 	subspl	r4, r0, #0, 18
 9e8:	49524f49 	ldmdbmi	r2, {r0, r3, r6, r8, r9, sl, fp, lr}^
 9ec:	31525954 	cmpcc	r2, r4, asr r9
 9f0:	50490036 	subpl	r0, r9, r6, lsr r0
 9f4:	524f4952 	subpl	r4, pc, #1343488	; 0x148000
 9f8:	52595449 	subspl	r5, r9, #1224736768	; 0x49000000
 9fc:	49003731 	stmdbmi	r0, {r0, r4, r5, r8, r9, sl, ip, sp}
 a00:	4f495250 	svcmi	0x00495250
 a04:	59544952 	ldmdbpl	r4, {r1, r4, r6, r8, fp, lr}^
 a08:	00383152 	eorseq	r3, r8, r2, asr r1
 a0c:	49525049 	ldmdbmi	r2, {r0, r3, r6, ip, lr}^
 a10:	5449524f 	strbpl	r5, [r9], #-591	; 0xfffffdb1
 a14:	39315259 	ldmdbcc	r1!, {r0, r3, r4, r6, r9, ip, lr}
 a18:	63696700 	cmnvs	r9, #0, 14
 a1c:	74695f64 	strbtvc	r5, [r9], #-3940	; 0xfffff09c
 a20:	65677261 	strbvs	r7, [r7, #-609]!	; 0xfffffd9f
 a24:	00727374 	rsbseq	r7, r2, r4, ror r3
 a28:	5f6c6168 	svcpl	0x006c6168
 a2c:	6f697067 	svcvs	0x00697067
 a30:	746e695f 	strbtvc	r6, [lr], #-2399	; 0xfffff6a1
 a34:	75727265 	ldrbvc	r7, [r2, #-613]!	; 0xfffffd9b
 a38:	695f7470 	ldmdbvs	pc, {r4, r5, r6, sl, ip, sp, lr}^	; <UNPREDICTABLE>
 a3c:	0074696e 	rsbseq	r6, r4, lr, ror #18
 a40:	49525049 	ldmdbmi	r2, {r0, r3, r6, ip, lr}^
 a44:	5449524f 	strbpl	r5, [r9], #-591	; 0xfffffdb1
 a48:	30325259 	eorscc	r5, r2, r9, asr r2
 a4c:	52504900 	subspl	r4, r0, #0, 18
 a50:	49524f49 	ldmdbmi	r2, {r0, r3, r6, r8, r9, sl, fp, lr}^
 a54:	32525954 	subscc	r5, r2, #84, 18	; 0x150000
 a58:	50490031 	subpl	r0, r9, r1, lsr r0
 a5c:	524f4952 	subpl	r4, pc, #1343488	; 0x148000
 a60:	52595449 	subspl	r5, r9, #1224736768	; 0x49000000
 a64:	49003232 	stmdbmi	r0, {r1, r4, r5, r9, ip, sp}
 a68:	4f495250 	svcmi	0x00495250
 a6c:	59544952 	ldmdbpl	r4, {r1, r4, r6, r8, fp, lr}^
 a70:	00333252 	eorseq	r3, r3, r2, asr r2
 a74:	49525049 	ldmdbmi	r2, {r0, r3, r6, ip, lr}^
 a78:	5449524f 	strbpl	r5, [r9], #-591	; 0xfffffdb1
 a7c:	34325259 	ldrtcc	r5, [r2], #-601	; 0xfffffda7
 a80:	52504900 	subspl	r4, r0, #0, 18
 a84:	49524f49 	ldmdbmi	r2, {r0, r3, r6, r8, r9, sl, fp, lr}^
 a88:	32525954 	subscc	r5, r2, #84, 18	; 0x150000
 a8c:	50490035 	subpl	r0, r9, r5, lsr r0
 a90:	524f4952 	subpl	r4, pc, #1343488	; 0x148000
 a94:	52595449 	subspl	r5, r9, #1224736768	; 0x49000000
 a98:	49003632 	stmdbmi	r0, {r1, r4, r5, r9, sl, ip, sp}
 a9c:	4f495250 	svcmi	0x00495250
 aa0:	59544952 	ldmdbpl	r4, {r1, r4, r6, r8, fp, lr}^
 aa4:	00373252 	eorseq	r3, r7, r2, asr r2
 aa8:	49525049 	ldmdbmi	r2, {r0, r3, r6, ip, lr}^
 aac:	5449524f 	strbpl	r5, [r9], #-591	; 0xfffffdb1
 ab0:	38325259 	ldmdacc	r2!, {r0, r3, r4, r6, r9, ip, lr}
 ab4:	52504900 	subspl	r4, r0, #0, 18
 ab8:	49524f49 	ldmdbmi	r2, {r0, r3, r6, r8, r9, sl, fp, lr}^
 abc:	32525954 	subscc	r5, r2, #84, 18	; 0x150000
 ac0:	54490039 	strbpl	r0, [r9], #-57	; 0xffffffc7
 ac4:	45475241 	strbmi	r5, [r7, #-577]	; 0xfffffdbf
 ac8:	31525354 	cmpcc	r2, r4, asr r3
 acc:	54490031 	strbpl	r0, [r9], #-49	; 0xffffffcf
 ad0:	45475241 	strbmi	r5, [r7, #-577]	; 0xfffffdbf
 ad4:	31525354 	cmpcc	r2, r4, asr r3
 ad8:	54490036 	strbpl	r0, [r9], #-54	; 0xffffffca
 adc:	45475241 	strbmi	r5, [r7, #-577]	; 0xfffffdbf
 ae0:	31525354 	cmpcc	r2, r4, asr r3
 ae4:	54490030 	strbpl	r0, [r9], #-48	; 0xffffffd0
 ae8:	45475241 	strbmi	r5, [r7, #-577]	; 0xfffffdbf
 aec:	31525354 	cmpcc	r2, r4, asr r3
 af0:	54490032 	strbpl	r0, [r9], #-50	; 0xffffffce
 af4:	45475241 	strbmi	r5, [r7, #-577]	; 0xfffffdbf
 af8:	31525354 	cmpcc	r2, r4, asr r3
 afc:	54490033 	strbpl	r0, [r9], #-51	; 0xffffffcd
 b00:	45475241 	strbmi	r5, [r7, #-577]	; 0xfffffdbf
 b04:	31525354 	cmpcc	r2, r4, asr r3
 b08:	54490034 	strbpl	r0, [r9], #-52	; 0xffffffcc
 b0c:	45475241 	strbmi	r5, [r7, #-577]	; 0xfffffdbf
 b10:	31525354 	cmpcc	r2, r4, asr r3
 b14:	54490035 	strbpl	r0, [r9], #-53	; 0xffffffcb
 b18:	45475241 	strbmi	r5, [r7, #-577]	; 0xfffffdbf
 b1c:	31525354 	cmpcc	r2, r4, asr r3
 b20:	50490037 	subpl	r0, r9, r7, lsr r0
 b24:	524f4952 	subpl	r4, pc, #1343488	; 0x148000
 b28:	52595449 	subspl	r5, r9, #1224736768	; 0x49000000
 b2c:	49003033 	stmdbmi	r0, {r0, r1, r4, r5, ip, sp}
 b30:	4f495250 	svcmi	0x00495250
 b34:	59544952 	ldmdbpl	r4, {r1, r4, r6, r8, fp, lr}^
 b38:	00313352 	eorseq	r3, r1, r2, asr r3
 b3c:	49525049 	ldmdbmi	r2, {r0, r3, r6, ip, lr}^
 b40:	5449524f 	strbpl	r5, [r9], #-591	; 0xfffffdb1
 b44:	32335259 	eorscc	r5, r3, #-1879048187	; 0x90000005
 b48:	52504900 	subspl	r4, r0, #0, 18
 b4c:	49524f49 	ldmdbmi	r2, {r0, r3, r6, r8, r9, sl, fp, lr}^
 b50:	33525954 	cmpcc	r2, #84, 18	; 0x150000
 b54:	50490033 	subpl	r0, r9, r3, lsr r0
 b58:	524f4952 	subpl	r4, pc, #1343488	; 0x148000
 b5c:	52595449 	subspl	r5, r9, #1224736768	; 0x49000000
 b60:	49003433 	stmdbmi	r0, {r0, r1, r4, r5, sl, ip, sp}
 b64:	4f495250 	svcmi	0x00495250
 b68:	59544952 	ldmdbpl	r4, {r1, r4, r6, r8, fp, lr}^
 b6c:	00353352 	eorseq	r3, r5, r2, asr r3
 b70:	4e455349 	cdpmi	3, 4, cr5, cr5, cr9, {2}
 b74:	454c4241 	strbmi	r4, [ip, #-577]	; 0xfffffdbf
 b78:	49003352 	stmdbmi	r0, {r1, r4, r6, r8, r9, ip, sp}
 b7c:	4f495250 	svcmi	0x00495250
 b80:	59544952 	ldmdbpl	r4, {r1, r4, r6, r8, fp, lr}^
 b84:	00373352 	eorseq	r3, r7, r2, asr r3
 b88:	49525049 	ldmdbmi	r2, {r0, r3, r6, ip, lr}^
 b8c:	5449524f 	strbpl	r5, [r9], #-591	; 0xfffffdb1
 b90:	38335259 	ldmdacc	r3!, {r0, r3, r4, r6, r9, ip, lr}
 b94:	52504900 	subspl	r4, r0, #0, 18
 b98:	49524f49 	ldmdbmi	r2, {r0, r3, r6, r8, r9, sl, fp, lr}^
 b9c:	33525954 	cmpcc	r2, #84, 18	; 0x150000
 ba0:	54490039 	strbpl	r0, [r9], #-57	; 0xffffffc7
 ba4:	45475241 	strbmi	r5, [r7, #-577]	; 0xfffffdbf
 ba8:	31525354 	cmpcc	r2, r4, asr r3
 bac:	54490038 	strbpl	r0, [r9], #-56	; 0xffffffc8
 bb0:	45475241 	strbmi	r5, [r7, #-577]	; 0xfffffdbf
 bb4:	31525354 	cmpcc	r2, r4, asr r3
 bb8:	72730039 	rsbsvc	r0, r3, #57	; 0x39
 bbc:	65642f63 	strbvs	r2, [r4, #-3939]!	; 0xfffff09d
 bc0:	2e79616c 	rpwcsez	f6, f1, #4.0
 bc4:	65640063 	strbvs	r0, [r4, #-99]!	; 0xffffff9d
 bc8:	5f79616c 	svcpl	0x0079616c
 bcc:	6200736d 	andvs	r7, r0, #-1275068415	; 0xb4000001
 bd0:	5f65756c 	svcpl	0x0065756c
 bd4:	5f64656c 	svcpl	0x0064656c
 bd8:	68006e6f 	stmdavs	r0, {r0, r1, r2, r3, r5, r6, r9, sl, fp, sp, lr}
 bdc:	625f6c61 	subsvs	r6, pc, #24832	; 0x6100
 be0:	5f65756c 	svcpl	0x0065756c
 be4:	5f64656c 	svcpl	0x0064656c
 be8:	74757473 	ldrbtvc	r7, [r5], #-1139	; 0xfffffb8d
 bec:	73007365 	movwvc	r7, #869	; 0x365
 bf0:	745f7574 	ldrbvc	r7, [pc], #-1396	; bf8 <_start-0x43bff408>
 bf4:	64657200 	strbtvs	r7, [r5], #-512	; 0xfffffe00
 bf8:	64656c5f 	strbtvs	r6, [r5], #-3167	; 0xfffff3a1
 bfc:	006e6f5f 	rsbeq	r6, lr, pc, asr pc
 c00:	5f44454c 	svcpl	0x0044454c
 c04:	0046464f 	subeq	r4, r6, pc, asr #12
 c08:	5f6c6168 	svcpl	0x006c6168
 c0c:	5f646572 	svcpl	0x00646572
 c10:	5f64656c 	svcpl	0x0064656c
 c14:	74757473 	ldrbtvc	r7, [r5], #-1139	; 0xfffffb8d
 c18:	67007365 	strvs	r7, [r0, -r5, ror #6]
 c1c:	616f6970 	smcvs	63120	; 0xf690
 c20:	69706700 	ldmdbvs	r0!, {r8, r9, sl, sp, lr}^
 c24:	6c00656f 	cfstr32vs	mvfx6, [r0], {111}	; 0x6f
 c28:	635f6465 	cmpvs	pc, #1694498816	; 0x65000000
 c2c:	676e6168 	strbvs	r6, [lr, -r8, ror #2]!
 c30:	72730065 	rsbsvc	r0, r3, #101	; 0x65
 c34:	656c2f63 	strbvs	r2, [ip, #-3939]!	; 0xfffff09d
 c38:	6e6f5f64 	cdpvs	15, 6, cr5, cr15, cr4, {3}
 c3c:	4c00632e 	stcmi	3, cr6, [r0], {46}	; 0x2e
 c40:	4f5f4445 	svcmi	0x005f4445
 c44:	7267004e 	rsbvc	r0, r7, #78	; 0x4e
 c48:	5f6e6565 	svcpl	0x006e6565
 c4c:	5f64656c 	svcpl	0x0064656c
 c50:	68006e6f 	stmdavs	r0, {r0, r1, r2, r3, r5, r6, r9, sl, fp, sp, lr}
 c54:	6c5f6c61 	mrrcvs	12, 6, r6, pc, cr1	; <UNPREDICTABLE>
 c58:	695f6465 	ldmdbvs	pc, {r0, r2, r5, r6, sl, sp, lr}^	; <UNPREDICTABLE>
 c5c:	0074696e 	rsbseq	r6, r4, lr, ror #18
 c60:	74696877 	strbtvc	r6, [r9], #-2167	; 0xfffff789
 c64:	656c5f65 	strbvs	r5, [ip, #-3941]!	; 0xfffff09b
 c68:	6e6f5f64 	cdpvs	15, 6, cr5, cr15, cr4, {3}
 c6c:	6c616800 	stclvs	8, cr6, [r1], #-0
 c70:	6572675f 	ldrbvs	r6, [r2, #-1887]!	; 0xfffff8a1
 c74:	6c5f6e65 	mrrcvs	14, 6, r6, pc, cr5	; <UNPREDICTABLE>
 c78:	735f6465 	cmpvc	pc, #1694498816	; 0x65000000
 c7c:	65747574 	ldrbvs	r7, [r4, #-1396]!	; 0xfffffa8c
 c80:	65670073 	strbvs	r0, [r7, #-115]!	; 0xffffff8d
 c84:	64615f74 	strbtvs	r5, [r1], #-3956	; 0xfffff08c
 c88:	61765f63 	cmnvs	r6, r3, ror #30
 c8c:	0065756c 	rsbeq	r7, r5, ip, ror #10
 c90:	68676968 	stmdavs	r7!, {r3, r5, r6, r8, fp, sp, lr}^
 c94:	76007075 			; <UNDEFINED> instruction: 0x76007075
 c98:	61746c6f 	cmnvs	r4, pc, ror #24
 c9c:	6c466567 	cfstr64vs	mvdx6, [r6], {103}	; 0x67
 ca0:	4f4c0067 	svcmi	0x004c0067
 ca4:	4c4f5657 	mcrrmi	6, 5, r5, pc, cr7
 ca8:	45474154 	strbmi	r4, [r7, #-340]	; 0xfffffeac
 cac:	5f50555f 	svcpl	0x0050555f
 cb0:	00474c46 	subeq	r4, r7, r6, asr #24
 cb4:	746c6f76 	strbtvc	r6, [ip], #-3958	; 0xfffff08a
 cb8:	5f656761 	svcpl	0x00656761
 cbc:	6e616863 	cdpvs	8, 6, cr6, cr1, cr3, {3}
 cc0:	79426567 	stmdbvc	r2, {r0, r1, r2, r5, r6, r8, sl, sp, lr}^
 cc4:	74726155 	ldrbtvc	r6, [r2], #-341	; 0xfffffeab
 cc8:	574f4c00 	strbpl	r4, [pc, -r0, lsl #24]
 ccc:	544c4f56 	strbpl	r4, [ip], #-3926	; 0xfffff0aa
 cd0:	5f454741 	svcpl	0x00454741
 cd4:	4e574f44 	cdpmi	15, 5, cr4, cr7, cr4, {2}
 cd8:	474c465f 	smlsldmi	r4, ip, pc, r6	; <UNPREDICTABLE>
 cdc:	6c6f7600 	stclvs	6, cr7, [pc], #-0	; ce4 <_start-0x43bff31c>
 ce0:	65676174 	strbvs	r6, [r7, #-372]!	; 0xfffffe8c
 ce4:	6e6f635f 	mcrvs	3, 3, r6, cr15, cr15, {2}
 ce8:	6c6f7274 	sfmvs	f7, 2, [pc], #-464	; b20 <_start-0x43bff4e0>
 cec:	47494800 	strbmi	r4, [r9, -r0, lsl #16]
 cf0:	4c4f5648 	mcrrmi	6, 4, r5, pc, cr8
 cf4:	45474154 	strbmi	r4, [r7, #-340]	; 0xfffffeac
 cf8:	574f445f 	smlsldpl	r4, pc, pc, r4	; <UNPREDICTABLE>
 cfc:	4c465f4e 	mcrrmi	15, 4, r5, r6, cr14
 d00:	65670047 	strbvs	r0, [r7, #-71]!	; 0xffffffb9
 d04:	64615f74 	strbtvs	r5, [r1], #-3956	; 0xfffff08c
 d08:	6e695f63 	cdpvs	15, 6, cr5, cr9, cr3, {3}
 d0c:	72726574 	rsbsvc	r6, r2, #116, 10	; 0x1d000000
 d10:	00747075 	rsbseq	r7, r4, r5, ror r0
 d14:	4444494d 	strbmi	r4, [r4], #-2381	; 0xfffff6b3
 d18:	4f56454c 	svcmi	0x0056454c
 d1c:	4741544c 	strbmi	r5, [r1, -ip, asr #8]
 d20:	4c465f45 	mcrrmi	15, 4, r5, r6, cr5
 d24:	6f6c0047 	svcvs	0x006c0047
 d28:	776f6477 			; <UNDEFINED> instruction: 0x776f6477
 d2c:	6c76006e 	ldclvs	0, cr0, [r6], #-440	; 0xfffffe48
 d30:	6761746f 	strbvs	r7, [r1, -pc, ror #8]!
 d34:	61765f65 	cmnvs	r6, r5, ror #30
 d38:	0065756c 	rsbeq	r7, r5, ip, ror #10
 d3c:	48474948 	stmdami	r7, {r3, r6, r8, fp, lr}^
 d40:	544c4f56 	strbpl	r4, [ip], #-3926	; 0xfffff0aa
 d44:	5f454741 	svcpl	0x00454741
 d48:	465f5055 			; <UNDEFINED> instruction: 0x465f5055
 d4c:	7600474c 	strvc	r4, [r0], -ip, asr #14
 d50:	61746c6f 	cmnvs	r4, pc, ror #24
 d54:	6c466567 	cfstr64vs	mvdx6, [r6], {103}	; 0x67
 d58:	00745f67 	rsbseq	r5, r4, r7, ror #30
 d5c:	2f637273 	svccs	0x00637273
 d60:	2e636461 	cdpcs	4, 6, cr6, cr3, cr1, {3}
 d64:	6f760063 	svcvs	0x00760063
 d68:	6761746c 	strbvs	r7, [r1, -ip, ror #8]!
 d6c:	6f635f65 	svcvs	0x00635f65
 d70:	6f72746e 	svcvs	0x0072746e
 d74:	6e695f6c 	cdpvs	15, 6, cr5, cr9, cr12, {3}
 d78:	68007469 	stmdavs	r0, {r0, r3, r5, r6, sl, ip, sp, lr}
 d7c:	615f6c61 	cmpvs	pc, r1, ror #24
 d80:	695f6364 	ldmdbvs	pc, {r2, r5, r6, r8, r9, sp, lr}^	; <UNPREDICTABLE>
 d84:	0074696e 	rsbseq	r6, r4, lr, ror #18
 d88:	746c6f76 	strbtvc	r6, [ip], #-3958	; 0xfffff08a
 d8c:	5f656761 	svcpl	0x00656761
 d90:	6e616843 	cdpvs	8, 6, cr6, cr1, cr3, {2}
 d94:	765f6567 	ldrbvc	r6, [pc], -r7, ror #10
 d98:	65756c61 	ldrbvs	r6, [r5, #-3169]!	; 0xfffff39f
 d9c:	776f6c00 	strbvc	r6, [pc, -r0, lsl #24]!
 da0:	00707564 	rsbseq	r7, r0, r4, ror #10
 da4:	6464696d 	strbtvs	r6, [r4], #-2413	; 0xfffff693
 da8:	6800656c 	stmdavs	r0, {r2, r3, r5, r6, r8, sl, sp, lr}
 dac:	64686769 	strbtvs	r6, [r8], #-1897	; 0xfffff897
 db0:	006e776f 	rsbeq	r7, lr, pc, ror #14
 db4:	6e69616d 	powvsez	f6, f1, #5.0
 db8:	6d00632e 	stcvs	3, cr6, [r0, #-184]	; 0xffffff48
 dbc:	006e6961 	rsbeq	r6, lr, r1, ror #18

Disassembly of section .debug_frame:

00000000 <.debug_frame>:
   0:	0000000c 	andeq	r0, r0, ip
   4:	ffffffff 			; <UNDEFINED> instruction: 0xffffffff
   8:	7c020001 	stcvc	0, cr0, [r2], {1}
   c:	000d0c0e 	andeq	r0, sp, lr, lsl #24
  10:	00000014 	andeq	r0, r0, r4, lsl r0
  14:	00000000 	andeq	r0, r0, r0
  18:	43c00364 	bicmi	r0, r0, #100, 6	; 0x90000001
  1c:	00000050 	andeq	r0, r0, r0, asr r0
  20:	42040e42 	andmi	r0, r4, #1056	; 0x420
  24:	0b0d018b 	bleq	340658 <_start-0x438bf9a8>
  28:	00000018 	andeq	r0, r0, r8, lsl r0
  2c:	00000000 	andeq	r0, r0, r0
  30:	43c003b4 	bicmi	r0, r0, #180, 6	; 0xd0000002
  34:	000001a4 	andeq	r0, r0, r4, lsr #3
  38:	42080e42 	andmi	r0, r8, #1056	; 0x420
  3c:	028b018e 	addeq	r0, fp, #-2147483613	; 0x80000023
  40:	00040b0c 	andeq	r0, r4, ip, lsl #22
  44:	00000018 	andeq	r0, r0, r8, lsl r0
  48:	00000000 	andeq	r0, r0, r0
  4c:	43c00558 	bicmi	r0, r0, #88, 10	; 0x16000000
  50:	0000006c 	andeq	r0, r0, ip, rrx
  54:	42080e42 	andmi	r0, r8, #1056	; 0x420
  58:	028b018e 	addeq	r0, fp, #-2147483613	; 0x80000023
  5c:	00040b0c 	andeq	r0, r4, ip, lsl #22
  60:	00000014 	andeq	r0, r0, r4, lsl r0
  64:	00000000 	andeq	r0, r0, r0
  68:	43c005c4 	bicmi	r0, r0, #196, 10	; 0x31000000
  6c:	00000094 	muleq	r0, r4, r0
  70:	42040e42 	andmi	r0, r4, #1056	; 0x420
  74:	0b0d018b 	bleq	3406a8 <_start-0x438bf958>
  78:	00000018 	andeq	r0, r0, r8, lsl r0
  7c:	00000000 	andeq	r0, r0, r0
  80:	43c00658 	bicmi	r0, r0, #88, 12	; 0x5800000
  84:	00000498 	muleq	r0, r8, r4
  88:	42080e42 	andmi	r0, r8, #1056	; 0x420
  8c:	028b018e 	addeq	r0, fp, #-2147483613	; 0x80000023
  90:	00040b0c 	andeq	r0, r4, ip, lsl #22
  94:	00000014 	andeq	r0, r0, r4, lsl r0
  98:	00000000 	andeq	r0, r0, r0
  9c:	43c00af0 	bicmi	r0, r0, #240, 20	; 0xf0000
  a0:	00000080 	andeq	r0, r0, r0, lsl #1
  a4:	42040e42 	andmi	r0, r4, #1056	; 0x420
  a8:	0b0d018b 	bleq	3406dc <_start-0x438bf924>
  ac:	00000018 	andeq	r0, r0, r8, lsl r0
  b0:	00000000 	andeq	r0, r0, r0
  b4:	43c00b70 	bicmi	r0, r0, #112, 22	; 0x1c000
  b8:	00000934 	andeq	r0, r0, r4, lsr r9
  bc:	42080e42 	andmi	r0, r8, #1056	; 0x420
  c0:	028b018e 	addeq	r0, fp, #-2147483613	; 0x80000023
  c4:	00040b0c 	andeq	r0, r4, ip, lsl #22
  c8:	00000020 	andeq	r0, r0, r0, lsr #32
  cc:	00000000 	andeq	r0, r0, r0
  d0:	43c014a4 	bicmi	r1, r0, #164, 8	; 0xa4000000
  d4:	0000004c 	andeq	r0, r0, ip, asr #32
  d8:	420c0e42 	andmi	r0, ip, #1056	; 0x420
  dc:	8e42140e 	cdphi	4, 4, cr1, cr2, cr14, {0}
  e0:	83058b04 	movwhi	r8, #23300	; 0x5b04
  e4:	81028201 	tsthi	r2, r1, lsl #4
  e8:	100b0c03 	andne	r0, fp, r3, lsl #24
  ec:	00000024 	andeq	r0, r0, r4, lsr #32
  f0:	00000000 	andeq	r0, r0, r0
  f4:	43c014f0 	bicmi	r1, r0, #240, 8	; 0xf0000000
  f8:	0000004c 	andeq	r0, r0, ip, asr #32
  fc:	42100e42 	andsmi	r0, r0, #1056	; 0x420
 100:	8e42180e 	cdphi	8, 4, cr1, cr2, cr14, {0}
 104:	83068b05 	movwhi	r8, #27397	; 0x6b05
 108:	81028201 	tsthi	r2, r1, lsl #4
 10c:	0c048003 	stceq	0, cr8, [r4], {3}
 110:	0000140b 	andeq	r1, r0, fp, lsl #8
 114:	0000000c 	andeq	r0, r0, ip
 118:	ffffffff 			; <UNDEFINED> instruction: 0xffffffff
 11c:	7c020001 	stcvc	0, cr0, [r2], {1}
 120:	000d0c0e 	andeq	r0, sp, lr, lsl #24
 124:	00000014 	andeq	r0, r0, r4, lsl r0
 128:	00000114 	andeq	r0, r0, r4, lsl r1
 12c:	43c0153c 	bicmi	r1, r0, #60, 10	; 0xf000000
 130:	000000c0 	andeq	r0, r0, r0, asr #1
 134:	42040e42 	andmi	r0, r4, #1056	; 0x420
 138:	0b0d018b 	bleq	34076c <_start-0x438bf894>
 13c:	00000018 	andeq	r0, r0, r8, lsl r0
 140:	00000114 	andeq	r0, r0, r4, lsl r1
 144:	43c015fc 	bicmi	r1, r0, #252, 10	; 0x3f000000
 148:	00000058 	andeq	r0, r0, r8, asr r0
 14c:	42080e42 	andmi	r0, r8, #1056	; 0x420
 150:	028b018e 	addeq	r0, fp, #-2147483613	; 0x80000023
 154:	00040b0c 	andeq	r0, r4, ip, lsl #22
 158:	00000018 	andeq	r0, r0, r8, lsl r0
 15c:	00000114 	andeq	r0, r0, r4, lsl r1
 160:	43c01654 	bicmi	r1, r0, #84, 12	; 0x5400000
 164:	00000048 	andeq	r0, r0, r8, asr #32
 168:	42080e42 	andmi	r0, r8, #1056	; 0x420
 16c:	028b018e 	addeq	r0, fp, #-2147483613	; 0x80000023
 170:	00040b0c 	andeq	r0, r4, ip, lsl #22
 174:	00000014 	andeq	r0, r0, r4, lsl r0
 178:	00000114 	andeq	r0, r0, r4, lsl r1
 17c:	43c0169c 	bicmi	r1, r0, #156, 12	; 0x9c00000
 180:	00000048 	andeq	r0, r0, r8, asr #32
 184:	42040e42 	andmi	r0, r4, #1056	; 0x420
 188:	0b0d018b 	bleq	3407bc <_start-0x438bf844>
 18c:	0000000c 	andeq	r0, r0, ip
 190:	ffffffff 			; <UNDEFINED> instruction: 0xffffffff
 194:	7c020001 	stcvc	0, cr0, [r2], {1}
 198:	000d0c0e 	andeq	r0, sp, lr, lsl #24
 19c:	00000018 	andeq	r0, r0, r8, lsl r0
 1a0:	0000018c 	andeq	r0, r0, ip, lsl #3
 1a4:	43c016e4 	bicmi	r1, r0, #228, 12	; 0xe400000
 1a8:	00000104 	andeq	r0, r0, r4, lsl #2
 1ac:	42080e42 	andmi	r0, r8, #1056	; 0x420
 1b0:	028b018e 	addeq	r0, fp, #-2147483613	; 0x80000023
 1b4:	00040b0c 	andeq	r0, r4, ip, lsl #22
 1b8:	00000014 	andeq	r0, r0, r4, lsl r0
 1bc:	0000018c 	andeq	r0, r0, ip, lsl #3
 1c0:	43c017e8 	bicmi	r1, r0, #232, 14	; 0x3a00000
 1c4:	00000024 	andeq	r0, r0, r4, lsr #32
 1c8:	42040e42 	andmi	r0, r4, #1056	; 0x420
 1cc:	0b0d018b 	bleq	340800 <_start-0x438bf800>
 1d0:	0000000c 	andeq	r0, r0, ip
 1d4:	ffffffff 			; <UNDEFINED> instruction: 0xffffffff
 1d8:	7c020001 	stcvc	0, cr0, [r2], {1}
 1dc:	000d0c0e 	andeq	r0, sp, lr, lsl #24
 1e0:	00000014 	andeq	r0, r0, r4, lsl r0
 1e4:	000001d0 	ldrdeq	r0, [r0], -r0	; <UNPREDICTABLE>
 1e8:	43c0180c 	bicmi	r1, r0, #12, 16	; 0xc0000
 1ec:	000001a0 	andeq	r0, r0, r0, lsr #3
 1f0:	42040e42 	andmi	r0, r4, #1056	; 0x420
 1f4:	0b0d018b 	bleq	340828 <_start-0x438bf7d8>
 1f8:	00000014 	andeq	r0, r0, r4, lsl r0
 1fc:	000001d0 	ldrdeq	r0, [r0], -r0	; <UNPREDICTABLE>
 200:	43c019ac 	bicmi	r1, r0, #172, 18	; 0x2b0000
 204:	00000058 	andeq	r0, r0, r8, asr r0
 208:	42040e42 	andmi	r0, r4, #1056	; 0x420
 20c:	0b0d018b 	bleq	340840 <_start-0x438bf7c0>
 210:	00000018 	andeq	r0, r0, r8, lsl r0
 214:	000001d0 	ldrdeq	r0, [r0], -r0	; <UNPREDICTABLE>
 218:	43c01a04 	bicmi	r1, r0, #4, 20	; 0x4000
 21c:	0000005c 	andeq	r0, r0, ip, asr r0
 220:	42080e42 	andmi	r0, r8, #1056	; 0x420
 224:	028b018e 	addeq	r0, fp, #-2147483613	; 0x80000023
 228:	00040b0c 	andeq	r0, r4, ip, lsl #22
 22c:	00000018 	andeq	r0, r0, r8, lsl r0
 230:	000001d0 	ldrdeq	r0, [r0], -r0	; <UNPREDICTABLE>
 234:	43c01a60 	bicmi	r1, r0, #96, 20	; 0x60000
 238:	00000080 	andeq	r0, r0, r0, lsl #1
 23c:	42080e42 	andmi	r0, r8, #1056	; 0x420
 240:	028b018e 	addeq	r0, fp, #-2147483613	; 0x80000023
 244:	00040b0c 	andeq	r0, r4, ip, lsl #22
 248:	00000018 	andeq	r0, r0, r8, lsl r0
 24c:	000001d0 	ldrdeq	r0, [r0], -r0	; <UNPREDICTABLE>
 250:	43c01ae0 	bicmi	r1, r0, #224, 20	; 0xe0000
 254:	00000050 	andeq	r0, r0, r0, asr r0
 258:	42080e42 	andmi	r0, r8, #1056	; 0x420
 25c:	028b018e 	addeq	r0, fp, #-2147483613	; 0x80000023
 260:	00040b0c 	andeq	r0, r4, ip, lsl #22
 264:	00000018 	andeq	r0, r0, r8, lsl r0
 268:	000001d0 	ldrdeq	r0, [r0], -r0	; <UNPREDICTABLE>
 26c:	43c01b30 	bicmi	r1, r0, #48, 22	; 0xc000
 270:	000000cc 	andeq	r0, r0, ip, asr #1
 274:	42080e42 	andmi	r0, r8, #1056	; 0x420
 278:	028b018e 	addeq	r0, fp, #-2147483613	; 0x80000023
 27c:	00040b0c 	andeq	r0, r4, ip, lsl #22
 280:	00000014 	andeq	r0, r0, r4, lsl r0
 284:	000001d0 	ldrdeq	r0, [r0], -r0	; <UNPREDICTABLE>
 288:	43c01bfc 	bicmi	r1, r0, #252, 22	; 0x3f000
 28c:	000000b4 	strheq	r0, [r0], -r4
 290:	42040e42 	andmi	r0, r4, #1056	; 0x420
 294:	0b0d018b 	bleq	3408c8 <_start-0x438bf738>
 298:	00000018 	andeq	r0, r0, r8, lsl r0
 29c:	000001d0 	ldrdeq	r0, [r0], -r0	; <UNPREDICTABLE>
 2a0:	43c01cb0 	bicmi	r1, r0, #176, 24	; 0xb000
 2a4:	00000184 	andeq	r0, r0, r4, lsl #3
 2a8:	42080e42 	andmi	r0, r8, #1056	; 0x420
 2ac:	028b018e 	addeq	r0, fp, #-2147483613	; 0x80000023
 2b0:	00040b0c 	andeq	r0, r4, ip, lsl #22
 2b4:	00000014 	andeq	r0, r0, r4, lsl r0
 2b8:	000001d0 	ldrdeq	r0, [r0], -r0	; <UNPREDICTABLE>
 2bc:	43c01e34 	bicmi	r1, r0, #52, 28	; 0x340
 2c0:	00000190 	muleq	r0, r0, r1
 2c4:	42040e42 	andmi	r0, r4, #1056	; 0x420
 2c8:	0b0d018b 	bleq	3408fc <_start-0x438bf704>
 2cc:	00000014 	andeq	r0, r0, r4, lsl r0
 2d0:	000001d0 	ldrdeq	r0, [r0], -r0	; <UNPREDICTABLE>
 2d4:	43c01fc4 	bicmi	r1, r0, #196, 30	; 0x310
 2d8:	0000013c 	andeq	r0, r0, ip, lsr r1
 2dc:	42040e42 	andmi	r0, r4, #1056	; 0x420
 2e0:	0b0d018b 	bleq	340914 <_start-0x438bf6ec>
 2e4:	00000018 	andeq	r0, r0, r8, lsl r0
 2e8:	000001d0 	ldrdeq	r0, [r0], -r0	; <UNPREDICTABLE>
 2ec:	43c02100 	bicmi	r2, r0, #0, 2
 2f0:	00000380 	andeq	r0, r0, r0, lsl #7
 2f4:	42080e42 	andmi	r0, r8, #1056	; 0x420
 2f8:	028b018e 	addeq	r0, fp, #-2147483613	; 0x80000023
 2fc:	00040b0c 	andeq	r0, r4, ip, lsl #22
 300:	00000014 	andeq	r0, r0, r4, lsl r0
 304:	000001d0 	ldrdeq	r0, [r0], -r0	; <UNPREDICTABLE>
 308:	43c02480 	bicmi	r2, r0, #128, 8	; 0x80000000
 30c:	0000007c 	andeq	r0, r0, ip, ror r0
 310:	42040e42 	andmi	r0, r4, #1056	; 0x420
 314:	0b0d018b 	bleq	340948 <_start-0x438bf6b8>
 318:	0000000c 	andeq	r0, r0, ip
 31c:	ffffffff 			; <UNDEFINED> instruction: 0xffffffff
 320:	7c020001 	stcvc	0, cr0, [r2], {1}
 324:	000d0c0e 	andeq	r0, sp, lr, lsl #24
 328:	00000018 	andeq	r0, r0, r8, lsl r0
 32c:	00000318 	andeq	r0, r0, r8, lsl r3
 330:	43c024fc 	bicmi	r2, r0, #252, 8	; 0xfc000000
 334:	000002c8 	andeq	r0, r0, r8, asr #5
 338:	42080e42 	andmi	r0, r8, #1056	; 0x420
 33c:	028b018e 	addeq	r0, fp, #-2147483613	; 0x80000023
 340:	00040b0c 	andeq	r0, r4, ip, lsl #22
 344:	0000000c 	andeq	r0, r0, ip
 348:	ffffffff 			; <UNDEFINED> instruction: 0xffffffff
 34c:	7c020001 	stcvc	0, cr0, [r2], {1}
 350:	000d0c0e 	andeq	r0, sp, lr, lsl #24
 354:	00000018 	andeq	r0, r0, r8, lsl r0
 358:	00000344 	andeq	r0, r0, r4, asr #6
 35c:	43c027c4 	bicmi	r2, r0, #196, 14	; 0x3100000
 360:	00000158 	andeq	r0, r0, r8, asr r1
 364:	42080e42 	andmi	r0, r8, #1056	; 0x420
 368:	028b018e 	addeq	r0, fp, #-2147483613	; 0x80000023
 36c:	00040b0c 	andeq	r0, r4, ip, lsl #22
 370:	00000018 	andeq	r0, r0, r8, lsl r0
 374:	00000344 	andeq	r0, r0, r4, asr #6
 378:	43c0291c 	bicmi	r2, r0, #28, 18	; 0x70000
 37c:	00000154 	andeq	r0, r0, r4, asr r1
 380:	42080e42 	andmi	r0, r8, #1056	; 0x420
 384:	028b018e 	addeq	r0, fp, #-2147483613	; 0x80000023
 388:	00040b0c 	andeq	r0, r4, ip, lsl #22
 38c:	00000018 	andeq	r0, r0, r8, lsl r0
 390:	00000344 	andeq	r0, r0, r4, asr #6
 394:	43c02a70 	bicmi	r2, r0, #112, 20	; 0x70000
 398:	00000150 	andeq	r0, r0, r0, asr r1
 39c:	42080e42 	andmi	r0, r8, #1056	; 0x420
 3a0:	028b018e 	addeq	r0, fp, #-2147483613	; 0x80000023
 3a4:	00040b0c 	andeq	r0, r4, ip, lsl #22
 3a8:	00000014 	andeq	r0, r0, r4, lsl r0
 3ac:	00000344 	andeq	r0, r0, r4, asr #6
 3b0:	43c02bc0 	bicmi	r2, r0, #192, 22	; 0x30000
 3b4:	00000040 	andeq	r0, r0, r0, asr #32
 3b8:	42040e42 	andmi	r0, r4, #1056	; 0x420
 3bc:	0b0d018b 	bleq	3409f0 <_start-0x438bf610>
 3c0:	0000000c 	andeq	r0, r0, ip
 3c4:	ffffffff 			; <UNDEFINED> instruction: 0xffffffff
 3c8:	7c020001 	stcvc	0, cr0, [r2], {1}
 3cc:	000d0c0e 	andeq	r0, sp, lr, lsl #24
 3d0:	00000014 	andeq	r0, r0, r4, lsl r0
 3d4:	000003c0 	andeq	r0, r0, r0, asr #7
 3d8:	43c02c00 	bicmi	r2, r0, #0, 24
 3dc:	00000144 	andeq	r0, r0, r4, asr #2
 3e0:	42040e42 	andmi	r0, r4, #1056	; 0x420
 3e4:	0b0d018b 	bleq	340a18 <_start-0x438bf5e8>
 3e8:	00000014 	andeq	r0, r0, r4, lsl r0
 3ec:	000003c0 	andeq	r0, r0, r0, asr #7
 3f0:	43c02d44 	bicmi	r2, r0, #68, 26	; 0x1100
 3f4:	0000025c 	andeq	r0, r0, ip, asr r2
 3f8:	42040e42 	andmi	r0, r4, #1056	; 0x420
 3fc:	0b0d018b 	bleq	340a30 <_start-0x438bf5d0>
 400:	0000000c 	andeq	r0, r0, ip
 404:	ffffffff 			; <UNDEFINED> instruction: 0xffffffff
 408:	7c020001 	stcvc	0, cr0, [r2], {1}
 40c:	000d0c0e 	andeq	r0, sp, lr, lsl #24
 410:	00000014 	andeq	r0, r0, r4, lsl r0
 414:	00000400 	andeq	r0, r0, r0, lsl #8
 418:	43c02fa0 	bicmi	r2, r0, #160, 30	; 0x280
 41c:	00000070 	andeq	r0, r0, r0, ror r0
 420:	42040e42 	andmi	r0, r4, #1056	; 0x420
 424:	0b0d018b 	bleq	340a58 <_start-0x438bf5a8>
 428:	0000000c 	andeq	r0, r0, ip
 42c:	ffffffff 			; <UNDEFINED> instruction: 0xffffffff
 430:	7c020001 	stcvc	0, cr0, [r2], {1}
 434:	000d0c0e 	andeq	r0, sp, lr, lsl #24
 438:	00000014 	andeq	r0, r0, r4, lsl r0
 43c:	00000428 	andeq	r0, r0, r8, lsr #8
 440:	43c03010 	bicmi	r3, r0, #16
 444:	000000e8 	andeq	r0, r0, r8, ror #1
 448:	42040e42 	andmi	r0, r4, #1056	; 0x420
 44c:	0b0d018b 	bleq	340a80 <_start-0x438bf580>
 450:	00000014 	andeq	r0, r0, r4, lsl r0
 454:	00000428 	andeq	r0, r0, r8, lsr #8
 458:	43c030f8 	bicmi	r3, r0, #248	; 0xf8
 45c:	00000058 	andeq	r0, r0, r8, asr r0
 460:	42040e42 	andmi	r0, r4, #1056	; 0x420
 464:	0b0d018b 	bleq	340a98 <_start-0x438bf568>
 468:	00000014 	andeq	r0, r0, r4, lsl r0
 46c:	00000428 	andeq	r0, r0, r8, lsr #8
 470:	43c03150 	bicmi	r3, r0, #80, 2
 474:	00000058 	andeq	r0, r0, r8, asr r0
 478:	42040e42 	andmi	r0, r4, #1056	; 0x420
 47c:	0b0d018b 	bleq	340ab0 <_start-0x438bf550>
 480:	00000014 	andeq	r0, r0, r4, lsl r0
 484:	00000428 	andeq	r0, r0, r8, lsr #8
 488:	43c031a8 	bicmi	r3, r0, #168, 2	; 0x2a
 48c:	00000058 	andeq	r0, r0, r8, asr r0
 490:	42040e42 	andmi	r0, r4, #1056	; 0x420
 494:	0b0d018b 	bleq	340ac8 <_start-0x438bf538>
 498:	00000018 	andeq	r0, r0, r8, lsl r0
 49c:	00000428 	andeq	r0, r0, r8, lsr #8
 4a0:	43c03200 	bicmi	r3, r0, #0, 4
 4a4:	0000002c 	andeq	r0, r0, ip, lsr #32
 4a8:	42080e42 	andmi	r0, r8, #1056	; 0x420
 4ac:	028b018e 	addeq	r0, fp, #-2147483613	; 0x80000023
 4b0:	00040b0c 	andeq	r0, r4, ip, lsl #22
 4b4:	00000018 	andeq	r0, r0, r8, lsl r0
 4b8:	00000428 	andeq	r0, r0, r8, lsr #8
 4bc:	43c0322c 	bicmi	r3, r0, #44, 4	; 0xc0000002
 4c0:	0000002c 	andeq	r0, r0, ip, lsr #32
 4c4:	42080e42 	andmi	r0, r8, #1056	; 0x420
 4c8:	028b018e 	addeq	r0, fp, #-2147483613	; 0x80000023
 4cc:	00040b0c 	andeq	r0, r4, ip, lsl #22
 4d0:	00000018 	andeq	r0, r0, r8, lsl r0
 4d4:	00000428 	andeq	r0, r0, r8, lsr #8
 4d8:	43c03258 	bicmi	r3, r0, #88, 4	; 0x80000005
 4dc:	0000002c 	andeq	r0, r0, ip, lsr #32
 4e0:	42080e42 	andmi	r0, r8, #1056	; 0x420
 4e4:	028b018e 	addeq	r0, fp, #-2147483613	; 0x80000023
 4e8:	00040b0c 	andeq	r0, r4, ip, lsl #22
 4ec:	00000018 	andeq	r0, r0, r8, lsl r0
 4f0:	00000428 	andeq	r0, r0, r8, lsr #8
 4f4:	43c03284 	bicmi	r3, r0, #132, 4	; 0x40000008
 4f8:	00000054 	andeq	r0, r0, r4, asr r0
 4fc:	42080e42 	andmi	r0, r8, #1056	; 0x420
 500:	028b018e 	addeq	r0, fp, #-2147483613	; 0x80000023
 504:	00040b0c 	andeq	r0, r4, ip, lsl #22
 508:	00000018 	andeq	r0, r0, r8, lsl r0
 50c:	00000428 	andeq	r0, r0, r8, lsr #8
 510:	43c032d8 	bicmi	r3, r0, #216, 4	; 0x8000000d
 514:	0000004c 	andeq	r0, r0, ip, asr #32
 518:	42080e42 	andmi	r0, r8, #1056	; 0x420
 51c:	028b018e 	addeq	r0, fp, #-2147483613	; 0x80000023
 520:	00040b0c 	andeq	r0, r4, ip, lsl #22
 524:	0000000c 	andeq	r0, r0, ip
 528:	ffffffff 			; <UNDEFINED> instruction: 0xffffffff
 52c:	7c020001 	stcvc	0, cr0, [r2], {1}
 530:	000d0c0e 	andeq	r0, sp, lr, lsl #24
 534:	00000014 	andeq	r0, r0, r4, lsl r0
 538:	00000524 	andeq	r0, r0, r4, lsr #10
 53c:	43c03324 	bicmi	r3, r0, #36, 6	; 0x90000000
 540:	00000110 	andeq	r0, r0, r0, lsl r1
 544:	42040e42 	andmi	r0, r4, #1056	; 0x420
 548:	0b0d018b 	bleq	340b7c <_start-0x438bf484>
 54c:	00000014 	andeq	r0, r0, r4, lsl r0
 550:	00000524 	andeq	r0, r0, r4, lsr #10
 554:	43c03434 	bicmi	r3, r0, #52, 8	; 0x34000000
 558:	00000048 	andeq	r0, r0, r8, asr #32
 55c:	42040e42 	andmi	r0, r4, #1056	; 0x420
 560:	0b0d018b 	bleq	340b94 <_start-0x438bf46c>
 564:	00000018 	andeq	r0, r0, r8, lsl r0
 568:	00000524 	andeq	r0, r0, r4, lsr #10
 56c:	43c0347c 	bicmi	r3, r0, #124, 8	; 0x7c000000
 570:	000000a0 	andeq	r0, r0, r0, lsr #1
 574:	42080e42 	andmi	r0, r8, #1056	; 0x420
 578:	028b018e 	addeq	r0, fp, #-2147483613	; 0x80000023
 57c:	00040b0c 	andeq	r0, r4, ip, lsl #22
 580:	00000014 	andeq	r0, r0, r4, lsl r0
 584:	00000524 	andeq	r0, r0, r4, lsr #10
 588:	43c0351c 	bicmi	r3, r0, #28, 10	; 0x7000000
 58c:	0000009c 	muleq	r0, ip, r0
 590:	42040e42 	andmi	r0, r4, #1056	; 0x420
 594:	0b0d018b 	bleq	340bc8 <_start-0x438bf438>
 598:	00000018 	andeq	r0, r0, r8, lsl r0
 59c:	00000524 	andeq	r0, r0, r4, lsr #10
 5a0:	43c035b8 	bicmi	r3, r0, #184, 10	; 0x2e000000
 5a4:	0000015c 	andeq	r0, r0, ip, asr r1
 5a8:	42080e42 	andmi	r0, r8, #1056	; 0x420
 5ac:	028b018e 	addeq	r0, fp, #-2147483613	; 0x80000023
 5b0:	00040b0c 	andeq	r0, r4, ip, lsl #22
 5b4:	00000018 	andeq	r0, r0, r8, lsl r0
 5b8:	00000524 	andeq	r0, r0, r4, lsr #10
 5bc:	43c03714 	bicmi	r3, r0, #20, 14	; 0x500000
 5c0:	0000021c 	andeq	r0, r0, ip, lsl r2
 5c4:	42080e42 	andmi	r0, r8, #1056	; 0x420
 5c8:	028b018e 	addeq	r0, fp, #-2147483613	; 0x80000023
 5cc:	00040b0c 	andeq	r0, r4, ip, lsl #22
 5d0:	0000000c 	andeq	r0, r0, ip
 5d4:	ffffffff 			; <UNDEFINED> instruction: 0xffffffff
 5d8:	7c020001 	stcvc	0, cr0, [r2], {1}
 5dc:	000d0c0e 	andeq	r0, sp, lr, lsl #24
 5e0:	00000018 	andeq	r0, r0, r8, lsl r0
 5e4:	000005d0 	ldrdeq	r0, [r0], -r0	; <UNPREDICTABLE>
 5e8:	43c03930 	bicmi	r3, r0, #48, 18	; 0xc0000
 5ec:	00000054 	andeq	r0, r0, r4, asr r0
 5f0:	42080e42 	andmi	r0, r8, #1056	; 0x420
 5f4:	028b018e 	addeq	r0, fp, #-2147483613	; 0x80000023
 5f8:	00040b0c 	andeq	r0, r4, ip, lsl #22
